
fir1:     file format elf64-littleriscv


Disassembly of section .text.init:

0000000080000000 <_start>:
#endif

  .section ".text.init"
  .globl _start
_start:
  li  x1, 0
    80000000:	4081                	li	ra,0
  li  x2, 0
    80000002:	4101                	li	sp,0
  li  x3, 0
    80000004:	4181                	li	gp,0
  li  x4, 0
    80000006:	4201                	li	tp,0
  li  x5, 0
    80000008:	4281                	li	t0,0
  li  x6, 0
    8000000a:	4301                	li	t1,0
  li  x7, 0
    8000000c:	4381                	li	t2,0
  li  x8, 0
    8000000e:	4401                	li	s0,0
  li  x9, 0
    80000010:	4481                	li	s1,0
  li  x10,0
    80000012:	4501                	li	a0,0
  li  x11,0
    80000014:	4581                	li	a1,0
  li  x12,0
    80000016:	4601                	li	a2,0
  li  x13,0
    80000018:	4681                	li	a3,0
  li  x14,0
    8000001a:	4701                	li	a4,0
  li  x15,0
    8000001c:	4781                	li	a5,0
  li  x16,0
    8000001e:	4801                	li	a6,0
  li  x17,0
    80000020:	4881                	li	a7,0
  li  x18,0
    80000022:	4901                	li	s2,0
  li  x19,0
    80000024:	4981                	li	s3,0
  li  x20,0
    80000026:	4a01                	li	s4,0
  li  x21,0
    80000028:	4a81                	li	s5,0
  li  x22,0
    8000002a:	4b01                	li	s6,0
  li  x23,0
    8000002c:	4b81                	li	s7,0
  li  x24,0
    8000002e:	4c01                	li	s8,0
  li  x25,0
    80000030:	4c81                	li	s9,0
  li  x26,0
    80000032:	4d01                	li	s10,0
  li  x27,0
    80000034:	4d81                	li	s11,0
  li  x28,0
    80000036:	4e01                	li	t3,0
  li  x29,0
    80000038:	4e81                	li	t4,0
  li  x30,0
    8000003a:	4f01                	li	t5,0
  li  x31,0
    8000003c:	4f81                	li	t6,0

  # enable FPU and accelerator if present
  li t0, MSTATUS_FS | MSTATUS_XS
    8000003e:	62f9                	lui	t0,0x1e
  csrs mstatus, t0
    80000040:	3002a073          	csrs	mstatus,t0

  # make sure XLEN agrees with compilation choice
  li t0, 1
    80000044:	4285                	li	t0,1
  slli t0, t0, 31
    80000046:	02fe                	slli	t0,t0,0x1f
#if __riscv_xlen == 64
  bgez t0, 1f
    80000048:	0002d863          	bgez	t0,80000058 <_start+0x58>
#else
  bltz t0, 1f
#endif
2:
  li a0, 1
    8000004c:	4505                	li	a0,1
  sw a0, tohost, t0
    8000004e:	00001297          	auipc	t0,0x1
    80000052:	faa2a923          	sw	a0,-78(t0) # 80001000 <tohost>
  j 2b
    80000056:	bfdd                	j	8000004c <_start+0x4c>
1:

#ifdef __riscv_flen
  # initialize FPU if we have one
  la t0, 1f
    80000058:	00000297          	auipc	t0,0x0
    8000005c:	09028293          	addi	t0,t0,144 # 800000e8 <_start+0xe8>
  csrw mtvec, t0
    80000060:	30529073          	csrw	mtvec,t0

  fssr    x0
    80000064:	00301073          	fscsr	zero
  fmv.s.x f0, x0
    80000068:	f0000053          	fmv.w.x	ft0,zero
  fmv.s.x f1, x0
    8000006c:	f00000d3          	fmv.w.x	ft1,zero
  fmv.s.x f2, x0
    80000070:	f0000153          	fmv.w.x	ft2,zero
  fmv.s.x f3, x0
    80000074:	f00001d3          	fmv.w.x	ft3,zero
  fmv.s.x f4, x0
    80000078:	f0000253          	fmv.w.x	ft4,zero
  fmv.s.x f5, x0
    8000007c:	f00002d3          	fmv.w.x	ft5,zero
  fmv.s.x f6, x0
    80000080:	f0000353          	fmv.w.x	ft6,zero
  fmv.s.x f7, x0
    80000084:	f00003d3          	fmv.w.x	ft7,zero
  fmv.s.x f8, x0
    80000088:	f0000453          	fmv.w.x	fs0,zero
  fmv.s.x f9, x0
    8000008c:	f00004d3          	fmv.w.x	fs1,zero
  fmv.s.x f10,x0
    80000090:	f0000553          	fmv.w.x	fa0,zero
  fmv.s.x f11,x0
    80000094:	f00005d3          	fmv.w.x	fa1,zero
  fmv.s.x f12,x0
    80000098:	f0000653          	fmv.w.x	fa2,zero
  fmv.s.x f13,x0
    8000009c:	f00006d3          	fmv.w.x	fa3,zero
  fmv.s.x f14,x0
    800000a0:	f0000753          	fmv.w.x	fa4,zero
  fmv.s.x f15,x0
    800000a4:	f00007d3          	fmv.w.x	fa5,zero
  fmv.s.x f16,x0
    800000a8:	f0000853          	fmv.w.x	fa6,zero
  fmv.s.x f17,x0
    800000ac:	f00008d3          	fmv.w.x	fa7,zero
  fmv.s.x f18,x0
    800000b0:	f0000953          	fmv.w.x	fs2,zero
  fmv.s.x f19,x0
    800000b4:	f00009d3          	fmv.w.x	fs3,zero
  fmv.s.x f20,x0
    800000b8:	f0000a53          	fmv.w.x	fs4,zero
  fmv.s.x f21,x0
    800000bc:	f0000ad3          	fmv.w.x	fs5,zero
  fmv.s.x f22,x0
    800000c0:	f0000b53          	fmv.w.x	fs6,zero
  fmv.s.x f23,x0
    800000c4:	f0000bd3          	fmv.w.x	fs7,zero
  fmv.s.x f24,x0
    800000c8:	f0000c53          	fmv.w.x	fs8,zero
  fmv.s.x f25,x0
    800000cc:	f0000cd3          	fmv.w.x	fs9,zero
  fmv.s.x f26,x0
    800000d0:	f0000d53          	fmv.w.x	fs10,zero
  fmv.s.x f27,x0
    800000d4:	f0000dd3          	fmv.w.x	fs11,zero
  fmv.s.x f28,x0
    800000d8:	f0000e53          	fmv.w.x	ft8,zero
  fmv.s.x f29,x0
    800000dc:	f0000ed3          	fmv.w.x	ft9,zero
  fmv.s.x f30,x0
    800000e0:	f0000f53          	fmv.w.x	ft10,zero
  fmv.s.x f31,x0
    800000e4:	f0000fd3          	fmv.w.x	ft11,zero
1:
#endif

  # initialize trap vector
  la t0, trap_entry
    800000e8:	00000297          	auipc	t0,0x0
    800000ec:	03828293          	addi	t0,t0,56 # 80000120 <trap_entry>
  csrw mtvec, t0
    800000f0:	30529073          	csrw	mtvec,t0

  # initialize global pointer
.option push
.option norelax
  la gp, __global_pointer$
    800000f4:	00001197          	auipc	gp,0x1
    800000f8:	75418193          	addi	gp,gp,1876 # 80001848 <__global_pointer$>
.option pop

  la  tp, _end + 63
    800000fc:	abf18213          	addi	tp,gp,-1345 # 80001307 <_end+0x3f>
  and tp, tp, -64
    80000100:	fc027213          	andi	tp,tp,-64

  # get core id
  csrr a0, mhartid
    80000104:	f1402573          	csrr	a0,mhartid
  # for now, assume only 1 core
  li a1, 1
    80000108:	4585                	li	a1,1
1:bgeu a0, a1, 1b
    8000010a:	00b57063          	bgeu	a0,a1,8000010a <_start+0x10a>

  # give each core 128KB of stack + TLS
#define STKSHIFT 17
  add sp, a0, 1
    8000010e:	00150113          	addi	sp,a0,1
  sll sp, sp, STKSHIFT
    80000112:	0146                	slli	sp,sp,0x11
  add sp, sp, tp
    80000114:	9112                	add	sp,sp,tp
  sll a2, a0, STKSHIFT
    80000116:	01151613          	slli	a2,a0,0x11
  add tp, tp, a2
    8000011a:	9232                	add	tp,tp,a2

  j _init
    8000011c:	6440006f          	j	80000760 <_init>

0000000080000120 <trap_entry>:

  .align 2
trap_entry:
  addi sp, sp, -272
    80000120:	716d                	addi	sp,sp,-272

  SREG x1, 1*REGBYTES(sp)
    80000122:	e406                	sd	ra,8(sp)
  SREG x2, 2*REGBYTES(sp)
    80000124:	e80a                	sd	sp,16(sp)
  SREG x3, 3*REGBYTES(sp)
    80000126:	ec0e                	sd	gp,24(sp)
  SREG x4, 4*REGBYTES(sp)
    80000128:	f012                	sd	tp,32(sp)
  SREG x5, 5*REGBYTES(sp)
    8000012a:	f416                	sd	t0,40(sp)
  SREG x6, 6*REGBYTES(sp)
    8000012c:	f81a                	sd	t1,48(sp)
  SREG x7, 7*REGBYTES(sp)
    8000012e:	fc1e                	sd	t2,56(sp)
  SREG x8, 8*REGBYTES(sp)
    80000130:	e0a2                	sd	s0,64(sp)
  SREG x9, 9*REGBYTES(sp)
    80000132:	e4a6                	sd	s1,72(sp)
  SREG x10, 10*REGBYTES(sp)
    80000134:	e8aa                	sd	a0,80(sp)
  SREG x11, 11*REGBYTES(sp)
    80000136:	ecae                	sd	a1,88(sp)
  SREG x12, 12*REGBYTES(sp)
    80000138:	f0b2                	sd	a2,96(sp)
  SREG x13, 13*REGBYTES(sp)
    8000013a:	f4b6                	sd	a3,104(sp)
  SREG x14, 14*REGBYTES(sp)
    8000013c:	f8ba                	sd	a4,112(sp)
  SREG x15, 15*REGBYTES(sp)
    8000013e:	fcbe                	sd	a5,120(sp)
  SREG x16, 16*REGBYTES(sp)
    80000140:	e142                	sd	a6,128(sp)
  SREG x17, 17*REGBYTES(sp)
    80000142:	e546                	sd	a7,136(sp)
  SREG x18, 18*REGBYTES(sp)
    80000144:	e94a                	sd	s2,144(sp)
  SREG x19, 19*REGBYTES(sp)
    80000146:	ed4e                	sd	s3,152(sp)
  SREG x20, 20*REGBYTES(sp)
    80000148:	f152                	sd	s4,160(sp)
  SREG x21, 21*REGBYTES(sp)
    8000014a:	f556                	sd	s5,168(sp)
  SREG x22, 22*REGBYTES(sp)
    8000014c:	f95a                	sd	s6,176(sp)
  SREG x23, 23*REGBYTES(sp)
    8000014e:	fd5e                	sd	s7,184(sp)
  SREG x24, 24*REGBYTES(sp)
    80000150:	e1e2                	sd	s8,192(sp)
  SREG x25, 25*REGBYTES(sp)
    80000152:	e5e6                	sd	s9,200(sp)
  SREG x26, 26*REGBYTES(sp)
    80000154:	e9ea                	sd	s10,208(sp)
  SREG x27, 27*REGBYTES(sp)
    80000156:	edee                	sd	s11,216(sp)
  SREG x28, 28*REGBYTES(sp)
    80000158:	f1f2                	sd	t3,224(sp)
  SREG x29, 29*REGBYTES(sp)
    8000015a:	f5f6                	sd	t4,232(sp)
  SREG x30, 30*REGBYTES(sp)
    8000015c:	f9fa                	sd	t5,240(sp)
  SREG x31, 31*REGBYTES(sp)
    8000015e:	fdfe                	sd	t6,248(sp)

  csrr a0, mcause
    80000160:	34202573          	csrr	a0,mcause
  csrr a1, mepc
    80000164:	341025f3          	csrr	a1,mepc
  mv a2, sp
    80000168:	860a                	mv	a2,sp
  jal handle_trap
    8000016a:	41c000ef          	jal	80000586 <handle_trap>
  csrw mepc, a0
    8000016e:	34151073          	csrw	mepc,a0

  # Remain in M-mode after eret
  li t0, MSTATUS_MPP
    80000172:	6289                	lui	t0,0x2
    80000174:	8002829b          	addiw	t0,t0,-2048 # 1800 <_start-0x7fffe800>
  csrs mstatus, t0
    80000178:	3002a073          	csrs	mstatus,t0

  LREG x1, 1*REGBYTES(sp)
    8000017c:	60a2                	ld	ra,8(sp)
  LREG x2, 2*REGBYTES(sp)
    8000017e:	6142                	ld	sp,16(sp)
  LREG x3, 3*REGBYTES(sp)
    80000180:	61e2                	ld	gp,24(sp)
  LREG x4, 4*REGBYTES(sp)
    80000182:	7202                	ld	tp,32(sp)
  LREG x5, 5*REGBYTES(sp)
    80000184:	72a2                	ld	t0,40(sp)
  LREG x6, 6*REGBYTES(sp)
    80000186:	7342                	ld	t1,48(sp)
  LREG x7, 7*REGBYTES(sp)
    80000188:	73e2                	ld	t2,56(sp)
  LREG x8, 8*REGBYTES(sp)
    8000018a:	6406                	ld	s0,64(sp)
  LREG x9, 9*REGBYTES(sp)
    8000018c:	64a6                	ld	s1,72(sp)
  LREG x10, 10*REGBYTES(sp)
    8000018e:	6546                	ld	a0,80(sp)
  LREG x11, 11*REGBYTES(sp)
    80000190:	65e6                	ld	a1,88(sp)
  LREG x12, 12*REGBYTES(sp)
    80000192:	7606                	ld	a2,96(sp)
  LREG x13, 13*REGBYTES(sp)
    80000194:	76a6                	ld	a3,104(sp)
  LREG x14, 14*REGBYTES(sp)
    80000196:	7746                	ld	a4,112(sp)
  LREG x15, 15*REGBYTES(sp)
    80000198:	77e6                	ld	a5,120(sp)
  LREG x16, 16*REGBYTES(sp)
    8000019a:	680a                	ld	a6,128(sp)
  LREG x17, 17*REGBYTES(sp)
    8000019c:	68aa                	ld	a7,136(sp)
  LREG x18, 18*REGBYTES(sp)
    8000019e:	694a                	ld	s2,144(sp)
  LREG x19, 19*REGBYTES(sp)
    800001a0:	69ea                	ld	s3,152(sp)
  LREG x20, 20*REGBYTES(sp)
    800001a2:	7a0a                	ld	s4,160(sp)
  LREG x21, 21*REGBYTES(sp)
    800001a4:	7aaa                	ld	s5,168(sp)
  LREG x22, 22*REGBYTES(sp)
    800001a6:	7b4a                	ld	s6,176(sp)
  LREG x23, 23*REGBYTES(sp)
    800001a8:	7bea                	ld	s7,184(sp)
  LREG x24, 24*REGBYTES(sp)
    800001aa:	6c0e                	ld	s8,192(sp)
  LREG x25, 25*REGBYTES(sp)
    800001ac:	6cae                	ld	s9,200(sp)
  LREG x26, 26*REGBYTES(sp)
    800001ae:	6d4e                	ld	s10,208(sp)
  LREG x27, 27*REGBYTES(sp)
    800001b0:	6dee                	ld	s11,216(sp)
  LREG x28, 28*REGBYTES(sp)
    800001b2:	7e0e                	ld	t3,224(sp)
  LREG x29, 29*REGBYTES(sp)
    800001b4:	7eae                	ld	t4,232(sp)
  LREG x30, 30*REGBYTES(sp)
    800001b6:	7f4e                	ld	t5,240(sp)
  LREG x31, 31*REGBYTES(sp)
    800001b8:	7fee                	ld	t6,248(sp)

  addi sp, sp, 272
    800001ba:	6151                	addi	sp,sp,272
  mret
    800001bc:	30200073          	mret
	...

Disassembly of section .text:

00000000800001c2 <fir>:

.global fir

fir:

	lw   t1, 4(a0)	    # t1 = x[0+4];
    800001c2:	00452303          	lw	t1,4(a0)
	lw   t2, 4(a1)	    # t2 = c[0+4];
    800001c6:	0045a383          	lw	t2,4(a1)
	addi t3, zero, 42	
    800001ca:	02a00e13          	li	t3,42

00000000800001ce <donej>:
	

donej:
    ret                 # all done; return	
    800001ce:	8082                	ret

00000000800001d0 <putchar>:

void uartSend(char c) {
  volatile uint8_t *UART_THR = (uint8_t*)0x10000000;
  volatile uint8_t *UART_LSR = (uint8_t*)0x10000005;

	while (!(*UART_LSR & (1<<5))); // wait for THRE (trans hold reg empty)
    800001d0:	10000737          	lui	a4,0x10000
#undef putchar
int putchar(int ch)
{
  // David_Harris@hmc.edu 11/30/2024
  // Replaced syscall with uartSend
  uartSend(ch);
    800001d4:	0ff57513          	zext.b	a0,a0
	while (!(*UART_LSR & (1<<5))); // wait for THRE (trans hold reg empty)
    800001d8:	0715                	addi	a4,a4,5 # 10000005 <_start-0x6ffffffb>
    800001da:	100006b7          	lui	a3,0x10000
    800001de:	00074783          	lbu	a5,0(a4)
    800001e2:	0207f793          	andi	a5,a5,32
    800001e6:	dfe5                	beqz	a5,800001de <putchar+0xe>
	*UART_THR = c;
    800001e8:	00a68023          	sb	a0,0(a3) # 10000000 <_start-0x70000000>
    syscall(SYS_write, 1, (uintptr_t)buf, buflen);
    buflen = 0;
  } */

  return 0;
}
    800001ec:	4501                	li	a0,0
    800001ee:	8082                	ret

00000000800001f0 <vprintfmt>:
  else
    return va_arg(*ap, int);
}

static void vprintfmt(void (*putch)(int, void**), void **putdat, const char *fmt, va_list ap)
{
    800001f0:	7149                	addi	sp,sp,-368
    800001f2:	f2a2                	sd	s0,352(sp)
    800001f4:	eea6                	sd	s1,344(sp)
    800001f6:	eaca                	sd	s2,336(sp)
    800001f8:	e2d2                	sd	s4,320(sp)
    800001fa:	fe56                	sd	s5,312(sp)
    800001fc:	fa5a                	sd	s6,304(sp)
    800001fe:	f65e                	sd	s7,296(sp)
    80000200:	f686                	sd	ra,360(sp)
    80000202:	e6ce                	sd	s3,328(sp)
    80000204:	f262                	sd	s8,288(sp)
    80000206:	ee66                	sd	s9,280(sp)
    80000208:	e66e                	sd	s11,264(sp)
    8000020a:	892a                	mv	s2,a0
    8000020c:	84ae                	mv	s1,a1
    8000020e:	8432                	mv	s0,a2
    80000210:	8bb6                	mv	s7,a3
  unsigned long long num;
  int base, lflag, width, precision, altflag;
  char padc;

  while (1) {
    while ((ch = *(unsigned char *) fmt) != '%') {
    80000212:	02500a13          	li	s4,37
    width = -1;
    precision = -1;
    lflag = 0;
    altflag = 0;
  reswitch:
    switch (ch = *(unsigned char *) fmt++) {
    80000216:	05500b13          	li	s6,85
    8000021a:	90418a93          	addi	s5,gp,-1788 # 8000114c <fromhost+0x10c>
    8000021e:	a029                	j	80000228 <vprintfmt+0x38>
      if (ch == '\0')
    80000220:	cd1d                	beqz	a0,8000025e <vprintfmt+0x6e>
      putch(ch, putdat);
    80000222:	85a6                	mv	a1,s1
      fmt++;
    80000224:	0405                	addi	s0,s0,1
      putch(ch, putdat);
    80000226:	9902                	jalr	s2
    while ((ch = *(unsigned char *) fmt) != '%') {
    80000228:	00044503          	lbu	a0,0(s0)
    8000022c:	ff451ae3          	bne	a0,s4,80000220 <vprintfmt+0x30>
    switch (ch = *(unsigned char *) fmt++) {
    80000230:	00144683          	lbu	a3,1(s0)
    fmt++;
    80000234:	00140993          	addi	s3,s0,1
    precision = -1;
    80000238:	5c7d                	li	s8,-1
    fmt++;
    8000023a:	874e                	mv	a4,s3
    width = -1;
    8000023c:	8de2                	mv	s11,s8
    padc = ' ';
    8000023e:	02000c93          	li	s9,32
    lflag = 0;
    80000242:	4601                	li	a2,0
    switch (ch = *(unsigned char *) fmt++) {
    80000244:	fdd6879b          	addiw	a5,a3,-35
    80000248:	0ff7f793          	zext.b	a5,a5
    8000024c:	00170413          	addi	s0,a4,1
    80000250:	04fb6163          	bltu	s6,a5,80000292 <vprintfmt+0xa2>
    80000254:	078a                	slli	a5,a5,0x2
    80000256:	97d6                	add	a5,a5,s5
    80000258:	439c                	lw	a5,0(a5)
    8000025a:	97d6                	add	a5,a5,s5
    8000025c:	8782                	jr	a5
      putch('%', putdat);
      fmt = last_fmt;
      break;
    }
  }
}
    8000025e:	70b6                	ld	ra,360(sp)
    80000260:	7416                	ld	s0,352(sp)
    80000262:	64f6                	ld	s1,344(sp)
    80000264:	6956                	ld	s2,336(sp)
    80000266:	69b6                	ld	s3,328(sp)
    80000268:	6a16                	ld	s4,320(sp)
    8000026a:	7af2                	ld	s5,312(sp)
    8000026c:	7b52                	ld	s6,304(sp)
    8000026e:	7bb2                	ld	s7,296(sp)
    80000270:	7c12                	ld	s8,288(sp)
    80000272:	6cf2                	ld	s9,280(sp)
    80000274:	6db2                	ld	s11,264(sp)
    80000276:	6175                	addi	sp,sp,368
    80000278:	8082                	ret
      padc = '0';
    8000027a:	8cb6                	mv	s9,a3
      goto reswitch;
    8000027c:	00174683          	lbu	a3,1(a4)
    switch (ch = *(unsigned char *) fmt++) {
    80000280:	8722                	mv	a4,s0
    80000282:	00170413          	addi	s0,a4,1
    80000286:	fdd6879b          	addiw	a5,a3,-35
    8000028a:	0ff7f793          	zext.b	a5,a5
    8000028e:	fcfb73e3          	bgeu	s6,a5,80000254 <vprintfmt+0x64>
      putch('%', putdat);
    80000292:	85a6                	mv	a1,s1
    80000294:	02500513          	li	a0,37
    80000298:	9902                	jalr	s2
      fmt = last_fmt;
    8000029a:	844e                	mv	s0,s3
      break;
    8000029c:	b771                	j	80000228 <vprintfmt+0x38>
        precision = precision * 10 + ch - '0';
    8000029e:	fd068c1b          	addiw	s8,a3,-48
        ch = *fmt;
    800002a2:	00174683          	lbu	a3,1(a4)
        if (ch < '0' || ch > '9')
    800002a6:	4825                	li	a6,9
    switch (ch = *(unsigned char *) fmt++) {
    800002a8:	8722                	mv	a4,s0
        if (ch < '0' || ch > '9')
    800002aa:	fd06879b          	addiw	a5,a3,-48
        ch = *fmt;
    800002ae:	0006859b          	sext.w	a1,a3
        if (ch < '0' || ch > '9')
    800002b2:	02f86463          	bltu	a6,a5,800002da <vprintfmt+0xea>
        precision = precision * 10 + ch - '0';
    800002b6:	002c179b          	slliw	a5,s8,0x2
        ch = *fmt;
    800002ba:	00174683          	lbu	a3,1(a4)
        precision = precision * 10 + ch - '0';
    800002be:	018787bb          	addw	a5,a5,s8
    800002c2:	0017979b          	slliw	a5,a5,0x1
    800002c6:	9fad                	addw	a5,a5,a1
        if (ch < '0' || ch > '9')
    800002c8:	fd06851b          	addiw	a0,a3,-48
      for (precision = 0; ; ++fmt) {
    800002cc:	0705                	addi	a4,a4,1
        precision = precision * 10 + ch - '0';
    800002ce:	fd078c1b          	addiw	s8,a5,-48
        ch = *fmt;
    800002d2:	0006859b          	sext.w	a1,a3
        if (ch < '0' || ch > '9')
    800002d6:	fea870e3          	bgeu	a6,a0,800002b6 <vprintfmt+0xc6>
      if (width < 0)
    800002da:	f60dd5e3          	bgez	s11,80000244 <vprintfmt+0x54>
        width = precision, precision = -1;
    800002de:	8de2                	mv	s11,s8
    800002e0:	5c7d                	li	s8,-1
    800002e2:	b78d                	j	80000244 <vprintfmt+0x54>
        ch = *fmt;
    800002e4:	00174683          	lbu	a3,1(a4)
    switch (ch = *(unsigned char *) fmt++) {
    800002e8:	8722                	mv	a4,s0
      goto reswitch;
    800002ea:	bfa9                	j	80000244 <vprintfmt+0x54>
      putch(ch, putdat);
    800002ec:	85a6                	mv	a1,s1
    800002ee:	02500513          	li	a0,37
    800002f2:	9902                	jalr	s2
      break;
    800002f4:	bf15                	j	80000228 <vprintfmt+0x38>
        ch = *fmt;
    800002f6:	00174683          	lbu	a3,1(a4)
      precision = va_arg(ap, int);
    800002fa:	000bac03          	lw	s8,0(s7)
    switch (ch = *(unsigned char *) fmt++) {
    800002fe:	8722                	mv	a4,s0
      precision = va_arg(ap, int);
    80000300:	0ba1                	addi	s7,s7,8
      goto process_precision;
    80000302:	bfe1                	j	800002da <vprintfmt+0xea>
      putch('0', putdat);
    80000304:	85a6                	mv	a1,s1
    80000306:	03000513          	li	a0,48
    8000030a:	ea6a                	sd	s10,272(sp)
    8000030c:	9902                	jalr	s2
      putch('x', putdat);
    8000030e:	85a6                	mv	a1,s1
    80000310:	07800513          	li	a0,120
    80000314:	9902                	jalr	s2
  else if (lflag)
    80000316:	008b8713          	addi	a4,s7,8
      putch('x', putdat);
    8000031a:	46c1                	li	a3,16
    return va_arg(*ap, unsigned long);
    8000031c:	000bb783          	ld	a5,0(s7)
    80000320:	8bba                	mv	s7,a4
    digs[pos++] = num % base;
    80000322:	02d7f5b3          	remu	a1,a5,a3
      printnum(putch, putdat, num, base, width, padc);
    80000326:	000c899b          	sext.w	s3,s9
    digs[pos++] = num % base;
    8000032a:	0050                	addi	a2,sp,4
    8000032c:	4705                	li	a4,1
    8000032e:	c02e                	sw	a1,0(sp)
    if (num < base)
    80000330:	16d7e763          	bltu	a5,a3,8000049e <vprintfmt+0x2ae>
    num /= base;
    80000334:	02d7d7b3          	divu	a5,a5,a3
    digs[pos++] = num % base;
    80000338:	8c3a                	mv	s8,a4
    if (num < base)
    8000033a:	0611                	addi	a2,a2,4
    digs[pos++] = num % base;
    8000033c:	2705                	addiw	a4,a4,1
    8000033e:	02d7f5b3          	remu	a1,a5,a3
    80000342:	feb62e23          	sw	a1,-4(a2)
    if (num < base)
    80000346:	fed7f7e3          	bgeu	a5,a3,80000334 <vprintfmt+0x144>
  while (width-- > pos)
    8000034a:	fffd8c9b          	addiw	s9,s11,-1
    8000034e:	fff70d1b          	addiw	s10,a4,-1
    80000352:	01b75863          	bge	a4,s11,80000362 <vprintfmt+0x172>
    putch(padc, putdat);
    80000356:	85a6                	mv	a1,s1
    80000358:	854e                	mv	a0,s3
  while (width-- > pos)
    8000035a:	3cfd                	addiw	s9,s9,-1
    putch(padc, putdat);
    8000035c:	9902                	jalr	s2
  while (width-- > pos)
    8000035e:	ffac9ce3          	bne	s9,s10,80000356 <vprintfmt+0x166>
  while (pos-- > 0)
    80000362:	0c0a                	slli	s8,s8,0x2
    80000364:	018109b3          	add	s3,sp,s8
    80000368:	ffc10c93          	addi	s9,sp,-4
    putch(digs[pos] + (digs[pos] >= 10 ? 'a' - 10 : '0'), putdat);
    8000036c:	4c25                	li	s8,9
    8000036e:	0009a783          	lw	a5,0(s3)
    80000372:	03000513          	li	a0,48
    80000376:	00fc7463          	bgeu	s8,a5,8000037e <vprintfmt+0x18e>
    8000037a:	05700513          	li	a0,87
    8000037e:	9d3d                	addw	a0,a0,a5
    80000380:	85a6                	mv	a1,s1
  while (pos-- > 0)
    80000382:	19f1                	addi	s3,s3,-4
    putch(digs[pos] + (digs[pos] >= 10 ? 'a' - 10 : '0'), putdat);
    80000384:	9902                	jalr	s2
  while (pos-- > 0)
    80000386:	ff3c94e3          	bne	s9,s3,8000036e <vprintfmt+0x17e>
      if ((p = va_arg(ap, char *)) == NULL)
    8000038a:	6d52                	ld	s10,272(sp)
    8000038c:	bd71                	j	80000228 <vprintfmt+0x38>
    8000038e:	ea6a                	sd	s10,272(sp)
  if (lflag >= 2)
    80000390:	4785                	li	a5,1
      precision = va_arg(ap, int);
    80000392:	008b8c13          	addi	s8,s7,8
  if (lflag >= 2)
    80000396:	00c7c463          	blt	a5,a2,8000039e <vprintfmt+0x1ae>
  else if (lflag)
    8000039a:	10060463          	beqz	a2,800004a2 <vprintfmt+0x2b2>
    return va_arg(*ap, long);
    8000039e:	000bb983          	ld	s3,0(s7)
      if ((long long) num < 0) {
    800003a2:	1009c963          	bltz	s3,800004b4 <vprintfmt+0x2c4>
      num = getint(&ap, lflag);
    800003a6:	87ce                	mv	a5,s3
    800003a8:	8be2                	mv	s7,s8
    800003aa:	46a9                	li	a3,10
    800003ac:	bf9d                	j	80000322 <vprintfmt+0x132>
        ch = *fmt;
    800003ae:	00174683          	lbu	a3,1(a4)
      lflag++;
    800003b2:	2605                	addiw	a2,a2,1
    switch (ch = *(unsigned char *) fmt++) {
    800003b4:	8722                	mv	a4,s0
      goto reswitch;
    800003b6:	b579                	j	80000244 <vprintfmt+0x54>
    800003b8:	ea6a                	sd	s10,272(sp)
    switch (ch = *(unsigned char *) fmt++) {
    800003ba:	46c1                	li	a3,16
  if (lflag >= 2)
    800003bc:	4785                	li	a5,1
      precision = va_arg(ap, int);
    800003be:	008b8713          	addi	a4,s7,8
  if (lflag >= 2)
    800003c2:	f4c7cde3          	blt	a5,a2,8000031c <vprintfmt+0x12c>
  else if (lflag)
    800003c6:	fa39                	bnez	a2,8000031c <vprintfmt+0x12c>
    return va_arg(*ap, unsigned int);
    800003c8:	000be783          	lwu	a5,0(s7)
    800003cc:	8bba                	mv	s7,a4
    800003ce:	bf91                	j	80000322 <vprintfmt+0x132>
    800003d0:	ea6a                	sd	s10,272(sp)
      if ((p = va_arg(ap, char *)) == NULL)
    800003d2:	000bbd03          	ld	s10,0(s7)
    800003d6:	040d0463          	beqz	s10,8000041e <vprintfmt+0x22e>
      if (width > 0 && padc != '-')
    800003da:	09b05d63          	blez	s11,80000474 <vprintfmt+0x284>
    800003de:	02d00793          	li	a5,45
    800003e2:	06fc9063          	bne	s9,a5,80000442 <vprintfmt+0x252>
      for (; (ch = *p) != '\0' && (precision < 0 || --precision >= 0); width--) {
    800003e6:	000d4503          	lbu	a0,0(s10)
    800003ea:	c105                	beqz	a0,8000040a <vprintfmt+0x21a>
    800003ec:	59fd                	li	s3,-1
    800003ee:	000c4563          	bltz	s8,800003f8 <vprintfmt+0x208>
    800003f2:	3c7d                	addiw	s8,s8,-1
    800003f4:	013c0963          	beq	s8,s3,80000406 <vprintfmt+0x216>
        putch(ch, putdat);
    800003f8:	85a6                	mv	a1,s1
    800003fa:	9902                	jalr	s2
      for (; (ch = *p) != '\0' && (precision < 0 || --precision >= 0); width--) {
    800003fc:	001d4503          	lbu	a0,1(s10)
        p++;
    80000400:	0d05                	addi	s10,s10,1
      for (; (ch = *p) != '\0' && (precision < 0 || --precision >= 0); width--) {
    80000402:	3dfd                	addiw	s11,s11,-1
    80000404:	f56d                	bnez	a0,800003ee <vprintfmt+0x1fe>
      for (; width > 0; width--)
    80000406:	01b05963          	blez	s11,80000418 <vprintfmt+0x228>
        putch(' ', putdat);
    8000040a:	85a6                	mv	a1,s1
    8000040c:	02000513          	li	a0,32
      for (; width > 0; width--)
    80000410:	3dfd                	addiw	s11,s11,-1
        putch(' ', putdat);
    80000412:	9902                	jalr	s2
      for (; width > 0; width--)
    80000414:	fe0d9be3          	bnez	s11,8000040a <vprintfmt+0x21a>
      if ((p = va_arg(ap, char *)) == NULL)
    80000418:	6d52                	ld	s10,272(sp)
    8000041a:	0ba1                	addi	s7,s7,8
    8000041c:	b531                	j	80000228 <vprintfmt+0x38>
        p = "(null)";
    8000041e:	00001d17          	auipc	s10,0x1
    80000422:	c4ad0d13          	addi	s10,s10,-950 # 80001068 <fromhost+0x28>
      for (; (ch = *p) != '\0' && (precision < 0 || --precision >= 0); width--) {
    80000426:	02800513          	li	a0,40
      if (width > 0 && padc != '-')
    8000042a:	fdb051e3          	blez	s11,800003ec <vprintfmt+0x1fc>
    8000042e:	02d00793          	li	a5,45
        p = "(null)";
    80000432:	00001d17          	auipc	s10,0x1
    80000436:	c36d0d13          	addi	s10,s10,-970 # 80001068 <fromhost+0x28>
      for (; (ch = *p) != '\0' && (precision < 0 || --precision >= 0); width--) {
    8000043a:	02800513          	li	a0,40
      if (width > 0 && padc != '-')
    8000043e:	fafc87e3          	beq	s9,a5,800003ec <vprintfmt+0x1fc>
  return p - s;
}

size_t strnlen(const char *s, size_t n)
{
  const char *p = s;
    80000442:	87ea                	mv	a5,s10
  while (n-- && *p)
    80000444:	018d06b3          	add	a3,s10,s8
    80000448:	000c1663          	bnez	s8,80000454 <vprintfmt+0x264>
    8000044c:	a829                	j	80000466 <vprintfmt+0x276>
    p++;
    8000044e:	0785                	addi	a5,a5,1
  while (n-- && *p)
    80000450:	00d78563          	beq	a5,a3,8000045a <vprintfmt+0x26a>
    80000454:	0007c703          	lbu	a4,0(a5)
    80000458:	fb7d                	bnez	a4,8000044e <vprintfmt+0x25e>
  return p - s;
    8000045a:	41a787b3          	sub	a5,a5,s10
        for (width -= strnlen(p, precision); width > 0; width--)
    8000045e:	40fd8dbb          	subw	s11,s11,a5
    80000462:	01b05963          	blez	s11,80000474 <vprintfmt+0x284>
          putch(padc, putdat);
    80000466:	2c81                	sext.w	s9,s9
    80000468:	85a6                	mv	a1,s1
    8000046a:	8566                	mv	a0,s9
        for (width -= strnlen(p, precision); width > 0; width--)
    8000046c:	3dfd                	addiw	s11,s11,-1
          putch(padc, putdat);
    8000046e:	9902                	jalr	s2
        for (width -= strnlen(p, precision); width > 0; width--)
    80000470:	fe0d9ce3          	bnez	s11,80000468 <vprintfmt+0x278>
      for (; (ch = *p) != '\0' && (precision < 0 || --precision >= 0); width--) {
    80000474:	000d4503          	lbu	a0,0(s10)
    80000478:	d145                	beqz	a0,80000418 <vprintfmt+0x228>
    8000047a:	59fd                	li	s3,-1
    8000047c:	bf8d                	j	800003ee <vprintfmt+0x1fe>
      if (width < 0)
    8000047e:	87ee                	mv	a5,s11
    80000480:	000dd363          	bgez	s11,80000486 <vprintfmt+0x296>
    80000484:	4781                	li	a5,0
        ch = *fmt;
    80000486:	00174683          	lbu	a3,1(a4)
      if (width < 0)
    8000048a:	00078d9b          	sext.w	s11,a5
    switch (ch = *(unsigned char *) fmt++) {
    8000048e:	8722                	mv	a4,s0
      goto reswitch;
    80000490:	bb55                	j	80000244 <vprintfmt+0x54>
      putch(va_arg(ap, int), putdat);
    80000492:	000ba503          	lw	a0,0(s7)
    80000496:	85a6                	mv	a1,s1
    80000498:	0ba1                	addi	s7,s7,8
    8000049a:	9902                	jalr	s2
      break;
    8000049c:	b371                	j	80000228 <vprintfmt+0x38>
    if (num < base)
    8000049e:	4c01                	li	s8,0
    800004a0:	b56d                	j	8000034a <vprintfmt+0x15a>
    return va_arg(*ap, int);
    800004a2:	000ba983          	lw	s3,0(s7)
    800004a6:	bdf5                	j	800003a2 <vprintfmt+0x1b2>
    800004a8:	ea6a                	sd	s10,272(sp)
    switch (ch = *(unsigned char *) fmt++) {
    800004aa:	46a9                	li	a3,10
    800004ac:	bf01                	j	800003bc <vprintfmt+0x1cc>
    800004ae:	ea6a                	sd	s10,272(sp)
    800004b0:	46a1                	li	a3,8
    800004b2:	b729                	j	800003bc <vprintfmt+0x1cc>
        putch('-', putdat);
    800004b4:	85a6                	mv	a1,s1
    800004b6:	02d00513          	li	a0,45
    800004ba:	9902                	jalr	s2
        num = -(long long) num;
    800004bc:	413007b3          	neg	a5,s3
    800004c0:	8be2                	mv	s7,s8
    800004c2:	46a9                	li	a3,10
    800004c4:	bdb9                	j	80000322 <vprintfmt+0x132>

00000000800004c6 <sprintf_putch.0>:
    **pstr = ch;
    800004c6:	619c                	ld	a5,0(a1)
    800004c8:	00a78023          	sb	a0,0(a5)
    (*pstr)++;
    800004cc:	619c                	ld	a5,0(a1)
    800004ce:	0785                	addi	a5,a5,1
    800004d0:	e19c                	sd	a5,0(a1)
  }
    800004d2:	8082                	ret

00000000800004d4 <uartInit>:
	*UART_LCR = 0b0000011; // 8-bit characters, 1 stop bit, no parity
    800004d4:	100007b7          	lui	a5,0x10000
    800004d8:	470d                	li	a4,3
    800004da:	00e781a3          	sb	a4,3(a5) # 10000003 <_start-0x6ffffffd>
}
    800004de:	8082                	ret

00000000800004e0 <uartSend>:
	while (!(*UART_LSR & (1<<5))); // wait for THRE (trans hold reg empty)
    800004e0:	10000737          	lui	a4,0x10000
    800004e4:	0715                	addi	a4,a4,5 # 10000005 <_start-0x6ffffffb>
    800004e6:	100006b7          	lui	a3,0x10000
    800004ea:	00074783          	lbu	a5,0(a4)
    800004ee:	0207f793          	andi	a5,a5,32
    800004f2:	dfe5                	beqz	a5,800004ea <uartSend+0xa>
	*UART_THR = c;
    800004f4:	00a68023          	sb	a0,0(a3) # 10000000 <_start-0x70000000>
}
    800004f8:	8082                	ret

00000000800004fa <uartReceive>:
	while (!(*UART_LSR & (1<<0))); // wait for DR (Data Ready)
    800004fa:	10000737          	lui	a4,0x10000
    800004fe:	0715                	addi	a4,a4,5 # 10000005 <_start-0x6ffffffb>
    80000500:	100006b7          	lui	a3,0x10000
    80000504:	00074783          	lbu	a5,0(a4)
    80000508:	8b85                	andi	a5,a5,1
    8000050a:	dfed                	beqz	a5,80000504 <uartReceive+0xa>
	return *UART_RBR;
    8000050c:	0006c503          	lbu	a0,0(a3) # 10000000 <_start-0x70000000>
}
    80000510:	8082                	ret

0000000080000512 <uartPutStr>:
    while (*str) {
    80000512:	00054683          	lbu	a3,0(a0)
    80000516:	c28d                	beqz	a3,80000538 <uartPutStr+0x26>
	while (!(*UART_LSR & (1<<5))); // wait for THRE (trans hold reg empty)
    80000518:	10000737          	lui	a4,0x10000
    8000051c:	0715                	addi	a4,a4,5 # 10000005 <_start-0x6ffffffb>
    8000051e:	10000637          	lui	a2,0x10000
        uartSend(*str++);
    80000522:	0505                	addi	a0,a0,1
	while (!(*UART_LSR & (1<<5))); // wait for THRE (trans hold reg empty)
    80000524:	00074783          	lbu	a5,0(a4)
    80000528:	0207f793          	andi	a5,a5,32
    8000052c:	dfe5                	beqz	a5,80000524 <uartPutStr+0x12>
	*UART_THR = c;
    8000052e:	00d60023          	sb	a3,0(a2) # 10000000 <_start-0x70000000>
    while (*str) {
    80000532:	00054683          	lbu	a3,0(a0)
    80000536:	f6f5                	bnez	a3,80000522 <uartPutStr+0x10>
}
    80000538:	8082                	ret

000000008000053a <setStats>:
  READ_CTR(mcycle);
    8000053a:	b0002773          	csrr	a4,mcycle
    8000053e:	a6018793          	addi	a5,gp,-1440 # 800012a8 <counters>
    80000542:	c511                	beqz	a0,8000054e <setStats+0x14>
    80000544:	e398                	sd	a4,0(a5)
  READ_CTR(minstret);
    80000546:	b0202773          	csrr	a4,minstret
    8000054a:	e798                	sd	a4,8(a5)
}
    8000054c:	8082                	ret
  READ_CTR(mcycle);
    8000054e:	6394                	ld	a3,0(a5)
    80000550:	00001617          	auipc	a2,0x1
    80000554:	b2860613          	addi	a2,a2,-1240 # 80001078 <fromhost+0x38>
    80000558:	eb90                	sd	a2,16(a5)
    8000055a:	8f15                	sub	a4,a4,a3
    8000055c:	e398                	sd	a4,0(a5)
  READ_CTR(minstret);
    8000055e:	b0202773          	csrr	a4,minstret
    80000562:	6794                	ld	a3,8(a5)
    80000564:	00001617          	auipc	a2,0x1
    80000568:	b1c60613          	addi	a2,a2,-1252 # 80001080 <fromhost+0x40>
    8000056c:	ef90                	sd	a2,24(a5)
    8000056e:	8f15                	sub	a4,a4,a3
    80000570:	e798                	sd	a4,8(a5)
}
    80000572:	8082                	ret

0000000080000574 <tohost_exit>:
  tohost = (code << 1) | 1;
    80000574:	00151793          	slli	a5,a0,0x1
    80000578:	0017e793          	ori	a5,a5,1
    8000057c:	00001717          	auipc	a4,0x1
    80000580:	a8f73223          	sd	a5,-1404(a4) # 80001000 <tohost>
  while (1);
    80000584:	a001                	j	80000584 <tohost_exit+0x10>

0000000080000586 <handle_trap>:
  tohost = (code << 1) | 1;
    80000586:	6785                	lui	a5,0x1
    80000588:	a7378793          	addi	a5,a5,-1421 # a73 <_start-0x7ffff58d>
    8000058c:	00001717          	auipc	a4,0x1
    80000590:	a6f73a23          	sd	a5,-1420(a4) # 80001000 <tohost>
  while (1);
    80000594:	a001                	j	80000594 <handle_trap+0xe>

0000000080000596 <exit>:
{
    80000596:	1141                	addi	sp,sp,-16
    80000598:	e406                	sd	ra,8(sp)
  tohost_exit(code);
    8000059a:	fdbff0ef          	jal	80000574 <tohost_exit>

000000008000059e <abort>:
  tohost = (code << 1) | 1;
    8000059e:	10d00793          	li	a5,269
    800005a2:	00001717          	auipc	a4,0x1
    800005a6:	a4f73f23          	sd	a5,-1442(a4) # 80001000 <tohost>
  while (1);
    800005aa:	a001                	j	800005aa <abort+0xc>

00000000800005ac <printstr>:
    while (*str) {
    800005ac:	00054683          	lbu	a3,0(a0)
    800005b0:	c28d                	beqz	a3,800005d2 <printstr+0x26>
	while (!(*UART_LSR & (1<<5))); // wait for THRE (trans hold reg empty)
    800005b2:	10000737          	lui	a4,0x10000
    800005b6:	0715                	addi	a4,a4,5 # 10000005 <_start-0x6ffffffb>
    800005b8:	10000637          	lui	a2,0x10000
        uartSend(*str++);
    800005bc:	0505                	addi	a0,a0,1
	while (!(*UART_LSR & (1<<5))); // wait for THRE (trans hold reg empty)
    800005be:	00074783          	lbu	a5,0(a4)
    800005c2:	0207f793          	andi	a5,a5,32
    800005c6:	dfe5                	beqz	a5,800005be <printstr+0x12>
	*UART_THR = c;
    800005c8:	00d60023          	sb	a3,0(a2) # 10000000 <_start-0x70000000>
    while (*str) {
    800005cc:	00054683          	lbu	a3,0(a0)
    800005d0:	f6f5                	bnez	a3,800005bc <printstr+0x10>
}
    800005d2:	8082                	ret

00000000800005d4 <puts>:
    while (*str) {
    800005d4:	00054683          	lbu	a3,0(a0)
    800005d8:	c28d                	beqz	a3,800005fa <puts+0x26>
	while (!(*UART_LSR & (1<<5))); // wait for THRE (trans hold reg empty)
    800005da:	10000737          	lui	a4,0x10000
    800005de:	0715                	addi	a4,a4,5 # 10000005 <_start-0x6ffffffb>
    800005e0:	10000637          	lui	a2,0x10000
        uartSend(*str++);
    800005e4:	0505                	addi	a0,a0,1
	while (!(*UART_LSR & (1<<5))); // wait for THRE (trans hold reg empty)
    800005e6:	00074783          	lbu	a5,0(a4)
    800005ea:	0207f793          	andi	a5,a5,32
    800005ee:	dfe5                	beqz	a5,800005e6 <puts+0x12>
	*UART_THR = c;
    800005f0:	00d60023          	sb	a3,0(a2) # 10000000 <_start-0x70000000>
    while (*str) {
    800005f4:	00054683          	lbu	a3,0(a0)
    800005f8:	f6f5                	bnez	a3,800005e4 <puts+0x10>
}
    800005fa:	4501                	li	a0,0
    800005fc:	8082                	ret

00000000800005fe <thread_entry>:
  while (cid != 0);
    800005fe:	e111                	bnez	a0,80000602 <thread_entry+0x4>
}
    80000600:	8082                	ret
  while (cid != 0);
    80000602:	a001                	j	80000602 <thread_entry+0x4>

0000000080000604 <printhex>:
{
    80000604:	1101                	addi	sp,sp,-32
    80000606:	0030                	addi	a2,sp,8
    80000608:	01710793          	addi	a5,sp,23
    str[15-i] = (x & 0xF) + ((x & 0xF) < 10 ? '0' : 'a'-10);
    8000060c:	4825                	li	a6,9
    8000060e:	a011                	j	80000612 <printhex+0xe>
  for (i = 0; i < 16; i++)
    80000610:	87ba                	mv	a5,a4
    str[15-i] = (x & 0xF) + ((x & 0xF) < 10 ? '0' : 'a'-10);
    80000612:	00f57693          	andi	a3,a0,15
    80000616:	8736                	mv	a4,a3
    80000618:	05700593          	li	a1,87
    8000061c:	00d86463          	bltu	a6,a3,80000624 <printhex+0x20>
    80000620:	03000593          	li	a1,48
    80000624:	9f2d                	addw	a4,a4,a1
    80000626:	00e78023          	sb	a4,0(a5)
    x >>= 4;
    8000062a:	8111                	srli	a0,a0,0x4
  for (i = 0; i < 16; i++)
    8000062c:	fff78713          	addi	a4,a5,-1
    80000630:	fef610e3          	bne	a2,a5,80000610 <printhex+0xc>
    while (*str) {
    80000634:	00814583          	lbu	a1,8(sp)
  str[16] = 0;
    80000638:	00010c23          	sb	zero,24(sp)
    while (*str) {
    8000063c:	c195                	beqz	a1,80000660 <printhex+0x5c>
	while (!(*UART_LSR & (1<<5))); // wait for THRE (trans hold reg empty)
    8000063e:	10000737          	lui	a4,0x10000
    while (*str) {
    80000642:	86b2                	mv	a3,a2
	while (!(*UART_LSR & (1<<5))); // wait for THRE (trans hold reg empty)
    80000644:	0715                	addi	a4,a4,5 # 10000005 <_start-0x6ffffffb>
    80000646:	10000637          	lui	a2,0x10000
        uartSend(*str++);
    8000064a:	0685                	addi	a3,a3,1
	while (!(*UART_LSR & (1<<5))); // wait for THRE (trans hold reg empty)
    8000064c:	00074783          	lbu	a5,0(a4)
    80000650:	0207f793          	andi	a5,a5,32
    80000654:	dfe5                	beqz	a5,8000064c <printhex+0x48>
	*UART_THR = c;
    80000656:	00b60023          	sb	a1,0(a2) # 10000000 <_start-0x70000000>
    while (*str) {
    8000065a:	0006c583          	lbu	a1,0(a3)
    8000065e:	f5f5                	bnez	a1,8000064a <printhex+0x46>
}
    80000660:	6105                	addi	sp,sp,32
    80000662:	8082                	ret

0000000080000664 <printf>:
{
    80000664:	711d                	addi	sp,sp,-96
  va_start(ap, fmt);
    80000666:	02810313          	addi	t1,sp,40
{
    8000066a:	f42e                	sd	a1,40(sp)
    8000066c:	f832                	sd	a2,48(sp)
    8000066e:	fc36                	sd	a3,56(sp)
  vprintfmt((void*)putchar, 0, fmt, ap);
    80000670:	862a                	mv	a2,a0
    80000672:	869a                	mv	a3,t1
    80000674:	00000517          	auipc	a0,0x0
    80000678:	b5c50513          	addi	a0,a0,-1188 # 800001d0 <putchar>
    8000067c:	4581                	li	a1,0
{
    8000067e:	ec06                	sd	ra,24(sp)
    80000680:	e0ba                	sd	a4,64(sp)
    80000682:	e4be                	sd	a5,72(sp)
    80000684:	e8c2                	sd	a6,80(sp)
    80000686:	ecc6                	sd	a7,88(sp)
  va_start(ap, fmt);
    80000688:	e41a                	sd	t1,8(sp)
  vprintfmt((void*)putchar, 0, fmt, ap);
    8000068a:	b67ff0ef          	jal	800001f0 <vprintfmt>
}
    8000068e:	60e2                	ld	ra,24(sp)
    80000690:	4501                	li	a0,0
    80000692:	6125                	addi	sp,sp,96
    80000694:	8082                	ret

0000000080000696 <sprintf>:
{
    80000696:	711d                	addi	sp,sp,-96
  va_start(ap, fmt);
    80000698:	03010313          	addi	t1,sp,48
{
    8000069c:	f022                	sd	s0,32(sp)
    8000069e:	e42a                	sd	a0,8(sp)
    800006a0:	f832                	sd	a2,48(sp)
    800006a2:	fc36                	sd	a3,56(sp)
  char* str0 = str;
    800006a4:	842a                	mv	s0,a0
  vprintfmt(sprintf_putch, (void**)&str, fmt, ap);
    800006a6:	862e                	mv	a2,a1
    800006a8:	00000517          	auipc	a0,0x0
    800006ac:	e1e50513          	addi	a0,a0,-482 # 800004c6 <sprintf_putch.0>
    800006b0:	002c                	addi	a1,sp,8
    800006b2:	869a                	mv	a3,t1
{
    800006b4:	f406                	sd	ra,40(sp)
    800006b6:	e4be                	sd	a5,72(sp)
    800006b8:	e0ba                	sd	a4,64(sp)
    800006ba:	e8c2                	sd	a6,80(sp)
    800006bc:	ecc6                	sd	a7,88(sp)
  va_start(ap, fmt);
    800006be:	ec1a                	sd	t1,24(sp)
  vprintfmt(sprintf_putch, (void**)&str, fmt, ap);
    800006c0:	b31ff0ef          	jal	800001f0 <vprintfmt>
  *str = 0;
    800006c4:	67a2                	ld	a5,8(sp)
    800006c6:	00078023          	sb	zero,0(a5)
  return str - str0;
    800006ca:	6522                	ld	a0,8(sp)
}
    800006cc:	70a2                	ld	ra,40(sp)
    800006ce:	9d01                	subw	a0,a0,s0
    800006d0:	7402                	ld	s0,32(sp)
    800006d2:	6125                	addi	sp,sp,96
    800006d4:	8082                	ret

00000000800006d6 <memcpy>:
  if ((((uintptr_t)dest | (uintptr_t)src | len) & (sizeof(uintptr_t)-1)) == 0) {
    800006d6:	00c5e7b3          	or	a5,a1,a2
    800006da:	8fc9                	or	a5,a5,a0
    800006dc:	8b9d                	andi	a5,a5,7
    while (d < (char*)(dest + len))
    800006de:	00c506b3          	add	a3,a0,a2
  if ((((uintptr_t)dest | (uintptr_t)src | len) & (sizeof(uintptr_t)-1)) == 0) {
    800006e2:	cf91                	beqz	a5,800006fe <memcpy+0x28>
    while (d < (char*)(dest + len))
    800006e4:	962e                	add	a2,a2,a1
    char *d = dest;
    800006e6:	87aa                	mv	a5,a0
    while (d < (char*)(dest + len))
    800006e8:	02d57663          	bgeu	a0,a3,80000714 <memcpy+0x3e>
      *d++ = *s++;
    800006ec:	0005c703          	lbu	a4,0(a1)
    800006f0:	0585                	addi	a1,a1,1
    800006f2:	0785                	addi	a5,a5,1
    800006f4:	fee78fa3          	sb	a4,-1(a5)
    while (d < (char*)(dest + len))
    800006f8:	feb61ae3          	bne	a2,a1,800006ec <memcpy+0x16>
}
    800006fc:	8082                	ret
    while (d < (uintptr_t*)(dest + len))
    800006fe:	fed57fe3          	bgeu	a0,a3,800006fc <memcpy+0x26>
    uintptr_t *d = dest;
    80000702:	87aa                	mv	a5,a0
      *d++ = *s++;
    80000704:	6198                	ld	a4,0(a1)
    80000706:	07a1                	addi	a5,a5,8
    80000708:	05a1                	addi	a1,a1,8
    8000070a:	fee7bc23          	sd	a4,-8(a5)
    while (d < (uintptr_t*)(dest + len))
    8000070e:	fed7ebe3          	bltu	a5,a3,80000704 <memcpy+0x2e>
    80000712:	8082                	ret
    80000714:	8082                	ret

0000000080000716 <memset>:
  if ((((uintptr_t)dest | len) & (sizeof(uintptr_t)-1)) == 0) {
    80000716:	00c567b3          	or	a5,a0,a2
    8000071a:	8b9d                	andi	a5,a5,7
    while (d < (char*)(dest + len))
    8000071c:	962a                	add	a2,a2,a0
  if ((((uintptr_t)dest | len) & (sizeof(uintptr_t)-1)) == 0) {
    8000071e:	cf81                	beqz	a5,80000736 <memset+0x20>
      *d++ = byte;
    80000720:	0ff5f713          	zext.b	a4,a1
    char *d = dest;
    80000724:	87aa                	mv	a5,a0
    while (d < (char*)(dest + len))
    80000726:	02c57c63          	bgeu	a0,a2,8000075e <memset+0x48>
      *d++ = byte;
    8000072a:	0785                	addi	a5,a5,1
    8000072c:	fee78fa3          	sb	a4,-1(a5)
    while (d < (char*)(dest + len))
    80000730:	fef61de3          	bne	a2,a5,8000072a <memset+0x14>
}
    80000734:	8082                	ret
    word |= word << 16 << 16;
    80000736:	010107b7          	lui	a5,0x1010
    8000073a:	10178793          	addi	a5,a5,257 # 1010101 <_start-0x7efefeff>
    8000073e:	02079693          	slli	a3,a5,0x20
    uintptr_t word = byte & 0xFF;
    80000742:	0ff5f713          	zext.b	a4,a1
    80000746:	97b6                	add	a5,a5,a3
    80000748:	02f70733          	mul	a4,a4,a5
    while (d < (uintptr_t*)(dest + len))
    8000074c:	fec574e3          	bgeu	a0,a2,80000734 <memset+0x1e>
    uintptr_t *d = dest;
    80000750:	87aa                	mv	a5,a0
      *d++ = word;
    80000752:	07a1                	addi	a5,a5,8
    80000754:	fee7bc23          	sd	a4,-8(a5)
    while (d < (uintptr_t*)(dest + len))
    80000758:	fec7ede3          	bltu	a5,a2,80000752 <memset+0x3c>
    8000075c:	8082                	ret
    8000075e:	8082                	ret

0000000080000760 <_init>:
{
    80000760:	7171                	addi	sp,sp,-176
  size_t tdata_size = &_tdata_end - &_tdata_begin;
    80000762:	a8018793          	addi	a5,gp,-1408 # 800012c8 <_end>
{
    80000766:	e54e                	sd	s3,136(sp)
  size_t tdata_size = &_tdata_end - &_tdata_begin;
    80000768:	a8018993          	addi	s3,gp,-1408 # 800012c8 <_end>
{
    8000076c:	e152                	sd	s4,128(sp)
  size_t tdata_size = &_tdata_end - &_tdata_begin;
    8000076e:	40f98a33          	sub	s4,s3,a5
{
    80000772:	ed26                	sd	s1,152(sp)
    80000774:	e94a                	sd	s2,144(sp)
    80000776:	84aa                	mv	s1,a0
    80000778:	892e                	mv	s2,a1
  memcpy(thread_pointer, &_tdata_begin, tdata_size);
    8000077a:	8512                	mv	a0,tp
    8000077c:	85be                	mv	a1,a5
    8000077e:	8652                	mv	a2,s4
{
    80000780:	f506                	sd	ra,168(sp)
    80000782:	f122                	sd	s0,160(sp)
    80000784:	fcd6                	sd	s5,120(sp)
  memcpy(thread_pointer, &_tdata_begin, tdata_size);
    80000786:	8a92                	mv	s5,tp
    80000788:	f4fff0ef          	jal	800006d6 <memcpy>
  size_t tbss_size = &_tbss_end - &_tdata_end;
    8000078c:	a8018613          	addi	a2,gp,-1408 # 800012c8 <_end>
  memset(thread_pointer + tdata_size, 0, tbss_size);
    80000790:	41360633          	sub	a2,a2,s3
    80000794:	4581                	li	a1,0
    80000796:	014a8533          	add	a0,s5,s4
    8000079a:	f7dff0ef          	jal	80000716 <memset>
  thread_entry(cid, nc);
    8000079e:	85ca                	mv	a1,s2
    800007a0:	8526                	mv	a0,s1
    800007a2:	e5dff0ef          	jal	800005fe <thread_entry>
	*UART_LCR = 0b0000011; // 8-bit characters, 1 stop bit, no parity
    800007a6:	100007b7          	lui	a5,0x10000
    800007aa:	470d                	li	a4,3
    800007ac:	00e781a3          	sb	a4,3(a5) # 10000003 <_start-0x6ffffffd>
  int ret = main(0, 0);
    800007b0:	4581                	li	a1,0
    800007b2:	4501                	li	a0,0
    800007b4:	13c000ef          	jal	800008f0 <main>
    if (counters[i])
    800007b8:	a6018913          	addi	s2,gp,-1440 # 800012a8 <counters>
    800007bc:	00093683          	ld	a3,0(s2)
{
    800007c0:	03f10413          	addi	s0,sp,63
    800007c4:	fc047413          	andi	s0,s0,-64
  int ret = main(0, 0);
    800007c8:	84aa                	mv	s1,a0
    if (counters[i])
    800007ca:	ea85                	bnez	a3,800007fa <_init+0x9a>
    800007cc:	00893683          	ld	a3,8(s2)
    800007d0:	e681                	bnez	a3,800007d8 <_init+0x78>
  tohost_exit(code);
    800007d2:	8526                	mv	a0,s1
    800007d4:	da1ff0ef          	jal	80000574 <tohost_exit>
  char* pbuf = buf;
    800007d8:	89a2                	mv	s3,s0
      pbuf += sprintf(pbuf, "%s = %d\n", counter_names[i], counters[i]);
    800007da:	01893603          	ld	a2,24(s2)
    800007de:	854e                	mv	a0,s3
    800007e0:	00001597          	auipc	a1,0x1
    800007e4:	8c858593          	addi	a1,a1,-1848 # 800010a8 <fromhost+0x68>
    800007e8:	eafff0ef          	jal	80000696 <sprintf>
    800007ec:	99aa                	add	s3,s3,a0
  if (pbuf != buf)
    800007ee:	ff3402e3          	beq	s0,s3,800007d2 <_init+0x72>
  uartPutStr(s);
    800007f2:	8522                	mv	a0,s0
    800007f4:	d1fff0ef          	jal	80000512 <uartPutStr>
}
    800007f8:	bfe9                	j	800007d2 <_init+0x72>
      pbuf += sprintf(pbuf, "%s = %d\n", counter_names[i], counters[i]);
    800007fa:	01093603          	ld	a2,16(s2)
    800007fe:	00001597          	auipc	a1,0x1
    80000802:	8aa58593          	addi	a1,a1,-1878 # 800010a8 <fromhost+0x68>
    80000806:	8522                	mv	a0,s0
    80000808:	e8fff0ef          	jal	80000696 <sprintf>
    if (counters[i])
    8000080c:	00893683          	ld	a3,8(s2)
      pbuf += sprintf(pbuf, "%s = %d\n", counter_names[i], counters[i]);
    80000810:	00a409b3          	add	s3,s0,a0
    if (counters[i])
    80000814:	dee9                	beqz	a3,800007ee <_init+0x8e>
    80000816:	b7d1                	j	800007da <_init+0x7a>

0000000080000818 <strlen>:
  while (*p)
    80000818:	00054783          	lbu	a5,0(a0)
    8000081c:	cb89                	beqz	a5,8000082e <strlen+0x16>
  const char *p = s;
    8000081e:	87aa                	mv	a5,a0
  while (*p)
    80000820:	0017c703          	lbu	a4,1(a5)
    p++;
    80000824:	0785                	addi	a5,a5,1
  while (*p)
    80000826:	ff6d                	bnez	a4,80000820 <strlen+0x8>
  return p - s;
    80000828:	40a78533          	sub	a0,a5,a0
    8000082c:	8082                	ret
  while (*p)
    8000082e:	4501                	li	a0,0
}
    80000830:	8082                	ret

0000000080000832 <strnlen>:
  while (n-- && *p)
    80000832:	00b506b3          	add	a3,a0,a1
  const char *p = s;
    80000836:	87aa                	mv	a5,a0
  while (n-- && *p)
    80000838:	e589                	bnez	a1,80000842 <strnlen+0x10>
    8000083a:	a811                	j	8000084e <strnlen+0x1c>
    p++;
    8000083c:	0785                	addi	a5,a5,1
  while (n-- && *p)
    8000083e:	00d78563          	beq	a5,a3,80000848 <strnlen+0x16>
    80000842:	0007c703          	lbu	a4,0(a5)
    80000846:	fb7d                	bnez	a4,8000083c <strnlen+0xa>
  return p - s;
    80000848:	40a78533          	sub	a0,a5,a0
}
    8000084c:	8082                	ret
  while (n-- && *p)
    8000084e:	4501                	li	a0,0
    80000850:	8082                	ret

0000000080000852 <strcmp>:
int strcmp(const char* s1, const char* s2)
{
  unsigned char c1, c2;

  do {
    c1 = *s1++;
    80000852:	00054783          	lbu	a5,0(a0)
    80000856:	0505                	addi	a0,a0,1
    c2 = *s2++;
    80000858:	0585                	addi	a1,a1,1
    8000085a:	fff5c703          	lbu	a4,-1(a1)
  } while (c1 != 0 && c1 == c2);
    8000085e:	c799                	beqz	a5,8000086c <strcmp+0x1a>
    80000860:	fee789e3          	beq	a5,a4,80000852 <strcmp>

  return c1 - c2;
    80000864:	0007851b          	sext.w	a0,a5
}
    80000868:	9d19                	subw	a0,a0,a4
    8000086a:	8082                	ret
    8000086c:	4501                	li	a0,0
    8000086e:	bfed                	j	80000868 <strcmp+0x16>

0000000080000870 <strcpy>:

char* strcpy(char* dest, const char* src)
{
  char* d = dest;
    80000870:	87aa                	mv	a5,a0
  while ((*d++ = *src++))
    80000872:	0005c703          	lbu	a4,0(a1)
    80000876:	0585                	addi	a1,a1,1
    80000878:	0785                	addi	a5,a5,1
    8000087a:	fee78fa3          	sb	a4,-1(a5)
    8000087e:	fb75                	bnez	a4,80000872 <strcpy+0x2>
    ;
  return dest;
}
    80000880:	8082                	ret

0000000080000882 <atol>:
long atol(const char* str)
{
  long res = 0;
  int sign = 0;

  while (*str == ' ')
    80000882:	00054703          	lbu	a4,0(a0)
    80000886:	02000693          	li	a3,32
{
    8000088a:	87aa                	mv	a5,a0
  while (*str == ' ')
    8000088c:	00d71863          	bne	a4,a3,8000089c <atol+0x1a>
    80000890:	86ba                	mv	a3,a4
    80000892:	0017c703          	lbu	a4,1(a5)
    str++;
    80000896:	0785                	addi	a5,a5,1
  while (*str == ' ')
    80000898:	fed70de3          	beq	a4,a3,80000892 <atol+0x10>

  if (*str == '-' || *str == '+') {
    8000089c:	02d00693          	li	a3,45
    800008a0:	04d70163          	beq	a4,a3,800008e2 <atol+0x60>
    800008a4:	02b00693          	li	a3,43
    800008a8:	02d70763          	beq	a4,a3,800008d6 <atol+0x54>
    sign = *str == '-';
    str++;
  }

  while (*str) {
    800008ac:	0007c683          	lbu	a3,0(a5)
  int sign = 0;
    800008b0:	4581                	li	a1,0
  while (*str) {
    800008b2:	ce8d                	beqz	a3,800008ec <atol+0x6a>
  int sign = 0;
    800008b4:	4501                	li	a0,0
    res *= 10;
    res += *str++ - '0';
    800008b6:	0785                	addi	a5,a5,1
    800008b8:	fd06861b          	addiw	a2,a3,-48
    res *= 10;
    800008bc:	00251713          	slli	a4,a0,0x2
  while (*str) {
    800008c0:	0007c683          	lbu	a3,0(a5)
    res *= 10;
    800008c4:	972a                	add	a4,a4,a0
    800008c6:	0706                	slli	a4,a4,0x1
    res += *str++ - '0';
    800008c8:	00e60533          	add	a0,a2,a4
  while (*str) {
    800008cc:	f6ed                	bnez	a3,800008b6 <atol+0x34>
  }

  return sign ? -res : res;
    800008ce:	c185                	beqz	a1,800008ee <atol+0x6c>
    800008d0:	40a00533          	neg	a0,a0
    800008d4:	8082                	ret
  while (*str) {
    800008d6:	0017c683          	lbu	a3,1(a5)
    str++;
    800008da:	0785                	addi	a5,a5,1
  while (*str) {
    800008dc:	ca81                	beqz	a3,800008ec <atol+0x6a>
    sign = *str == '-';
    800008de:	4581                	li	a1,0
    800008e0:	bfd1                	j	800008b4 <atol+0x32>
  while (*str) {
    800008e2:	0017c683          	lbu	a3,1(a5)
    sign = *str == '-';
    800008e6:	4585                	li	a1,1
    str++;
    800008e8:	97ae                	add	a5,a5,a1
  while (*str) {
    800008ea:	f6e9                	bnez	a3,800008b4 <atol+0x32>
  return sign ? -res : res;
    800008ec:	4501                	li	a0,0
}
    800008ee:	8082                	ret

Disassembly of section .text.startup:

00000000800008f0 <main>:
// standard RISC-V calling convention, where function arguments are passed
// in registers a0a7 and return values are stored in a0.
extern void fir();

int main(void) {
    int32_t sin_table[20] = { // in Q1.31 format
    800008f0:	87018793          	addi	a5,gp,-1936 # 800010b8 <fromhost+0x78>
    800008f4:	0007b283          	ld	t0,0(a5)
    800008f8:	0087bf83          	ld	t6,8(a5)
    800008fc:	0107bf03          	ld	t5,16(a5)
    80000900:	0187be83          	ld	t4,24(a5)
    80000904:	0207be03          	ld	t3,32(a5)
    80000908:	0287b303          	ld	t1,40(a5)
    8000090c:	0387b803          	ld	a6,56(a5)
    80000910:	63ac                	ld	a1,64(a5)
    80000912:	67b0                	ld	a2,72(a5)
    80000914:	0307b883          	ld	a7,48(a5)
        0xB4C373EE, // sin(16*2pi/10)
        0x8643C7B3, // sin(17*2pi/10)
        0x8643C7B3, // sin(18*2pi/10)
        0xB4C373EE  // sin(19*2pi/10)
    };  
    int lowpass[4] = {0x20000001, 0x20000002, 0x20000003, 0x20000004}; // 1/4 in Q1.31 format
    80000918:	00000697          	auipc	a3,0x0
    8000091c:	7306b683          	ld	a3,1840(a3) # 80001048 <fromhost+0x8>
    80000920:	00000717          	auipc	a4,0x0
    80000924:	73073703          	ld	a4,1840(a4) # 80001050 <fromhost+0x10>
int main(void) {
    80000928:	712d                	addi	sp,sp,-288
    int y[17];
    int expected[17] = { // in Q1.31 format
    8000092a:	6ba8                	ld	a0,80(a5)
int main(void) {
    8000092c:	ee06                	sd	ra,280(sp)
    int32_t sin_table[20] = { // in Q1.31 format
    8000092e:	f116                	sd	t0,160(sp)
    80000930:	f57e                	sd	t6,168(sp)
    80000932:	f97a                	sd	t5,176(sp)
    80000934:	fd76                	sd	t4,184(sp)
    80000936:	e1f2                	sd	t3,192(sp)
int main(void) {
    80000938:	ea22                	sd	s0,272(sp)
    8000093a:	e626                	sd	s1,264(sp)
    8000093c:	e24a                	sd	s2,256(sp)
    8000093e:	fdce                	sd	s3,248(sp)
    int32_t sin_table[20] = { // in Q1.31 format
    80000940:	e59a                	sd	t1,200(sp)
    80000942:	edc2                	sd	a6,216(sp)
    int expected[17] = { // in Q1.31 format
    80000944:	0587b303          	ld	t1,88(a5)
    int32_t sin_table[20] = { // in Q1.31 format
    80000948:	f1ae                	sd	a1,224(sp)
    8000094a:	f5b2                	sd	a2,232(sp)
    int lowpass[4] = {0x20000001, 0x20000002, 0x20000003, 0x20000004}; // 1/4 in Q1.31 format
    8000094c:	e036                	sd	a3,0(sp)
    8000094e:	e43a                	sd	a4,8(sp)
    int32_t sin_table[20] = { // in Q1.31 format
    80000950:	e9c6                	sd	a7,208(sp)
    int expected[17] = { // in Q1.31 format
    80000952:	0607b883          	ld	a7,96(a5)
    80000956:	0687b803          	ld	a6,104(a5)
    8000095a:	7bac                	ld	a1,112(a5)
    8000095c:	7fb0                	ld	a2,120(a5)
    8000095e:	63d4                	ld	a3,128(a5)
    80000960:	67d8                	ld	a4,136(a5)
    80000962:	9001a783          	lw	a5,-1792(gp) # 80001148 <fromhost+0x108>
    80000966:	ecaa                	sd	a0,88(sp)
        0x1e6f0e17,
        0xe190f1eb,
        0xb052c0ce,
        0x9d839dc6
    };
    setStats(1);        // record initial mcycle and minstret
    80000968:	4505                	li	a0,1
    int expected[17] = { // in Q1.31 format
    8000096a:	f09a                	sd	t1,96(sp)
    8000096c:	f4c6                	sd	a7,104(sp)
    8000096e:	f8c2                	sd	a6,112(sp)
    80000970:	cd3e                	sw	a5,152(sp)
    80000972:	fcae                	sd	a1,120(sp)
    80000974:	e132                	sd	a2,128(sp)
    80000976:	e536                	sd	a3,136(sp)
    80000978:	e93a                	sd	a4,144(sp)
    setStats(1);        // record initial mcycle and minstret
    8000097a:	bc1ff0ef          	jal	8000053a <setStats>
    fir(sin_table, lowpass, y, 20, 4);
    8000097e:	0810                	addi	a2,sp,16
    80000980:	858a                	mv	a1,sp
    80000982:	1108                	addi	a0,sp,160
    80000984:	4711                	li	a4,4
    80000986:	46d1                	li	a3,20
    80000988:	83bff0ef          	jal	800001c2 <fir>
    setStats(0);        // record elapsed mcycle and minstret
    8000098c:	4501                	li	a0,0
    8000098e:	01010913          	addi	s2,sp,16
    80000992:	ba9ff0ef          	jal	8000053a <setStats>
    80000996:	84ca                	mv	s1,s2
    for (int i=0; i<17; i++) {
    80000998:	4401                	li	s0,0
    8000099a:	49c5                	li	s3,17
        printf("y[%d] = %x\n", i, y[i]);
    8000099c:	4090                	lw	a2,0(s1)
    8000099e:	85a2                	mv	a1,s0
    800009a0:	00000517          	auipc	a0,0x0
    800009a4:	6b850513          	addi	a0,a0,1720 # 80001058 <fromhost+0x18>
    for (int i=0; i<17; i++) {
    800009a8:	2405                	addiw	s0,s0,1
        printf("y[%d] = %x\n", i, y[i]);
    800009aa:	cbbff0ef          	jal	80000664 <printf>
    for (int i=0; i<17; i++) {
    800009ae:	0491                	addi	s1,s1,4
    800009b0:	ff3416e3          	bne	s0,s3,8000099c <main+0xac>
    800009b4:	08bc                	addi	a5,sp,88

static int verify(int n, const volatile int* test, const int* verify)
{
  int i;
  // Unrolled for faster verification
  for (i = 0; i < n/2*2; i+=2)
    800009b6:	4501                	li	a0,0
    800009b8:	4841                	li	a6,16
  {
    int t0 = test[i], t1 = test[i+1];
    800009ba:	00092683          	lw	a3,0(s2)
    int v0 = verify[i], v1 = verify[i+1];
    if (t0 != v0) return i+1;
    800009be:	4390                	lw	a2,0(a5)
    int t0 = test[i], t1 = test[i+1];
    800009c0:	00492703          	lw	a4,4(s2)
    int v0 = verify[i], v1 = verify[i+1];
    800009c4:	43cc                	lw	a1,4(a5)
  for (i = 0; i < n/2*2; i+=2)
    800009c6:	0921                	addi	s2,s2,8
    int t0 = test[i], t1 = test[i+1];
    800009c8:	2701                	sext.w	a4,a4
    if (t0 != v0) return i+1;
    800009ca:	02d61063          	bne	a2,a3,800009ea <main+0xfa>
    if (t1 != v1) return i+2;
    800009ce:	2509                	addiw	a0,a0,2
    800009d0:	00b71663          	bne	a4,a1,800009dc <main+0xec>
  for (i = 0; i < n/2*2; i+=2)
    800009d4:	07a1                	addi	a5,a5,8
    800009d6:	ff0512e3          	bne	a0,a6,800009ba <main+0xca>
  }
  if (n % 2 != 0 && test[n-1] != verify[n-1])
    return n;
  return 0;
    800009da:	4501                	li	a0,0
    }
    return verify(16, y, expected); 
// check the 1 element of s matches expected. 0 means success
}
    800009dc:	60f2                	ld	ra,280(sp)
    800009de:	6452                	ld	s0,272(sp)
    800009e0:	64b2                	ld	s1,264(sp)
    800009e2:	6912                	ld	s2,256(sp)
    800009e4:	79ee                	ld	s3,248(sp)
    800009e6:	6115                	addi	sp,sp,288
    800009e8:	8082                	ret
    if (t0 != v0) return i+1;
    800009ea:	2505                	addiw	a0,a0,1
    800009ec:	bfc5                	j	800009dc <main+0xec>
{
    800009ee:	1141                	addi	sp,sp,-16
  uartPutStr(s);
    800009f0:	00000517          	auipc	a0,0x0
    800009f4:	6a050513          	addi	a0,a0,1696 # 80001090 <fromhost+0x50>
{
    800009f8:	e406                	sd	ra,8(sp)
  uartPutStr(s);
    800009fa:	b19ff0ef          	jal	80000512 <uartPutStr>
}
    800009fe:	60a2                	ld	ra,8(sp)
    80000a00:	557d                	li	a0,-1
    80000a02:	0141                	addi	sp,sp,16
    80000a04:	8082                	ret

Disassembly of section .tohost:

0000000080001000 <tohost>:
	...

0000000080001040 <fromhost>:
	...

Disassembly of section .sdata:

0000000080001048 <__global_pointer$-0x800>:
    80001048:	0001                	nop
    8000104a:	2000                	fld	fs0,0(s0)
    8000104c:	0002                	c.slli64	zero
    8000104e:	2000                	fld	fs0,0(s0)
    80001050:	20000003          	lb	zero,512(zero) # 200 <_start-0x7ffffe00>
    80001054:	0004                	.insn	2, 0x0004
    80001056:	2000                	fld	fs0,0(s0)

Disassembly of section .rodata.str1.8:

0000000080001058 <.rodata.str1.8>:
    80001058:	5b79                	li	s6,-2
    8000105a:	6425                	lui	s0,0x9
    8000105c:	205d                	.insn	2, 0x205d
    8000105e:	203d                	.insn	2, 0x203d
    80001060:	7825                	lui	a6,0xfffe9
    80001062:	000a                	c.slli	zero,0x2
    80001064:	0000                	unimp
    80001066:	0000                	unimp
    80001068:	6e28                	ld	a0,88(a2)
    8000106a:	6c75                	lui	s8,0x1d
    8000106c:	296c                	fld	fa1,208(a0)
	...
    80001076:	0000                	unimp
    80001078:	636d                	lui	t1,0x1b
    8000107a:	6379                	lui	t1,0x1e
    8000107c:	656c                	ld	a1,200(a0)
    8000107e:	0000                	unimp
    80001080:	696d                	lui	s2,0x1b
    80001082:	736e                	ld	t1,248(sp)
    80001084:	7274                	ld	a3,224(a2)
    80001086:	7465                	lui	s0,0xffff9
	...
    80001090:	6d49                	lui	s10,0x12
    80001092:	6c70                	ld	a2,216(s0)
    80001094:	6d65                	lui	s10,0x19
    80001096:	6e65                	lui	t3,0x19
    80001098:	2074                	fld	fa3,192(s0)
    8000109a:	616d                	addi	sp,sp,240
    8000109c:	6e69                	lui	t3,0x1a
    8000109e:	2928                	fld	fa0,80(a0)
    800010a0:	202c                	fld	fa1,64(s0)
    800010a2:	6f66                	ld	t5,88(sp)
    800010a4:	000a216f          	jal	sp,800a30a4 <__global_pointer$+0xa185c>
    800010a8:	7325                	lui	t1,0xfffe9
    800010aa:	3d20                	fld	fs0,120(a0)
    800010ac:	2520                	fld	fs0,72(a0)
    800010ae:	0a64                	addi	s1,sp,284
	...

Disassembly of section .rodata:

00000000800010b8 <.rodata>:
    800010b8:	0000                	unimp
    800010ba:	0000                	unimp
    800010bc:	8c12                	mv	s8,tp
    800010be:	4b3c                	lw	a5,80(a4)
    800010c0:	384d                	addiw	a6,a6,-13 # fffffffffffe8ff3 <__global_pointer$+0xffffffff7ffe77ab>
    800010c2:	79bc                	ld	a5,112(a1)
    800010c4:	384d                	addiw	a6,a6,-13
    800010c6:	79bc                	ld	a5,112(a1)
    800010c8:	8c12                	mv	s8,tp
    800010ca:	4b3c                	lw	a5,80(a4)
    800010cc:	0000                	unimp
    800010ce:	0000                	unimp
    800010d0:	73ee                	ld	t2,248(sp)
    800010d2:	c7b3b4c3          	.insn	4, 0xc7b3b4c3
    800010d6:	c7b38643          	.insn	4, 0xc7b38643
    800010da:	73ee8643          	fmadd.d	fa2,ft9,ft10,fa4,rne
    800010de:	0000b4c3          	fmadd.s	fs1,ft1,ft0,ft0,rup
    800010e2:	0000                	unimp
    800010e4:	8c12                	mv	s8,tp
    800010e6:	4b3c                	lw	a5,80(a4)
    800010e8:	384d                	addiw	a6,a6,-13
    800010ea:	79bc                	ld	a5,112(a1)
    800010ec:	384d                	addiw	a6,a6,-13
    800010ee:	79bc                	ld	a5,112(a1)
    800010f0:	8c12                	mv	s8,tp
    800010f2:	4b3c                	lw	a5,80(a4)
    800010f4:	0000                	unimp
    800010f6:	0000                	unimp
    800010f8:	73ee                	ld	t2,248(sp)
    800010fa:	c7b3b4c3          	.insn	4, 0xc7b3b4c3
    800010fe:	c7b38643          	.insn	4, 0xc7b38643
    80001102:	73ee8643          	fmadd.d	fa2,ft9,ft10,fa4,rne
    80001106:	3f2fb4c3          	.insn	4, 0x3f2fb4c3
    8000110a:	4fad                	li	t6,11
    8000110c:	6236                	ld	tp,328(sp)
    8000110e:	627c                	ld	a5,192(a2)
    80001110:	3f32                	fld	ft10,296(sp)
    80001112:	4fad                	li	t6,11
    80001114:	1e6f0e17          	auipc	t3,0x1e6f0
    80001118:	e190f1eb          	.insn	4, 0xe190f1eb
    8000111c:	c0ce                	sw	s3,64(sp)
    8000111e:	b052                	fsd	fs4,32(sp)
    80001120:	9dc6                	add	s11,s11,a7
    80001122:	c0cb9d83          	lh	s11,-1012(s7)
    80001126:	b052                	fsd	fs4,32(sp)
    80001128:	f1e6                	sd	s9,224(sp)
    8000112a:	e190                	sd	a2,0(a1)
    8000112c:	0e12                	slli	t3,t3,0x4
    8000112e:	3f2f1e6f          	jal	t3,800f2520 <__global_pointer$+0xf0cd8>
    80001132:	4fad                	li	t6,11
    80001134:	6236                	ld	tp,328(sp)
    80001136:	627c                	ld	a5,192(a2)
    80001138:	3f32                	fld	ft10,296(sp)
    8000113a:	4fad                	li	t6,11
    8000113c:	1e6f0e17          	auipc	t3,0x1e6f0
    80001140:	e190f1eb          	.insn	4, 0xe190f1eb
    80001144:	c0ce                	sw	s3,64(sp)
    80001146:	b052                	fsd	fs4,32(sp)
    80001148:	9dc6                	add	s11,s11,a7
    8000114a:	f1989d83          	lh	s11,-231(a7)
    8000114e:	ffff                	.insn	2, 0xffff
    80001150:	f146                	sd	a7,160(sp)
    80001152:	ffff                	.insn	2, 0xffff
    80001154:	f1a0                	sd	s0,96(a1)
    80001156:	ffff                	.insn	2, 0xffff
    80001158:	f146                	sd	a7,160(sp)
    8000115a:	ffff                	.insn	2, 0xffff
    8000115c:	f146                	sd	a7,160(sp)
    8000115e:	ffff                	.insn	2, 0xffff
    80001160:	f146                	sd	a7,160(sp)
    80001162:	ffff                	.insn	2, 0xffff
    80001164:	f146                	sd	a7,160(sp)
    80001166:	ffff                	.insn	2, 0xffff
    80001168:	f1aa                	sd	a0,224(sp)
    8000116a:	ffff                	.insn	2, 0xffff
    8000116c:	f146                	sd	a7,160(sp)
    8000116e:	ffff                	.insn	2, 0xffff
    80001170:	f146                	sd	a7,160(sp)
    80001172:	ffff                	.insn	2, 0xffff
    80001174:	f12e                	sd	a1,160(sp)
    80001176:	ffff                	.insn	2, 0xffff
    80001178:	f332                	sd	a2,416(sp)
    8000117a:	ffff                	.insn	2, 0xffff
    8000117c:	f146                	sd	a7,160(sp)
    8000117e:	ffff                	.insn	2, 0xffff
    80001180:	f12e                	sd	a1,160(sp)
    80001182:	ffff                	.insn	2, 0xffff
    80001184:	f152                	sd	s4,160(sp)
    80001186:	ffff                	.insn	2, 0xffff
    80001188:	f152                	sd	s4,160(sp)
    8000118a:	ffff                	.insn	2, 0xffff
    8000118c:	f152                	sd	s4,160(sp)
    8000118e:	ffff                	.insn	2, 0xffff
    80001190:	f152                	sd	s4,160(sp)
    80001192:	ffff                	.insn	2, 0xffff
    80001194:	f152                	sd	s4,160(sp)
    80001196:	ffff                	.insn	2, 0xffff
    80001198:	f152                	sd	s4,160(sp)
    8000119a:	ffff                	.insn	2, 0xffff
    8000119c:	f152                	sd	s4,160(sp)
    8000119e:	ffff                	.insn	2, 0xffff
    800011a0:	f152                	sd	s4,160(sp)
    800011a2:	ffff                	.insn	2, 0xffff
    800011a4:	f152                	sd	s4,160(sp)
    800011a6:	ffff                	.insn	2, 0xffff
    800011a8:	f146                	sd	a7,160(sp)
    800011aa:	ffff                	.insn	2, 0xffff
    800011ac:	f146                	sd	a7,160(sp)
    800011ae:	ffff                	.insn	2, 0xffff
    800011b0:	f146                	sd	a7,160(sp)
    800011b2:	ffff                	.insn	2, 0xffff
    800011b4:	f146                	sd	a7,160(sp)
    800011b6:	ffff                	.insn	2, 0xffff
    800011b8:	f146                	sd	a7,160(sp)
    800011ba:	ffff                	.insn	2, 0xffff
    800011bc:	f146                	sd	a7,160(sp)
    800011be:	ffff                	.insn	2, 0xffff
    800011c0:	f146                	sd	a7,160(sp)
    800011c2:	ffff                	.insn	2, 0xffff
    800011c4:	f146                	sd	a7,160(sp)
    800011c6:	ffff                	.insn	2, 0xffff
    800011c8:	f146                	sd	a7,160(sp)
    800011ca:	ffff                	.insn	2, 0xffff
    800011cc:	f146                	sd	a7,160(sp)
    800011ce:	ffff                	.insn	2, 0xffff
    800011d0:	f146                	sd	a7,160(sp)
    800011d2:	ffff                	.insn	2, 0xffff
    800011d4:	f146                	sd	a7,160(sp)
    800011d6:	ffff                	.insn	2, 0xffff
    800011d8:	f146                	sd	a7,160(sp)
    800011da:	ffff                	.insn	2, 0xffff
    800011dc:	f146                	sd	a7,160(sp)
    800011de:	ffff                	.insn	2, 0xffff
    800011e0:	f146                	sd	a7,160(sp)
    800011e2:	ffff                	.insn	2, 0xffff
    800011e4:	f146                	sd	a7,160(sp)
    800011e6:	ffff                	.insn	2, 0xffff
    800011e8:	f146                	sd	a7,160(sp)
    800011ea:	ffff                	.insn	2, 0xffff
    800011ec:	f146                	sd	a7,160(sp)
    800011ee:	ffff                	.insn	2, 0xffff
    800011f0:	f146                	sd	a7,160(sp)
    800011f2:	ffff                	.insn	2, 0xffff
    800011f4:	f146                	sd	a7,160(sp)
    800011f6:	ffff                	.insn	2, 0xffff
    800011f8:	f146                	sd	a7,160(sp)
    800011fa:	ffff                	.insn	2, 0xffff
    800011fc:	f146                	sd	a7,160(sp)
    800011fe:	ffff                	.insn	2, 0xffff
    80001200:	f146                	sd	a7,160(sp)
    80001202:	ffff                	.insn	2, 0xffff
    80001204:	f146                	sd	a7,160(sp)
    80001206:	ffff                	.insn	2, 0xffff
    80001208:	f146                	sd	a7,160(sp)
    8000120a:	ffff                	.insn	2, 0xffff
    8000120c:	f146                	sd	a7,160(sp)
    8000120e:	ffff                	.insn	2, 0xffff
    80001210:	f146                	sd	a7,160(sp)
    80001212:	ffff                	.insn	2, 0xffff
    80001214:	f146                	sd	a7,160(sp)
    80001216:	ffff                	.insn	2, 0xffff
    80001218:	f146                	sd	a7,160(sp)
    8000121a:	ffff                	.insn	2, 0xffff
    8000121c:	f146                	sd	a7,160(sp)
    8000121e:	ffff                	.insn	2, 0xffff
    80001220:	f146                	sd	a7,160(sp)
    80001222:	ffff                	.insn	2, 0xffff
    80001224:	f146                	sd	a7,160(sp)
    80001226:	ffff                	.insn	2, 0xffff
    80001228:	f146                	sd	a7,160(sp)
    8000122a:	ffff                	.insn	2, 0xffff
    8000122c:	f146                	sd	a7,160(sp)
    8000122e:	ffff                	.insn	2, 0xffff
    80001230:	f146                	sd	a7,160(sp)
    80001232:	ffff                	.insn	2, 0xffff
    80001234:	f146                	sd	a7,160(sp)
    80001236:	ffff                	.insn	2, 0xffff
    80001238:	f146                	sd	a7,160(sp)
    8000123a:	ffff                	.insn	2, 0xffff
    8000123c:	f146                	sd	a7,160(sp)
    8000123e:	ffff                	.insn	2, 0xffff
    80001240:	f146                	sd	a7,160(sp)
    80001242:	ffff                	.insn	2, 0xffff
    80001244:	f146                	sd	a7,160(sp)
    80001246:	ffff                	.insn	2, 0xffff
    80001248:	f146                	sd	a7,160(sp)
    8000124a:	ffff                	.insn	2, 0xffff
    8000124c:	f346                	sd	a7,416(sp)
    8000124e:	ffff                	.insn	2, 0xffff
    80001250:	f242                	sd	a6,288(sp)
    80001252:	ffff                	.insn	2, 0xffff
    80001254:	f146                	sd	a7,160(sp)
    80001256:	ffff                	.insn	2, 0xffff
    80001258:	f146                	sd	a7,160(sp)
    8000125a:	ffff                	.insn	2, 0xffff
    8000125c:	f146                	sd	a7,160(sp)
    8000125e:	ffff                	.insn	2, 0xffff
    80001260:	f146                	sd	a7,160(sp)
    80001262:	ffff                	.insn	2, 0xffff
    80001264:	f146                	sd	a7,160(sp)
    80001266:	ffff                	.insn	2, 0xffff
    80001268:	f146                	sd	a7,160(sp)
    8000126a:	ffff                	.insn	2, 0xffff
    8000126c:	f146                	sd	a7,160(sp)
    8000126e:	ffff                	.insn	2, 0xffff
    80001270:	f262                	sd	s8,288(sp)
    80001272:	ffff                	.insn	2, 0xffff
    80001274:	f146                	sd	a7,160(sp)
    80001276:	ffff                	.insn	2, 0xffff
    80001278:	f146                	sd	a7,160(sp)
    8000127a:	ffff                	.insn	2, 0xffff
    8000127c:	f362                	sd	s8,416(sp)
    8000127e:	ffff                	.insn	2, 0xffff
    80001280:	f1b8                	sd	a4,96(a1)
    80001282:	ffff                	.insn	2, 0xffff
    80001284:	f146                	sd	a7,160(sp)
    80001286:	ffff                	.insn	2, 0xffff
    80001288:	f146                	sd	a7,160(sp)
    8000128a:	ffff                	.insn	2, 0xffff
    8000128c:	f284                	sd	s1,32(a3)
    8000128e:	ffff                	.insn	2, 0xffff
    80001290:	f146                	sd	a7,160(sp)
    80001292:	ffff                	.insn	2, 0xffff
    80001294:	f35c                	sd	a5,160(a4)
    80001296:	ffff                	.insn	2, 0xffff
    80001298:	f146                	sd	a7,160(sp)
    8000129a:	ffff                	.insn	2, 0xffff
    8000129c:	f146                	sd	a7,160(sp)
    8000129e:	ffff                	.insn	2, 0xffff
    800012a0:	f26c                	sd	a1,224(a2)
    800012a2:	ffff                	.insn	2, 0xffff

Disassembly of section .debug_info:

0000000000000000 <_tbss_end-0x800012c8>:
       0:	02f4                	addi	a3,sp,332
       2:	0000                	unimp
       4:	0002                	c.slli64	zero
       6:	0000                	unimp
       8:	0000                	unimp
       a:	0108                	addi	a0,sp,128
       c:	00000047          	fmsub.s	ft0,ft0,ft0,ft0,rne
      10:	0a0c                	addi	a1,sp,272
      12:	0000                	unimp
      14:	2c00                	fld	fs0,24(s0)
      16:	0001                	nop
      18:	b000                	fsd	fs0,32(s0)
	...
      2e:	0000                	unimp
      30:	0200                	addi	s0,sp,256
      32:	0601                	addi	a2,a2,0
      34:	00000013          	nop
      38:	0102                	c.slli64	sp
      3a:	1108                	addi	a0,sp,160
      3c:	0000                	unimp
      3e:	0200                	addi	s0,sp,256
      40:	0502                	c.slli64	a0
      42:	0122                	slli	sp,sp,0x8
      44:	0000                	unimp
      46:	0202                	c.slli64	tp
      48:	00002807          	flw	fa6,0(zero) # 0 <_start-0x80000000>
      4c:	0300                	addi	s0,sp,384
      4e:	0000                	unimp
      50:	0000                	unimp
      52:	59184d03          	lbu	s10,1425(a6)
      56:	0000                	unimp
      58:	0400                	addi	s0,sp,512
      5a:	0504                	addi	s1,sp,640
      5c:	6e69                	lui	t3,0x1a
      5e:	0074                	addi	a3,sp,12
      60:	5905                	li	s2,-31
      62:	0000                	unimp
      64:	0600                	addi	s0,sp,768
      66:	0060                	addi	s0,sp,12
      68:	0000                	unimp
      6a:	5906                	lw	s2,96(sp)
      6c:	0000                	unimp
      6e:	0200                	addi	s0,sp,256
      70:	0704                	addi	s1,sp,896
      72:	00f5                	addi	ra,ra,29
      74:	0000                	unimp
      76:	0802                	c.slli64	a6
      78:	0705                	addi	a4,a4,1
      7a:	0001                	nop
      7c:	0200                	addi	s0,sp,256
      7e:	0708                	addi	a0,sp,896
      80:	00f0                	addi	a2,sp,76
      82:	0000                	unimp
      84:	0802                	c.slli64	a6
      86:	0205                	addi	tp,tp,1 # 1 <_start-0x7fffffff>
      88:	0001                	nop
      8a:	0200                	addi	s0,sp,256
      8c:	0410                	addi	a2,sp,512
      8e:	0152                	slli	sp,sp,0x14
      90:	0000                	unimp
      92:	0102                	c.slli64	sp
      94:	1a08                	addi	a0,sp,304
      96:	0000                	unimp
      98:	0600                	addi	s0,sp,768
      9a:	0092                	slli	ra,ra,0x4
      9c:	0000                	unimp
      9e:	00990807          	.insn	4, 0x00990807
      a2:	0000                	unimp
      a4:	0802                	c.slli64	a6
      a6:	0000eb07          	.insn	4, 0xeb07
      aa:	0300                	addi	s0,sp,384
      ac:	0002                	c.slli64	zero
      ae:	0000                	unimp
      b0:	2c04                	fld	fs1,24(s0)
      b2:	00004d13          	xori	s10,zero,0
      b6:	0800                	addi	s0,sp,16
      b8:	4001                	c.li	zero,0
      ba:	0002                	c.slli64	zero
      bc:	0500                	addi	s0,sp,640
      be:	05ce                	slli	a1,a1,0x13
      c0:	5901                	li	s2,-32
      c2:	0000                	unimp
      c4:	0100                	addi	s0,sp,128
      c6:	00d1                	addi	ra,ra,20
      c8:	0000                	unimp
      ca:	9e09                	subw	a2,a2,a0
      cc:	0000                	unimp
      ce:	0a00                	addi	s0,sp,272
      d0:	0b00                	addi	s0,sp,400
      d2:	6601                	.insn	2, 0x6601
      d4:	7269                	lui	tp,0xffffa
      d6:	0100                	addi	s0,sp,128
      d8:	0d08                	addi	a0,sp,656
      da:	e101                	bnez	a0,da <_start-0x7fffff26>
      dc:	0000                	unimp
      de:	0a00                	addi	s0,sp,272
      e0:	0c00                	addi	s0,sp,528
      e2:	5e01                	li	t3,-32
      e4:	0001                	nop
      e6:	0200                	addi	s0,sp,256
      e8:	0d06                	slli	s10,s10,0x1
      ea:	0101                	addi	sp,sp,0
      ec:	00f6                	slli	ra,ra,0x1d
      ee:	0000                	unimp
      f0:	5909                	li	s2,-30
      f2:	0000                	unimp
      f4:	0000                	unimp
      f6:	010d                	addi	sp,sp,3
      f8:	0042                	c.slli	zero,0x10
      fa:	0000                	unimp
      fc:	0a01                	addi	s4,s4,0
      fe:	0105                	addi	sp,sp,1
     100:	0059                	c.nop	22
     102:	0000                	unimp
     104:	08f0                	addi	a2,sp,92
     106:	8000                	.insn	2, 0x8000
     108:	0000                	unimp
     10a:	0000                	unimp
     10c:	09ee                	slli	s3,s3,0x1b
     10e:	8000                	.insn	2, 0x8000
	...
     118:	4e01                	li	t3,0
     11a:	0002                	c.slli64	zero
     11c:	0e00                	addi	s0,sp,784
     11e:	0118                	addi	a4,sp,128
     120:	0000                	unimp
     122:	0b01                	addi	s6,s6,0
     124:	4e0d                	li	t3,3
     126:	0002                	c.slli64	zero
     128:	0300                	addi	s0,sp,384
     12a:	8091                	srli	s1,s1,0x4
     12c:	0e7f 0110 0000 2101 	.insn	10, 0x5e092101000001100e7f
     134:	5e09 
     136:	0002                	c.slli64	zero
     138:	0300                	addi	s0,sp,384
     13a:	e091                	bnez	s1,13e <_start-0x7ffffec2>
     13c:	0f7d                	addi	t5,t5,31
     13e:	0079                	c.nop	30
     140:	2201                	sext.w	tp,tp
     142:	6e09                	lui	t3,0x2
     144:	0002                	c.slli64	zero
     146:	0300                	addi	s0,sp,384
     148:	f091                	bnez	s1,4c <_start-0x7fffffb4>
     14a:	0e7d                	addi	t3,t3,31 # 201f <_start-0x7fffdfe1>
     14c:	001f 0000 2301      	.insn	6, 0x23010000001f
     152:	6e09                	lui	t3,0x2
     154:	0002                	c.slli64	zero
     156:	0300                	addi	s0,sp,384
     158:	b891                	j	fffffffffffff9ac <__global_pointer$+0xffffffff7fffe164>
     15a:	107e                	c.slli	zero,0x3f
     15c:	0000                	unimp
     15e:	0000                	unimp
     160:	018e                	slli	gp,gp,0x3
     162:	0000                	unimp
     164:	6911                	lui	s2,0x4
     166:	0100                	addi	s0,sp,128
     168:	0e39                	addi	t3,t3,14 # 200e <_start-0x7fffdff2>
     16a:	0059                	c.nop	22
     16c:	0000                	unimp
     16e:	0062                	c.slli	zero,0x18
     170:	0000                	unimp
     172:	ae12                	fsd	ft4,280(sp)
     174:	0009                	c.nop	2
     176:	0080                	addi	s0,sp,64
     178:	0000                	unimp
     17a:	b700                	fsd	fs0,40(a4)
     17c:	0000                	unimp
     17e:	1300                	addi	s0,sp,416
     180:	5a01                	li	s4,-32
     182:	0309                	addi	t1,t1,2 # fffffffffffe9002 <__global_pointer$+0xffffffff7ffe77ba>
     184:	1058                	addi	a4,sp,36
     186:	8000                	.insn	2, 0x8000
     188:	0000                	unimp
     18a:	0000                	unimp
     18c:	0000                	unimp
     18e:	7e14                	ld	a3,56(a2)
     190:	0002                	c.slli64	zero
     192:	b600                	fsd	fs0,40(a2)
     194:	0009                	c.nop	2
     196:	0080                	addi	s0,sp,64
     198:	0000                	unimp
     19a:	3000                	fld	fs0,32(s0)
     19c:	0000                	unimp
     19e:	0100                	addi	s0,sp,128
     1a0:	0c3c                	addi	a5,sp,536
     1a2:	000001f3          	.insn	4, 0x01f3
     1a6:	9015                	srli	s0,s0,0x25
     1a8:	0002                	c.slli64	zero
     1aa:	1500                	addi	s0,sp,672
     1ac:	029a                	slli	t0,t0,0x6
     1ae:	0000                	unimp
     1b0:	a615                	j	4d4 <_start-0x7ffffb2c>
     1b2:	0002                	c.slli64	zero
     1b4:	1600                	addi	s0,sp,800
     1b6:	0030                	addi	a2,sp,8
     1b8:	0000                	unimp
     1ba:	0002b217          	auipc	tp,0x2b
     1be:	d200                	sw	s0,32(a2)
     1c0:	0000                	unimp
     1c2:	1800                	addi	s0,sp,48
     1c4:	02bc                	addi	a5,sp,328
     1c6:	0000                	unimp
     1c8:	0060                	addi	s0,sp,12
     1ca:	0000                	unimp
     1cc:	0002bd17          	auipc	s10,0x2b
     1d0:	2100                	fld	fs0,0(a0)
     1d2:	0001                	nop
     1d4:	1700                	addi	s0,sp,928
     1d6:	02c8                	addi	a0,sp,324
     1d8:	0000                	unimp
     1da:	00000157          	.insn	4, 0x0157
     1de:	0002d317          	auipc	t1,0x2d
     1e2:	8d00                	.insn	2, 0x8d00
     1e4:	0001                	nop
     1e6:	1700                	addi	s0,sp,928
     1e8:	02de                	slli	t0,t0,0x17
     1ea:	0000                	unimp
     1ec:	01d8                	addi	a4,sp,196
     1ee:	0000                	unimp
     1f0:	0000                	unimp
     1f2:	1900                	addi	s0,sp,176
     1f4:	097e                	slli	s2,s2,0x1f
     1f6:	8000                	.insn	2, 0x8000
     1f8:	0000                	unimp
     1fa:	0000                	unimp
     1fc:	00e1                	addi	ra,ra,24
     1fe:	0000                	unimp
     200:	020a                	slli	tp,tp,0x2
     202:	0000                	unimp
     204:	015a0113          	addi	sp,s4,21
     208:	0031                	c.nop	12
     20a:	8c19                	sub	s0,s0,a4
     20c:	0009                	c.nop	2
     20e:	0080                	addi	s0,sp,64
     210:	0000                	unimp
     212:	d100                	sw	s0,32(a0)
     214:	0000                	unimp
     216:	3a00                	fld	fs0,48(a2)
     218:	0002                	c.slli64	zero
     21a:	1300                	addi	s0,sp,416
     21c:	5a01                	li	s4,-32
     21e:	7f809103          	lh	sp,2040(ra)
     222:	025b0113          	addi	sp,s6,37
     226:	0072                	c.slli	zero,0x1c
     228:	035c0113          	addi	sp,s8,53 # 1d035 <_start-0x7ffe2fcb>
     22c:	f091                	bnez	s1,130 <_start-0x7ffffed0>
     22e:	137d                	addi	t1,t1,-1 # 2d1dd <_start-0x7ffd2e23>
     230:	5d01                	li	s10,-32
     232:	4401                	li	s0,0
     234:	015e0113          	addi	sp,t3,21
     238:	0034                	addi	a3,sp,8
     23a:	9612                	add	a2,a2,tp
     23c:	0009                	c.nop	2
     23e:	0080                	addi	s0,sp,64
     240:	0000                	unimp
     242:	e100                	sd	s0,0(a0)
     244:	0000                	unimp
     246:	1300                	addi	s0,sp,416
     248:	5a01                	li	s4,-32
     24a:	3001                	.insn	2, 0x3001
     24c:	0000                	unimp
     24e:	ab1a                	fsd	ft6,400(sp)
     250:	0000                	unimp
     252:	5e00                	lw	s0,56(a2)
     254:	0002                	c.slli64	zero
     256:	1b00                	addi	s0,sp,432
     258:	007d                	c.nop	31
     25a:	0000                	unimp
     25c:	591a0013          	addi	zero,s4,1425
     260:	0000                	unimp
     262:	6e00                	ld	s0,24(a2)
     264:	0002                	c.slli64	zero
     266:	1b00                	addi	s0,sp,432
     268:	007d                	c.nop	31
     26a:	0000                	unimp
     26c:	591a0003          	lb	zero,1425(s4)
     270:	0000                	unimp
     272:	7e00                	ld	s0,56(a2)
     274:	0002                	c.slli64	zero
     276:	1b00                	addi	s0,sp,432
     278:	007d                	c.nop	31
     27a:	0000                	unimp
     27c:	0010                	.insn	2, 0x0010
     27e:	3b1c                	fld	fa5,48(a4)
     280:	0000                	unimp
     282:	0200                	addi	s0,sp,256
     284:	0c0c                	addi	a1,sp,528
     286:	5901                	li	s2,-32
     288:	0000                	unimp
     28a:	0100                	addi	s0,sp,128
     28c:	000002eb          	.insn	4, 0x02eb
     290:	6e1d                	lui	t3,0x7
     292:	0200                	addi	s0,sp,256
     294:	170c                	addi	a1,sp,928
     296:	0059                	c.nop	22
     298:	0000                	unimp
     29a:	e61e                	sd	t2,264(sp)
     29c:	0000                	unimp
     29e:	0200                	addi	s0,sp,256
     2a0:	2e0c                	fld	fa1,24(a2)
     2a2:	000002eb          	.insn	4, 0x02eb
     2a6:	3b1e                	fld	fs6,480(sp)
     2a8:	0000                	unimp
     2aa:	0200                	addi	s0,sp,256
     2ac:	3f0c                	fld	fa1,56(a4)
     2ae:	02f1                	addi	t0,t0,28
     2b0:	0000                	unimp
     2b2:	691f 0200 070e      	.insn	6, 0x070e0200691f
     2b8:	0059                	c.nop	22
     2ba:	0000                	unimp
     2bc:	1f20                	addi	s0,sp,952
     2be:	3074                	fld	fa3,224(s0)
     2c0:	0200                	addi	s0,sp,256
     2c2:	0912                	slli	s2,s2,0x4
     2c4:	0059                	c.nop	22
     2c6:	0000                	unimp
     2c8:	741f 0031 1202      	.insn	6, 0x12020031741f
     2ce:	00005917          	auipc	s2,0x5
     2d2:	1f00                	addi	s0,sp,944
     2d4:	3076                	fld	ft0,376(sp)
     2d6:	0200                	addi	s0,sp,256
     2d8:	00590913          	addi	s2,s2,5 # 52d3 <_start-0x7fffad2d>
     2dc:	0000                	unimp
     2de:	761f 0031 1302      	.insn	6, 0x13020031761f
     2e4:	5919                	li	s2,-26
     2e6:	0000                	unimp
     2e8:	0000                	unimp
     2ea:	0700                	addi	s0,sp,896
     2ec:	6508                	ld	a0,8(a0)
     2ee:	0000                	unimp
     2f0:	0700                	addi	s0,sp,896
     2f2:	6a08                	ld	a0,16(a2)
     2f4:	0000                	unimp
     2f6:	0000                	unimp
     2f8:	002a                	c.slli	zero,0xa
     2fa:	0000                	unimp
     2fc:	0002                	c.slli64	zero
     2fe:	000001a7          	.insn	4, 0x01a7
     302:	0108                	addi	a0,sp,128
     304:	030a                	slli	t1,t1,0x2
     306:	0000                	unimp
     308:	01c2                	slli	gp,gp,0x10
     30a:	8000                	.insn	2, 0x8000
     30c:	0000                	unimp
     30e:	0000                	unimp
     310:	01d0                	addi	a2,sp,196
     312:	8000                	.insn	2, 0x8000
     314:	0000                	unimp
     316:	0000                	unimp
     318:	00000167          	jalr	sp,zero # 0 <_start-0x80000000>
     31c:	012c                	addi	a1,sp,136
     31e:	0000                	unimp
     320:	016e                	slli	sp,sp,0x1b
     322:	0000                	unimp
     324:	8001                	c.srli64	s0
     326:	002a                	c.slli	zero,0xa
     328:	0000                	unimp
     32a:	0002                	c.slli64	zero
     32c:	000001bb          	addw	gp,zero,zero
     330:	0108                	addi	a0,sp,128
     332:	0354                	addi	a3,sp,388
     334:	0000                	unimp
     336:	0000                	unimp
     338:	8000                	.insn	2, 0x8000
     33a:	0000                	unimp
     33c:	0000                	unimp
     33e:	01c0                	addi	s0,sp,196
     340:	8000                	.insn	2, 0x8000
     342:	0000                	unimp
     344:	0000                	unimp
     346:	017c                	addi	a5,sp,140
     348:	0000                	unimp
     34a:	012c                	addi	a1,sp,136
     34c:	0000                	unimp
     34e:	016e                	slli	sp,sp,0x1b
     350:	0000                	unimp
     352:	8001                	c.srli64	s0
     354:	14a0                	addi	s0,sp,616
     356:	0000                	unimp
     358:	0002                	c.slli64	zero
     35a:	000001cf          	fnmadd.s	ft3,ft0,ft0,ft0,rne
     35e:	0108                	addi	a0,sp,128
     360:	00000047          	fmsub.s	ft0,ft0,ft0,ft0,rne
     364:	9d0c                	.insn	2, 0x9d0c
     366:	2c000003          	lb	zero,704(zero) # 2c0 <_start-0x7ffffd40>
     36a:	0001                	nop
     36c:	f000                	sd	s0,32(s0)
     36e:	0004                	.insn	2, 0x0004
	...
     380:	4f00                	lw	s0,24(a4)
     382:	02000007          	.insn	4, 0x02000007
     386:	0601                	addi	a2,a2,0
     388:	00000013          	nop
     38c:	0001b003          	ld	zero,0(gp) # 80001848 <__global_pointer$>
     390:	0200                	addi	s0,sp,256
     392:	0044182b          	.insn	4, 0x0044182b
     396:	0000                	unimp
     398:	0102                	c.slli64	sp
     39a:	1108                	addi	a0,sp,160
     39c:	0000                	unimp
     39e:	0200                	addi	s0,sp,256
     3a0:	0502                	c.slli64	a0
     3a2:	0122                	slli	sp,sp,0x8
     3a4:	0000                	unimp
     3a6:	0202                	c.slli64	tp
     3a8:	00002807          	flw	fa6,0(zero) # 0 <_start-0x80000000>
     3ac:	0400                	addi	s0,sp,512
     3ae:	0504                	addi	s1,sp,640
     3b0:	6e69                	lui	t3,0x1a
     3b2:	0074                	addi	a3,sp,12
     3b4:	0402                	c.slli64	s0
     3b6:	0000f507          	.insn	4, 0xf507
     3ba:	0200                	addi	s0,sp,256
     3bc:	0508                	addi	a0,sp,640
     3be:	00000107          	.insn	4, 0x0107
     3c2:	00033e03          	ld	t3,0(t1)
     3c6:	0200                	addi	s0,sp,256
     3c8:	1969                	addi	s2,s2,-6
     3ca:	007a                	c.slli	zero,0x1e
     3cc:	0000                	unimp
     3ce:	0802                	c.slli64	a6
     3d0:	0000f007          	.insn	4, 0xf007
     3d4:	0300                	addi	s0,sp,384
     3d6:	036a                	slli	t1,t1,0x1a
     3d8:	0000                	unimp
     3da:	e802                	sd	zero,16(sp)
     3dc:	7a1a                	ld	s4,416(sp)
     3de:	0000                	unimp
     3e0:	0300                	addi	s0,sp,384
     3e2:	01b2                	slli	gp,gp,0xc
     3e4:	0000                	unimp
     3e6:	38131803          	lh	a6,897(t1)
     3ea:	0000                	unimp
     3ec:	0500                	addi	s0,sp,640
     3ee:	008d                	addi	ra,ra,3
     3f0:	0000                	unimp
     3f2:	00034003          	lbu	zero,0(t1)
     3f6:	0300                	addi	s0,sp,384
     3f8:	143c                	addi	a5,sp,552
     3fa:	006e                	c.slli	zero,0x1b
     3fc:	0000                	unimp
     3fe:	9e05                	subw	a2,a2,s1
     400:	0000                	unimp
     402:	0300                	addi	s0,sp,384
     404:	036c                	addi	a1,sp,396
     406:	0000                	unimp
     408:	81155203          	lhu	tp,-2031(a0)
     40c:	0000                	unimp
     40e:	0600                	addi	s0,sp,768
     410:	000000af          	.insn	4, 0x00af
     414:	00019f03          	lh	t5,0(gp) # 80001848 <__global_pointer$>
     418:	0400                	addi	s0,sp,512
     41a:	17d6                	slli	a5,a5,0x35
     41c:	007a                	c.slli	zero,0x1e
     41e:	0000                	unimp
     420:	0802                	c.slli64	a6
     422:	0205                	addi	tp,tp,1 # 2b1bb <_start-0x7ffd4e45>
     424:	0001                	nop
     426:	0200                	addi	s0,sp,256
     428:	0410                	addi	a2,sp,512
     42a:	0152                	slli	sp,sp,0x14
     42c:	0000                	unimp
     42e:	08080807          	.insn	4, 0x08080807
     432:	021e                	slli	tp,tp,0x7
     434:	0000                	unimp
     436:	0809                	addi	a6,a6,2
     438:	00e8                	addi	a0,sp,76
     43a:	0000                	unimp
     43c:	0102                	c.slli64	sp
     43e:	1a08                	addi	a0,sp,304
     440:	0000                	unimp
     442:	0600                	addi	s0,sp,768
     444:	00e8                	addi	a0,sp,76
     446:	0000                	unimp
     448:	0809                	addi	a6,a6,2
     44a:	000000ef          	jal	44a <_start-0x7ffffbb6>
     44e:	0802                	c.slli64	a6
     450:	0000eb07          	.insn	4, 0xeb07
     454:	0300                	addi	s0,sp,384
     456:	030c                	addi	a1,sp,384
     458:	0000                	unimp
     45a:	2805                	addiw	a6,a6,1
     45c:	0000dc1b          	srliw	s8,ra,0x0
     460:	0300                	addi	s0,sp,384
     462:	00000313          	li	t1,0
     466:	6705                	lui	a4,0x1
     468:	0118                	addi	a4,sp,128
     46a:	0001                	nop
     46c:	0a00                	addi	s0,sp,272
     46e:	0355                	addi	t1,t1,21
     470:	0000                	unimp
     472:	0f01                	addi	t5,t5,0
     474:	aa1a                	fsd	ft6,272(sp)
     476:	0000                	unimp
     478:	0100                	addi	s0,sp,128
     47a:	0b01                	addi	s6,s6,0
     47c:	000000af          	.insn	4, 0x00af
     480:	00000137          	lui	sp,0x0
     484:	7a0c                	ld	a1,48(a2)
     486:	0000                	unimp
     488:	0100                	addi	s0,sp,128
     48a:	0d00                	addi	s0,sp,656
     48c:	02de                	slli	t0,t0,0x17
     48e:	0000                	unimp
     490:	4b01                	li	s6,0
     492:	2712                	fld	fa4,256(sp)
     494:	0001                	nop
     496:	0900                	addi	s0,sp,144
     498:	0012a803          	lw	a6,1(t0)
     49c:	0080                	addi	s0,sp,64
     49e:	0000                	unimp
     4a0:	0b00                	addi	s0,sp,400
     4a2:	00e2                	slli	ra,ra,0x18
     4a4:	0000                	unimp
     4a6:	015d                	addi	sp,sp,23 # 17 <_start-0x7fffffe9>
     4a8:	0000                	unimp
     4aa:	7a0c                	ld	a1,48(a2)
     4ac:	0000                	unimp
     4ae:	0100                	addi	s0,sp,128
     4b0:	0d00                	addi	s0,sp,656
     4b2:	035c                	addi	a5,sp,388
     4b4:	0000                	unimp
     4b6:	4c01                	li	s8,0
     4b8:	4d0e                	lw	s10,192(sp)
     4ba:	0001                	nop
     4bc:	0900                	addi	s0,sp,144
     4be:	0012b803          	ld	a6,1(t0)
     4c2:	0080                	addi	s0,sp,64
     4c4:	0000                	unimp
     4c6:	0e00                	addi	s0,sp,784
     4c8:	5001                	c.li	zero,-32
     4ca:	01000003          	lb	zero,16(zero) # 10 <_start-0x7ffffff0>
     4ce:	01fa                	slli	gp,gp,0x1e
     4d0:	0106                	slli	sp,sp,0x1
     4d2:	00000067          	jr	zero # 0 <_start-0x80000000>
     4d6:	0882                	c.slli64	a7
     4d8:	8000                	.insn	2, 0x8000
     4da:	0000                	unimp
     4dc:	0000                	unimp
     4de:	08f0                	addi	a2,sp,92
     4e0:	8000                	.insn	2, 0x8000
     4e2:	0000                	unimp
     4e4:	0000                	unimp
     4e6:	7202                	ld	tp,32(sp)
     4e8:	0100                	addi	s0,sp,128
     4ea:	01ce                	slli	gp,gp,0x13
     4ec:	0000                	unimp
     4ee:	7274730f          	.insn	4, 0x7274730f
     4f2:	0100                	addi	s0,sp,128
     4f4:	01fa                	slli	gp,gp,0x1e
     4f6:	0000f417          	auipc	s0,0xf
     4fa:	2300                	fld	fs0,0(a4)
     4fc:	0002                	c.slli64	zero
     4fe:	1000                	addi	s0,sp,32
     500:	6572                	ld	a0,280(sp)
     502:	fc010073          	.insn	4, 0xfc010073
     506:	0801                	addi	a6,a6,0
     508:	00000067          	jr	zero # 0 <_start-0x80000000>
     50c:	02a9                	addi	t0,t0,10
     50e:	0000                	unimp
     510:	df11                	beqz	a4,42c <_start-0x7ffffbd4>
     512:	01000003          	lb	zero,16(zero) # 10 <_start-0x7ffffff0>
     516:	01fd                	addi	gp,gp,31 # 80001867 <__global_pointer$+0x1f>
     518:	00005907          	.insn	4, 0x5907
     51c:	3000                	fld	fs0,32(s0)
     51e:	00000003          	lb	zero,0(zero) # 0 <_start-0x80000000>
     522:	0112                	slli	sp,sp,0x4
     524:	02c6                	slli	t0,t0,0x11
     526:	0000                	unimp
     528:	2606                	fld	fa2,64(sp)
     52a:	0108                	addi	a0,sp,128
     52c:	00e2                	slli	ra,ra,0x18
     52e:	0000                	unimp
     530:	0870                	addi	a2,sp,28
     532:	8000                	.insn	2, 0x8000
     534:	0000                	unimp
     536:	0000                	unimp
     538:	0882                	c.slli64	a7
     53a:	8000                	.insn	2, 0x8000
     53c:	0000                	unimp
     53e:	0000                	unimp
     540:	7202                	ld	tp,32(sp)
     542:	0100                	addi	s0,sp,128
     544:	0224                	addi	s1,sp,264
     546:	0000                	unimp
     548:	00032f13          	slti	t5,t1,0
     54c:	0100                	addi	s0,sp,128
     54e:	01f2                	slli	gp,gp,0x1c
     550:	e214                	sd	a3,0(a2)
     552:	0000                	unimp
     554:	0100                	addi	s0,sp,128
     556:	0f5a                	slli	t5,t5,0x16
     558:	00637273          	csrrci	tp,0x6,6
     55c:	f201                	bnez	a2,45c <_start-0x7ffffba4>
     55e:	2601                	sext.w	a2,a2
     560:	00f4                	addi	a3,sp,76
     562:	0000                	unimp
     564:	0000038f          	.insn	4, 0x038f
     568:	6410                	ld	a2,8(s0)
     56a:	0100                	addi	s0,sp,128
     56c:	01f4                	addi	a3,sp,204
     56e:	e209                	bnez	a2,570 <_start-0x7ffffa90>
     570:	0000                	unimp
     572:	c500                	sw	s0,8(a0)
     574:	00000003          	lb	zero,0(zero) # 0 <_start-0x80000000>
     578:	0112                	slli	sp,sp,0x4
     57a:	00000193          	li	gp,0
     57e:	2406                	fld	fs0,64(sp)
     580:	0106                	slli	sp,sp,0x1
     582:	0059                	c.nop	22
     584:	0000                	unimp
     586:	0852                	slli	a6,a6,0x14
     588:	8000                	.insn	2, 0x8000
     58a:	0000                	unimp
     58c:	0000                	unimp
     58e:	0870                	addi	a2,sp,28
     590:	8000                	.insn	2, 0x8000
     592:	0000                	unimp
     594:	0000                	unimp
     596:	7202                	ld	tp,32(sp)
     598:	0100                	addi	s0,sp,128
     59a:	00000287          	.insn	4, 0x0287
     59e:	0031730f          	.insn	4, 0x0031730f
     5a2:	e601                	bnez	a2,5aa <_start-0x7ffffa56>
     5a4:	1801                	addi	a6,a6,-32
     5a6:	00f4                	addi	a3,sp,76
     5a8:	0000                	unimp
     5aa:	000003fb          	.insn	4, 0x03fb
     5ae:	0032730f          	.insn	4, 0x0032730f
     5b2:	e601                	bnez	a2,5ba <_start-0x7ffffa46>
     5b4:	2801                	sext.w	a6,a6
     5b6:	00f4                	addi	a3,sp,76
     5b8:	0000                	unimp
     5ba:	048a                	slli	s1,s1,0x2
     5bc:	0000                	unimp
     5be:	6314                	ld	a3,0(a4)
     5c0:	0031                	c.nop	12
     5c2:	e801                	bnez	s0,5d2 <_start-0x7ffffa2e>
     5c4:	1101                	addi	sp,sp,-32
     5c6:	0044                	addi	s1,sp,4
     5c8:	0000                	unimp
     5ca:	5f01                	li	t5,-32
     5cc:	6314                	ld	a3,0(a4)
     5ce:	0032                	c.slli	zero,0xc
     5d0:	e801                	bnez	s0,5e0 <_start-0x7ffffa20>
     5d2:	1501                	addi	a0,a0,-32
     5d4:	0044                	addi	s1,sp,4
     5d6:	0000                	unimp
     5d8:	5e01                	li	t3,-32
     5da:	1500                	addi	s0,sp,672
     5dc:	fc01                	bnez	s0,4f4 <_start-0x7ffffb0c>
     5de:	06000003          	lb	zero,96(zero) # 60 <_start-0x7fffffa0>
     5e2:	c0010977          	.insn	4, 0xc0010977
     5e6:	0000                	unimp
     5e8:	0100                	addi	s0,sp,128
     5ea:	02bc                	addi	a5,sp,328
     5ec:	0000                	unimp
     5ee:	7316                	ld	t1,352(sp)
     5f0:	0100                	addi	s0,sp,128
     5f2:	01de                	slli	gp,gp,0x17
     5f4:	f41c                	sd	a5,40(s0)
     5f6:	0000                	unimp
     5f8:	1600                	addi	s0,sp,800
     5fa:	006e                	c.slli	zero,0x1b
     5fc:	de01                	beqz	a2,514 <_start-0x7ffffaec>
     5fe:	2601                	sext.w	a2,a2
     600:	00c0                	addi	s0,sp,68
     602:	0000                	unimp
     604:	01007017          	auipc	zero,0x1007
     608:	01e0                	addi	s0,sp,204
     60a:	0000f40f          	.insn	4, 0xf40f
     60e:	0000                	unimp
     610:	0112                	slli	sp,sp,0x4
     612:	028c                	addi	a1,sp,320
     614:	0000                	unimp
     616:	2906                	fld	fs2,64(sp)
     618:	0109                	addi	sp,sp,2
     61a:	00c0                	addi	s0,sp,68
     61c:	0000                	unimp
     61e:	0818                	addi	a4,sp,16
     620:	8000                	.insn	2, 0x8000
     622:	0000                	unimp
     624:	0000                	unimp
     626:	0832                	slli	a6,a6,0xc
     628:	8000                	.insn	2, 0x8000
     62a:	0000                	unimp
     62c:	0000                	unimp
     62e:	7202                	ld	tp,32(sp)
     630:	0100                	addi	s0,sp,128
     632:	0301                	addi	t1,t1,0
     634:	0000                	unimp
     636:	0100730f          	.insn	4, 0x0100730f
     63a:	01d6                	slli	gp,gp,0x15
     63c:	0000f41b          	.insn	4, 0xf41b
     640:	d600                	sw	s0,40(a2)
     642:	0004                	.insn	2, 0x0004
     644:	1000                	addi	s0,sp,32
     646:	0070                	addi	a2,sp,12
     648:	d801                	beqz	s0,558 <_start-0x7ffffaa8>
     64a:	0f01                	addi	t5,t5,0
     64c:	00f4                	addi	a3,sp,76
     64e:	0000                	unimp
     650:	0538                	addi	a4,sp,648
     652:	0000                	unimp
     654:	1500                	addi	s0,sp,672
     656:	d001                	beqz	s0,556 <_start-0x7ffffaaa>
     658:	0001                	nop
     65a:	0600                	addi	s0,sp,768
     65c:	0921                	addi	s2,s2,8
     65e:	da01                	beqz	a2,56e <_start-0x7ffffa92>
     660:	0000                	unimp
     662:	0100                	addi	s0,sp,128
     664:	00000367          	jalr	t1,zero # 0 <_start-0x80000000>
     668:	2f18                	fld	fa4,24(a4)
     66a:	01000003          	lb	zero,16(zero) # 10 <_start-0x7ffffff0>
     66e:	da1401c3          	fmadd.d	ft3,fs0,ft1,fs11,rne
     672:	0000                	unimp
     674:	1800                	addi	s0,sp,48
     676:	0266                	slli	tp,tp,0x19
     678:	0000                	unimp
     67a:	c301                	beqz	a4,67a <_start-0x7ffff986>
     67c:	1e01                	addi	t3,t3,-32 # 19fe0 <_start-0x7ffe6020>
     67e:	0059                	c.nop	22
     680:	0000                	unimp
     682:	6c16                	ld	s8,320(sp)
     684:	6e65                	lui	t3,0x19
     686:	0100                	addi	s0,sp,128
     688:	c02b01c3          	fmadd.s	ft3,fs6,ft2,fs8,rne
     68c:	0000                	unimp
     68e:	1900                	addi	s0,sp,176
     690:	0359                	addi	t1,t1,22
     692:	0000                	unimp
     694:	1b1a                	slli	s6,s6,0x26
     696:	01000003          	lb	zero,16(zero) # 10 <_start-0x7ffffff0>
     69a:	01c6                	slli	gp,gp,0x11
     69c:	0000af0f          	.insn	4, 0xaf0f
     6a0:	1700                	addi	s0,sp,928
     6a2:	0064                	addi	s1,sp,12
     6a4:	cb01                	beqz	a4,6b4 <_start-0x7ffff94c>
     6a6:	1001                	c.nop	-32
     6a8:	00000367          	jalr	t1,zero # 0 <_start-0x80000000>
     6ac:	1b00                	addi	s0,sp,432
     6ae:	01006417          	auipc	s0,0x1006
     6b2:	e20b01cf          	fnmadd.d	ft3,fs6,ft0,ft8,rne
     6b6:	0000                	unimp
     6b8:	0000                	unimp
     6ba:	0900                	addi	s0,sp,144
     6bc:	af08                	fsd	fa0,24(a4)
     6be:	0000                	unimp
     6c0:	1500                	addi	s0,sp,672
     6c2:	d701                	beqz	a4,5ca <_start-0x7ffffa36>
     6c4:	0002                	c.slli64	zero
     6c6:	0600                	addi	s0,sp,768
     6c8:	091f da01 0000      	.insn	6, 0xda01091f
     6ce:	0100                	addi	s0,sp,128
     6d0:	03dc                	addi	a5,sp,452
     6d2:	0000                	unimp
     6d4:	2f18                	fld	fa4,24(a4)
     6d6:	01000003          	lb	zero,16(zero) # 10 <_start-0x7ffffff0>
     6da:	da1401b3          	.insn	4, 0xda1401b3
     6de:	0000                	unimp
     6e0:	1600                	addi	s0,sp,800
     6e2:	00637273          	csrrci	tp,0x6,6
     6e6:	b301                	j	3e6 <_start-0x7ffffc1a>
     6e8:	2601                	sext.w	a2,a2
     6ea:	03dc                	addi	a5,sp,452
     6ec:	0000                	unimp
     6ee:	6c16                	ld	s8,320(sp)
     6f0:	6e65                	lui	t3,0x19
     6f2:	0100                	addi	s0,sp,128
     6f4:	c03201b3          	.insn	4, 0xc03201b3
     6f8:	0000                	unimp
     6fa:	1900                	addi	s0,sp,176
     6fc:	000003c3          	fmadd.s	ft7,ft0,ft0,ft0,rne
     700:	01007317          	auipc	t1,0x1007
     704:	01b6                	slli	gp,gp,0xd
     706:	e316                	sd	t0,384(sp)
     708:	17000003          	lb	zero,368(zero) # 170 <_start-0x7ffffe90>
     70c:	0064                	addi	s1,sp,12
     70e:	b701                	j	60e <_start-0x7ffff9f2>
     710:	1001                	c.nop	-32
     712:	00000367          	jalr	t1,zero # 0 <_start-0x80000000>
     716:	1b00                	addi	s0,sp,432
     718:	01007317          	auipc	t1,0x1007
     71c:	f41101bb          	.insn	4, 0xf41101bb
     720:	0000                	unimp
     722:	1700                	addi	s0,sp,928
     724:	0064                	addi	s1,sp,12
     726:	bc01                	j	136 <_start-0x7ffffeca>
     728:	0b01                	addi	s6,s6,0
     72a:	00e2                	slli	ra,ra,0x18
     72c:	0000                	unimp
     72e:	0000                	unimp
     730:	0809                	addi	a6,a6,2
     732:	03e2                	slli	t2,t2,0x18
     734:	0000                	unimp
     736:	091c                	addi	a5,sp,144
     738:	bb08                	fsd	fa0,48(a4)
     73a:	0000                	unimp
     73c:	1d00                	addi	s0,sp,688
     73e:	3f01                	addiw	t5,t5,-32
     740:	0002                	c.slli64	zero
     742:	0700                	addi	s0,sp,896
     744:	05fa                	slli	a1,a1,0x1e
     746:	5901                	li	s2,-32
     748:	0000                	unimp
     74a:	9600                	.insn	2, 0x9600
     74c:	0006                	c.slli	zero,0x1
     74e:	0080                	addi	s0,sp,64
     750:	0000                	unimp
     752:	d600                	sw	s0,40(a2)
     754:	0006                	c.slli	zero,0x1
     756:	0080                	addi	s0,sp,64
     758:	0000                	unimp
     75a:	9700                	.insn	2, 0x9700
     75c:	0005                	c.nop	1
     75e:	0100                	addi	s0,sp,128
     760:	000004d3          	fadd.s	fs1,ft0,ft0,rne
     764:	7274730f          	.insn	4, 0x7274730f
     768:	0100                	addi	s0,sp,128
     76a:	019f e213 0000      	.insn	6, 0xe213019f
     770:	e400                	sd	s0,8(s0)
     772:	0005                	c.nop	1
     774:	0f00                	addi	s0,sp,912
     776:	6d66                	ld	s10,88(sp)
     778:	0074                	addi	a3,sp,12
     77a:	9f01                	subw	a4,a4,s0
     77c:	2401                	sext.w	s0,s0
     77e:	00f4                	addi	a3,sp,76
     780:	0000                	unimp
     782:	061a                	slli	a2,a2,0x6
     784:	0000                	unimp
     786:	141e                	slli	s0,s0,0x27
     788:	7061                	c.lui	zero,0xffff8
     78a:	0100                	addi	s0,sp,128
     78c:	01a1                	addi	gp,gp,8 # 80001850 <__global_pointer$+0x8>
     78e:	00010d0b          	.insn	4, 0x00010d0b
     792:	0300                	addi	s0,sp,384
     794:	b891                	j	ffffffffffffffe8 <__global_pointer$+0xffffffff7fffe7a0>
     796:	0247117f a2010000 	.insn	12, 0x00e20901a20100000247117f
     79e:	00e20901 
     7a2:	0000                	unimp
     7a4:	0666                	slli	a2,a2,0x19
     7a6:	0000                	unimp
     7a8:	931f 0002 0100      	.insn	6, 0x01000002931f
     7ae:	01a5                	addi	gp,gp,9 # 80001851 <__global_pointer$+0x9>
     7b0:	0108                	addi	a0,sp,128
     7b2:	04c6                	slli	s1,s1,0x11
     7b4:	8000                	.insn	2, 0x8000
     7b6:	0000                	unimp
     7b8:	0000                	unimp
     7ba:	04d4                	addi	a3,sp,580
     7bc:	8000                	.insn	2, 0x8000
     7be:	0000                	unimp
     7c0:	0000                	unimp
     7c2:	7202                	ld	tp,32(sp)
     7c4:	0100                	addi	s0,sp,128
     7c6:	000004a3          	sb	zero,9(zero) # 9 <_start-0x7ffffff7>
     7ca:	6320                	ld	s0,64(a4)
     7cc:	0068                	addi	a0,sp,12
     7ce:	a501                	j	dce <_start-0x7ffff232>
     7d0:	1a01                	addi	s4,s4,-32
     7d2:	0059                	c.nop	22
     7d4:	0000                	unimp
     7d6:	5a01                	li	s4,-32
     7d8:	0002c113          	xori	sp,t0,0
     7dc:	0100                	addi	s0,sp,128
     7de:	01a5                	addi	gp,gp,9 # 80001851 <__global_pointer$+0x9>
     7e0:	d325                	beqz	a4,740 <_start-0x7ffff8c0>
     7e2:	0004                	.insn	2, 0x0004
     7e4:	0100                	addi	s0,sp,128
     7e6:	03cc215b          	.insn	4, 0x03cc215b
     7ea:	0000                	unimp
     7ec:	a701                	j	eec <_start-0x7ffff114>
     7ee:	0c01                	addi	s8,s8,0
     7f0:	04d9                	addi	s1,s1,22
     7f2:	0000                	unimp
     7f4:	5b01                	li	s6,-32
     7f6:	2200                	fld	fs0,0(a2)
     7f8:	06c4                	addi	s1,sp,836
     7fa:	8000                	.insn	2, 0x8000
     7fc:	0000                	unimp
     7fe:	0000                	unimp
     800:	0556                	slli	a0,a0,0x15
     802:	0000                	unimp
     804:	095a0123          	sb	s5,130(s4)
     808:	0004c603          	lbu	a2,0(s1)
     80c:	0080                	addi	s0,sp,64
     80e:	0000                	unimp
     810:	2300                	fld	fs0,0(a4)
     812:	5b01                	li	s6,-32
     814:	7fa89103          	lh	sp,2042(a7)
     818:	035c0123          	sb	s5,34(s8)
     81c:	235b01f3          	.insn	4, 0x235b01f3
     820:	5d01                	li	s10,-32
     822:	9102                	jalr	sp
     824:	0050                	addi	a2,sp,4
     826:	0900                	addi	s0,sp,144
     828:	da08                	sw	a0,48(a2)
     82a:	0000                	unimp
     82c:	0900                	addi	s0,sp,144
     82e:	e208                	sd	a0,0(a2)
     830:	0000                	unimp
     832:	1d00                	addi	s0,sp,688
     834:	4001                	c.li	zero,0
     836:	0002                	c.slli64	zero
     838:	0700                	addi	s0,sp,896
     83a:	05ce                	slli	a1,a1,0x13
     83c:	5901                	li	s2,-32
     83e:	0000                	unimp
     840:	6400                	ld	s0,8(s0)
     842:	0006                	c.slli	zero,0x1
     844:	0080                	addi	s0,sp,64
     846:	0000                	unimp
     848:	9600                	.insn	2, 0x9600
     84a:	0006                	c.slli	zero,0x1
     84c:	0080                	addi	s0,sp,64
     84e:	0000                	unimp
     850:	9f00                	.insn	2, 0x9f00
     852:	0006                	c.slli	zero,0x1
     854:	0100                	addi	s0,sp,128
     856:	0556                	slli	a0,a0,0x15
     858:	0000                	unimp
     85a:	746d660f          	.insn	4, 0x746d660f
     85e:	0100                	addi	s0,sp,128
     860:	0194                	addi	a3,sp,192
     862:	f418                	sd	a4,40(s0)
     864:	0000                	unimp
     866:	ec00                	sd	s0,24(s0)
     868:	0006                	c.slli	zero,0x1
     86a:	1e00                	addi	s0,sp,816
     86c:	6114                	ld	a3,0(a0)
     86e:	0070                	addi	a2,sp,12
     870:	9601                	srai	a2,a2,0x20
     872:	0b01                	addi	s6,s6,0
     874:	010d                	addi	sp,sp,3
     876:	0000                	unimp
     878:	7fa89103          	lh	sp,2042(a7)
     87c:	8e22                	mv	t3,s0
     87e:	0006                	c.slli	zero,0x1
     880:	0080                	addi	s0,sp,64
     882:	0000                	unimp
     884:	5600                	lw	s0,40(a2)
     886:	0005                	c.nop	1
     888:	2300                	fld	fs0,0(a4)
     88a:	5a01                	li	s4,-32
     88c:	0309                	addi	t1,t1,2 # 100771a <_start-0x7eff88e6>
     88e:	01d0                	addi	a2,sp,196
     890:	8000                	.insn	2, 0x8000
     892:	0000                	unimp
     894:	0000                	unimp
     896:	015b0123          	sb	s5,2(s6)
     89a:	2330                	fld	fa2,64(a4)
     89c:	5c01                	li	s8,-32
     89e:	5a01f303          	.insn	4, 0x5a01f303
     8a2:	025d0123          	sb	t0,34(s10) # 2b1ee <_start-0x7ffd4e12>
     8a6:	4891                	li	a7,4
     8a8:	0000                	unimp
     8aa:	a624                	fsd	fs1,72(a2)
     8ac:	0001                	nop
     8ae:	0100                	addi	s0,sp,128
     8b0:	0dfd                	addi	s11,s11,31
     8b2:	f001                	bnez	s0,7b2 <_start-0x7ffff84e>
     8b4:	0001                	nop
     8b6:	0080                	addi	s0,sp,64
     8b8:	0000                	unimp
     8ba:	c600                	sw	s0,8(a2)
     8bc:	0004                	.insn	2, 0x0004
     8be:	0080                	addi	s0,sp,64
     8c0:	0000                	unimp
     8c2:	3800                	fld	fs0,48(s0)
     8c4:	01000007          	.insn	4, 0x01000007
     8c8:	08b6                	slli	a7,a7,0xd
     8ca:	0000                	unimp
     8cc:	9b25                	andi	a4,a4,-23
     8ce:	0002                	c.slli64	zero
     8d0:	0100                	addi	s0,sp,128
     8d2:	1efd                	addi	t4,t4,-1
     8d4:	000008c7          	fmsub.s	fa7,ft0,ft0,ft0,rne
     8d8:	079a                	slli	a5,a5,0x6
     8da:	0000                	unimp
     8dc:	8c25                	xor	s0,s0,s1
     8de:	0001                	nop
     8e0:	0100                	addi	s0,sp,128
     8e2:	3afd                	addiw	s5,s5,-1
     8e4:	000004d3          	fadd.s	fs1,ft0,ft0,rne
     8e8:	07f9                	addi	a5,a5,30
     8ea:	0000                	unimp
     8ec:	6626                	ld	a2,72(sp)
     8ee:	746d                	lui	s0,0xffffb
     8f0:	0100                	addi	s0,sp,128
     8f2:	4efd                	li	t4,31
     8f4:	00f4                	addi	a3,sp,76
     8f6:	0000                	unimp
     8f8:	0858                	addi	a4,sp,20
     8fa:	0000                	unimp
     8fc:	6126                	ld	sp,72(sp)
     8fe:	0070                	addi	a2,sp,12
     900:	fd01                	bnez	a0,818 <_start-0x7ffff7e8>
     902:	00010d5b          	.insn	4, 0x00010d5b
     906:	4c00                	lw	s0,24(s0)
     908:	0009                	c.nop	2
     90a:	2700                	fld	fs0,8(a4)
     90c:	0070                	addi	a2,sp,12
     90e:	ff01                	bnez	a4,826 <_start-0x7ffff7da>
     910:	f418                	sd	a4,40(s0)
     912:	0000                	unimp
     914:	cf00                	sw	s0,24(a4)
     916:	000a                	c.slli	zero,0x2
     918:	1100                	addi	s0,sp,160
     91a:	0326                	slli	t1,t1,0x9
     91c:	0000                	unimp
     91e:	0001                	nop
     920:	0f01                	addi	t5,t5,0
     922:	00f4                	addi	a3,sp,76
     924:	0000                	unimp
     926:	0b34                	addi	a3,sp,408
     928:	0000                	unimp
     92a:	6310                	ld	a2,0(a4)
     92c:	0068                	addi	a0,sp,12
     92e:	0101                	addi	sp,sp,0
     930:	1001                	c.nop	-32
     932:	0059                	c.nop	22
     934:	0000                	unimp
     936:	0bdc                	addi	a5,sp,468
     938:	0000                	unimp
     93a:	72726517          	auipc	a0,0x72726
     93e:	0100                	addi	s0,sp,128
     940:	0101                	addi	sp,sp,0
     942:	5914                	lw	a3,48(a0)
     944:	0000                	unimp
     946:	1000                	addi	s0,sp,32
     948:	756e                	ld	a0,248(sp)
     94a:	006d                	c.nop	27
     94c:	0201                	addi	tp,tp,0 # 0 <_start-0x80000000>
     94e:	1601                	addi	a2,a2,-32
     950:	00fa                	slli	ra,ra,0x1e
     952:	0000                	unimp
     954:	0cc4                	addi	s1,sp,596
     956:	0000                	unimp
     958:	e711                	bnez	a4,964 <_start-0x7ffff69c>
     95a:	0002                	c.slli64	zero
     95c:	0100                	addi	s0,sp,128
     95e:	59070103          	lb	sp,1424(a4) # 1590 <_start-0x7fffea70>
     962:	0000                	unimp
     964:	3300                	fld	fs0,32(a4)
     966:	000d                	c.nop	3
     968:	1100                	addi	s0,sp,160
     96a:	0320                	addi	s0,sp,392
     96c:	0000                	unimp
     96e:	0301                	addi	t1,t1,0
     970:	0d01                	addi	s10,s10,0
     972:	0059                	c.nop	22
     974:	0000                	unimp
     976:	00000d57          	.insn	4, 0x0d57
     97a:	b311                	j	67e <_start-0x7ffff982>
     97c:	0002                	c.slli64	zero
     97e:	0100                	addi	s0,sp,128
     980:	59140103          	lb	sp,1425(s0) # ffffffffffffb591 <__global_pointer$+0xffffffff7fff9d49>
     984:	0000                	unimp
     986:	2700                	fld	fs0,8(a4)
     988:	000e                	c.slli	zero,0x3
     98a:	1100                	addi	s0,sp,160
     98c:	0282                	c.slli64	t0
     98e:	0000                	unimp
     990:	0301                	addi	t1,t1,0
     992:	1b01                	addi	s6,s6,-32
     994:	0059                	c.nop	22
     996:	0000                	unimp
     998:	00000f57          	.insn	4, 0x0f57
     99c:	d711                	beqz	a4,8a8 <_start-0x7ffff758>
     99e:	0001                	nop
     9a0:	0100                	addi	s0,sp,128
     9a2:	59260103          	lb	sp,1426(a2)
     9a6:	0000                	unimp
     9a8:	7400                	ld	s0,40(s0)
     9aa:	0010                	.insn	2, 0x0010
     9ac:	1100                	addi	s0,sp,160
     9ae:	03f2                	slli	t2,t2,0x1c
     9b0:	0000                	unimp
     9b2:	0401                	addi	s0,s0,0
     9b4:	0801                	addi	a6,a6,0
     9b6:	00e8                	addi	a0,sp,76
     9b8:	0000                	unimp
     9ba:	10ac                	addi	a1,sp,104
     9bc:	0000                	unimp
     9be:	d128                	sw	a0,96(a0)
     9c0:	01000003          	lb	zero,16(zero) # 10 <_start-0x7ffffff0>
     9c4:	0116                	slli	sp,sp,0x5
     9c6:	027a2903          	lw	s2,39(s4)
     9ca:	0000                	unimp
     9cc:	4201                	li	tp,0
     9ce:	0501                	addi	a0,a0,0 # 7272693a <_start-0xd8d96c6>
     9d0:	02da                	slli	t0,t0,0x16
     9d2:	8000                	.insn	2, 0x8000
     9d4:	0000                	unimp
     9d6:	0000                	unimp
     9d8:	f329                	bnez	a4,91a <_start-0x7ffff6e6>
     9da:	0002                	c.slli64	zero
     9dc:	0100                	addi	s0,sp,128
     9de:	0182                	c.slli64	gp
     9e0:	2205                	addiw	tp,tp,1 # 1 <_start-0x7fffffff>
     9e2:	00800003          	lb	zero,8(zero) # 8 <_start-0x7ffffff8>
     9e6:	0000                	unimp
     9e8:	2900                	fld	fs0,16(a0)
     9ea:	02f1                	addi	t0,t0,28
     9ec:	0000                	unimp
     9ee:	8001                	c.srli64	s0
     9f0:	0501                	addi	a0,a0,0
     9f2:	03bc                	addi	a5,sp,456
     9f4:	8000                	.insn	2, 0x8000
     9f6:	0000                	unimp
     9f8:	0000                	unimp
     9fa:	fd2a                	sd	a0,184(sp)
     9fc:	0008                	.insn	2, 0x0008
     9fe:	1600                	addi	s0,sp,800
     a00:	00800003          	lb	zero,8(zero) # 8 <_start-0x7ffffff8>
     a04:	0000                	unimp
     a06:	0000                	unimp
     a08:	0001                	nop
     a0a:	0100                	addi	s0,sp,128
     a0c:	0181                	addi	gp,gp,0 # 80001848 <__global_pointer$>
     a0e:	d20d                	beqz	a2,930 <_start-0x7ffff6d0>
     a10:	0006                	c.slli	zero,0x1
     a12:	2b00                	fld	fs0,16(a4)
     a14:	0000090f          	.insn	4, 0x090f
     a18:	1145                	addi	sp,sp,-15
     a1a:	0000                	unimp
     a1c:	00091a2b          	.insn	4, 0x00091a2b
     a20:	8d00                	.insn	2, 0x8d00
     a22:	0011                	c.nop	4
     a24:	0000                	unimp
     a26:	272a                	fld	fa4,136(sp)
     a28:	0009                	c.nop	2
     a2a:	2200                	fld	fs0,0(a2)
     a2c:	00800003          	lb	zero,8(zero) # 8 <_start-0x7ffffff8>
     a30:	0000                	unimp
     a32:	5000                	lw	s0,32(s0)
     a34:	0001                	nop
     a36:	0100                	addi	s0,sp,128
     a38:	60070183          	lb	gp,1536(a4)
     a3c:	2b000007          	.insn	4, 0x2b000007
     a40:	0935                	addi	s2,s2,13
     a42:	0000                	unimp
     a44:	11c4                	addi	s1,sp,228
     a46:	0000                	unimp
     a48:	0009412b          	.insn	4, 0x0009412b
     a4c:	fa00                	sd	s0,48(a2)
     a4e:	0011                	c.nop	4
     a50:	2b00                	fld	fs0,16(a4)
     a52:	094d                	addi	s2,s2,19
     a54:	0000                	unimp
     a56:	1230                	addi	a2,sp,296
     a58:	0000                	unimp
     a5a:	592c                	lw	a1,112(a0)
     a5c:	0009                	c.nop	2
     a5e:	2b00                	fld	fs0,16(a4)
     a60:	0965                	addi	s2,s2,25
     a62:	0000                	unimp
     a64:	1266                	slli	tp,tp,0x39
     a66:	0000                	unimp
     a68:	0009712b          	.insn	4, 0x0009712b
     a6c:	c200                	sw	s0,0(a2)
     a6e:	0012                	c.slli	zero,0x4
     a70:	2d00                	fld	fs0,24(a0)
     a72:	0150                	addi	a2,sp,132
     a74:	0000                	unimp
     a76:	7d2e                	ld	s10,232(sp)
     a78:	0009                	c.nop	2
     a7a:	0300                	addi	s0,sp,384
     a7c:	9091                	srli	s1,s1,0x24
     a7e:	2f7d                	addiw	t5,t5,31
     a80:	0989                	addi	s3,s3,2
     a82:	0000                	unimp
     a84:	12f8                	addi	a4,sp,364
     a86:	0000                	unimp
     a88:	5e30                	lw	a2,120(a2)
     a8a:	00800003          	lb	zero,8(zero) # 8 <_start-0x7ffffff8>
     a8e:	0000                	unimp
     a90:	4e00                	lw	s0,24(a2)
     a92:	23000007          	.insn	4, 0x23000007
     a96:	5a01                	li	s4,-32
     a98:	8302                	jr	t1
     a9a:	2300                	fld	fs0,0(a4)
     a9c:	5b01                	li	s6,-32
     a9e:	7902                	ld	s2,32(sp)
     aa0:	0000                	unimp
     aa2:	8631                	srai	a2,a2,0xc
     aa4:	00800003          	lb	zero,8(zero) # 8 <_start-0x7ffffff8>
     aa8:	0000                	unimp
     aaa:	2300                	fld	fs0,0(a4)
     aac:	5b01                	li	s6,-32
     aae:	7902                	ld	s2,32(sp)
     ab0:	0000                	unimp
     ab2:	0000                	unimp
     ab4:	cd2a                	sw	a0,152(sp)
     ab6:	0008                	.insn	2, 0x0008
     ab8:	9000                	.insn	2, 0x9000
     aba:	00800003          	lb	zero,8(zero) # 8 <_start-0x7ffffff8>
     abe:	0000                	unimp
     ac0:	9000                	.insn	2, 0x9000
     ac2:	0001                	nop
     ac4:	0100                	addi	s0,sp,128
     ac6:	0162                	slli	sp,sp,0x18
     ac8:	8c0d                	sub	s0,s0,a1
     aca:	2b000007          	.insn	4, 0x2b000007
     ace:	08df 0000 1343      	.insn	6, 0x1343000008df
     ad4:	0000                	unimp
     ad6:	0008ea2b          	.insn	4, 0x0008ea2b
     ada:	8b00                	.insn	2, 0x8b00
     adc:	00000013          	nop
     ae0:	872a                	mv	a4,a0
     ae2:	0002                	c.slli64	zero
     ae4:	4200                	lw	s0,0(a2)
     ae6:	0004                	.insn	2, 0x0004
     ae8:	0080                	addi	s0,sp,64
     aea:	0000                	unimp
     aec:	d000                	sw	s0,32(s0)
     aee:	0001                	nop
     af0:	0100                	addi	s0,sp,128
     af2:	0156                	slli	sp,sp,0x15
     af4:	0007c717          	auipc	a4,0x7c
     af8:	2b00                	fld	fs0,16(a4)
     afa:	029a                	slli	t0,t0,0x6
     afc:	0000                	unimp
     afe:	13c1                	addi	t2,t2,-16
     b00:	0000                	unimp
     b02:	0002a52b          	.insn	4, 0x0002a52b
     b06:	ed00                	sd	s0,24(a0)
     b08:	2d000013          	li	zero,720
     b0c:	01d0                	addi	a2,sp,196
     b0e:	0000                	unimp
     b10:	0002b02f          	amoadd.d	zero,zero,(t0)
     b14:	3400                	fld	fs0,40(s0)
     b16:	0014                	.insn	2, 0x0014
     b18:	0000                	unimp
     b1a:	3000                	fld	fs0,32(s0)
     b1c:	0228                	addi	a0,sp,264
     b1e:	8000                	.insn	2, 0x8000
     b20:	0000                	unimp
     b22:	0000                	unimp
     b24:	000007db          	.insn	4, 0x07db
     b28:	025b0123          	sb	t0,34(s6)
     b2c:	0079                	c.nop	30
     b2e:	3000                	fld	fs0,32(s0)
     b30:	029a                	slli	t0,t0,0x6
     b32:	8000                	.insn	2, 0x8000
     b34:	0000                	unimp
     b36:	0000                	unimp
     b38:	07f5                	addi	a5,a5,29
     b3a:	0000                	unimp
     b3c:	025a0123          	sb	t0,34(s4)
     b40:	0084                	addi	s1,sp,64
     b42:	025b0123          	sb	t0,34(s6)
     b46:	0079                	c.nop	30
     b48:	3000                	fld	fs0,32(s0)
     b4a:	02f4                	addi	a3,sp,332
     b4c:	8000                	.insn	2, 0x8000
     b4e:	0000                	unimp
     b50:	0000                	unimp
     b52:	0000080f          	.insn	4, 0x080f
     b56:	025a0123          	sb	t0,34(s4)
     b5a:	0084                	addi	s1,sp,64
     b5c:	025b0123          	sb	t0,34(s6)
     b60:	0079                	c.nop	30
     b62:	3000                	fld	fs0,32(s0)
     b64:	030e                	slli	t1,t1,0x3
     b66:	8000                	.insn	2, 0x8000
     b68:	0000                	unimp
     b6a:	0000                	unimp
     b6c:	0829                	addi	a6,a6,10
     b6e:	0000                	unimp
     b70:	025a0123          	sb	t0,34(s4)
     b74:	3008                	fld	fa0,32(s0)
     b76:	025b0123          	sb	t0,34(s6)
     b7a:	0079                	c.nop	30
     b7c:	3000                	fld	fs0,32(s0)
     b7e:	0316                	slli	t1,t1,0x5
     b80:	8000                	.insn	2, 0x8000
     b82:	0000                	unimp
     b84:	0000                	unimp
     b86:	00000843          	fmadd.s	fa6,ft0,ft0,ft0,rne
     b8a:	025a0123          	sb	t0,34(s4)
     b8e:	7808                	ld	a0,48(s0)
     b90:	025b0123          	sb	t0,34(s6)
     b94:	0079                	c.nop	30
     b96:	3000                	fld	fs0,32(s0)
     b98:	03fc                	addi	a5,sp,460
     b9a:	8000                	.insn	2, 0x8000
     b9c:	0000                	unimp
     b9e:	0000                	unimp
     ba0:	00000857          	.insn	4, 0x0857
     ba4:	025b0123          	sb	t0,34(s6)
     ba8:	0079                	c.nop	30
     baa:	3000                	fld	fs0,32(s0)
     bac:	0414                	addi	a3,sp,512
     bae:	8000                	.insn	2, 0x8000
     bb0:	0000                	unimp
     bb2:	0000                	unimp
     bb4:	0871                	addi	a6,a6,28
     bb6:	0000                	unimp
     bb8:	025a0123          	sb	t0,34(s4)
     bbc:	2008                	fld	fa0,0(s0)
     bbe:	025b0123          	sb	t0,34(s6)
     bc2:	0079                	c.nop	30
     bc4:	3000                	fld	fs0,32(s0)
     bc6:	0470                	addi	a2,sp,524
     bc8:	8000                	.insn	2, 0x8000
     bca:	0000                	unimp
     bcc:	0000                	unimp
     bce:	0000088b          	.insn	4, 0x088b
     bd2:	025a0123          	sb	t0,34(s4)
     bd6:	0089                	addi	ra,ra,2
     bd8:	025b0123          	sb	t0,34(s6)
     bdc:	0079                	c.nop	30
     bde:	3000                	fld	fs0,32(s0)
     be0:	049c                	addi	a5,sp,576
     be2:	8000                	.insn	2, 0x8000
     be4:	0000                	unimp
     be6:	0000                	unimp
     be8:	089f 0000 0123      	.insn	6, 0x01230000089f
     bee:	0079025b          	.insn	4, 0x0079025b
     bf2:	3100                	fld	fs0,32(a0)
     bf4:	04bc                	addi	a5,sp,584
     bf6:	8000                	.insn	2, 0x8000
     bf8:	0000                	unimp
     bfa:	0000                	unimp
     bfc:	025a0123          	sb	t0,34(s4)
     c00:	2d08                	fld	fa0,24(a0)
     c02:	025b0123          	sb	t0,34(s6)
     c06:	0079                	c.nop	30
     c08:	0000                	unimp
     c0a:	0132                	slli	sp,sp,0xc
     c0c:	000008c7          	fmsub.s	fa7,ft0,ft0,ft0,rne
     c10:	00005933          	srl	s2,zero,zero
     c14:	3300                	fld	fs0,32(a4)
     c16:	000004d3          	fadd.s	fs1,ft0,ft0,rne
     c1a:	0900                	addi	s0,sp,144
     c1c:	b608                	fsd	fa0,40(a2)
     c1e:	0008                	.insn	2, 0x0008
     c20:	3400                	fld	fs0,40(s0)
     c22:	0349                	addi	t1,t1,18
     c24:	0000                	unimp
     c26:	f301                	bnez	a4,b26 <_start-0x7ffff4da>
     c28:	0112                	slli	sp,sp,0x4
     c2a:	00cc                	addi	a1,sp,68
     c2c:	0000                	unimp
     c2e:	f701                	bnez	a4,b36 <_start-0x7ffff4ca>
     c30:	0008                	.insn	2, 0x0008
     c32:	3500                	fld	fs0,40(a0)
     c34:	7061                	c.lui	zero,0xffff8
     c36:	0100                	addi	s0,sp,128
     c38:	08f722f3          	csrrs	t0,0x8f,a4
     c3c:	0000                	unimp
     c3e:	2036                	fld	ft0,328(sp)
     c40:	01000003          	lb	zero,16(zero) # 10 <_start-0x7ffffff0>
     c44:	00592af3          	csrrs	s5,utvec,s2
     c48:	0000                	unimp
     c4a:	0900                	addi	s0,sp,144
     c4c:	0d08                	addi	a0,sp,656
     c4e:	0001                	nop
     c50:	3400                	fld	fs0,40(s0)
     c52:	02b9                	addi	t0,t0,14
     c54:	0000                	unimp
     c56:	e901                	bnez	a0,c66 <_start-0x7ffff39a>
     c58:	00fa011b          	addiw	sp,s4,15
     c5c:	0000                	unimp
     c5e:	2701                	sext.w	a4,a4
     c60:	0009                	c.nop	2
     c62:	3500                	fld	fs0,40(a0)
     c64:	7061                	c.lui	zero,0xffff8
     c66:	0100                	addi	s0,sp,128
     c68:	2ce9                	addiw	s9,s9,26
     c6a:	000008f7          	.insn	4, 0x08f7
     c6e:	2036                	fld	ft0,328(sp)
     c70:	01000003          	lb	zero,16(zero) # 10 <_start-0x7ffffff0>
     c74:	34e9                	addiw	s1,s1,-6
     c76:	0059                	c.nop	22
     c78:	0000                	unimp
     c7a:	3700                	fld	fs0,40(a4)
     c7c:	03b2                	slli	t2,t2,0xc
     c7e:	0000                	unimp
     c80:	d401                	beqz	s0,b88 <_start-0x7ffff478>
     c82:	0114                	addi	a3,sp,128
     c84:	00099603          	lh	a2,0(s3)
     c88:	3600                	fld	fs0,40(a2)
     c8a:	0000029b          	sext.w	t0,zero
     c8e:	d401                	beqz	s0,b96 <_start-0x7ffff46a>
     c90:	c724                	sw	s1,72(a4)
     c92:	0008                	.insn	2, 0x0008
     c94:	3600                	fld	fs0,40(a2)
     c96:	018c                	addi	a1,sp,192
     c98:	0000                	unimp
     c9a:	d401                	beqz	s0,ba2 <_start-0x7ffff45e>
     c9c:	d340                	sw	s0,36(a4)
     c9e:	0004                	.insn	2, 0x0004
     ca0:	3500                	fld	fs0,40(a0)
     ca2:	756e                	ld	a0,248(sp)
     ca4:	006d                	c.nop	27
     ca6:	d501                	beqz	a0,bae <_start-0x7ffff452>
     ca8:	fa28                	sd	a0,112(a2)
     caa:	0000                	unimp
     cac:	3600                	fld	fs0,40(a2)
     cae:	000002e7          	jalr	t0,zero # 0 <_start-0x80000000>
     cb2:	d501                	beqz	a0,bba <_start-0x7ffff446>
     cb4:	6036                	.insn	2, 0x6036
     cb6:	0000                	unimp
     cb8:	3600                	fld	fs0,40(a2)
     cba:	000002b3          	add	t0,zero,zero
     cbe:	d501                	beqz	a0,bc6 <_start-0x7ffff43a>
     cc0:	5940                	lw	s0,52(a0)
     cc2:	0000                	unimp
     cc4:	3600                	fld	fs0,40(a2)
     cc6:	03f2                	slli	t2,t2,0x1c
     cc8:	0000                	unimp
     cca:	d501                	beqz	a0,bd2 <_start-0x7ffff42e>
     ccc:	0000594b          	fnmsub.s	fs2,ft0,ft0,ft0,unknown
     cd0:	3800                	fld	fs0,48(s0)
     cd2:	0258                	addi	a4,sp,260
     cd4:	0000                	unimp
     cd6:	d701                	beqz	a4,bde <_start-0x7ffff422>
     cd8:	960c                	.insn	2, 0x960c
     cda:	0009                	c.nop	2
     cdc:	3900                	fld	fs0,48(a0)
     cde:	6f70                	ld	a2,216(a4)
     ce0:	d8010073          	.insn	4, 0xd8010073
     ce4:	00005907          	.insn	4, 0x5907
     ce8:	0000                	unimp
     cea:	0000600b          	.insn	4, 0x600b
     cee:	a600                	fsd	fs0,8(a2)
     cf0:	0009                	c.nop	2
     cf2:	0c00                	addi	s0,sp,528
     cf4:	007a                	c.slli	zero,0x1e
     cf6:	0000                	unimp
     cf8:	013a003f 00000385 	.insn	8, 0x0385013a003f
     d00:	c601                	beqz	a2,d08 <_start-0x7ffff2f8>
     d02:	0106                	slli	sp,sp,0x1
     d04:	0604                	addi	s1,sp,768
     d06:	8000                	.insn	2, 0x8000
     d08:	0000                	unimp
     d0a:	0000                	unimp
     d0c:	0664                	addi	s1,sp,780
     d0e:	8000                	.insn	2, 0x8000
     d10:	0000                	unimp
     d12:	0000                	unimp
     d14:	00001473          	csrrw	s0,ustatus,zero
     d18:	6701                	.insn	2, 0x6701
     d1a:	000a                	c.slli	zero,0x2
     d1c:	2600                	fld	fs0,8(a2)
     d1e:	0078                	addi	a4,sp,12
     d20:	c601                	beqz	a2,d28 <_start-0x7ffff2d8>
     d22:	9e18                	.insn	2, 0x9e18
     d24:	0000                	unimp
     d26:	bf00                	fsd	fs0,56(a4)
     d28:	0014                	.insn	2, 0x0014
     d2a:	3b00                	fld	fs0,48(a4)
     d2c:	00727473          	csrrci	s0,0x7,4
     d30:	c801                	beqz	s0,d40 <_start-0x7ffff2c0>
     d32:	6708                	ld	a0,8(a4)
     d34:	000a                	c.slli	zero,0x2
     d36:	0200                	addi	s0,sp,256
     d38:	6891                	lui	a7,0x4
     d3a:	01006927          	.insn	4, 0x01006927
     d3e:	07c9                	addi	a5,a5,18
     d40:	0059                	c.nop	22
     d42:	0000                	unimp
     d44:	14f5                	addi	s1,s1,-3
     d46:	0000                	unimp
     d48:	e03c                	sd	a5,64(s0)
     d4a:	000e                	c.slli	zero,0x3
     d4c:	3400                	fld	fs0,40(s0)
     d4e:	0006                	c.slli	zero,0x1
     d50:	0080                	addi	s0,sp,64
     d52:	0000                	unimp
     d54:	6000                	ld	s0,0(s0)
     d56:	01000003          	lb	zero,16(zero) # 10 <_start-0x7ffffff0>
     d5a:	03d1                	addi	t2,t2,20
     d5c:	000eef2b          	.insn	4, 0x000eef2b
     d60:	6500                	ld	s0,8(a0)
     d62:	0015                	c.nop	5
     d64:	3c00                	fld	fs0,56(s0)
     d66:	10ac                	addi	a1,sp,104
     d68:	0000                	unimp
     d6a:	0634                	addi	a3,sp,776
     d6c:	8000                	.insn	2, 0x8000
     d6e:	0000                	unimp
     d70:	0000                	unimp
     d72:	0360                	addi	s0,sp,396
     d74:	0000                	unimp
     d76:	7801                	lui	a6,0xfffe0
     d78:	10bf2b03          	lw	s6,267(t5)
     d7c:	0000                	unimp
     d7e:	15b2                	slli	a1,a1,0x2c
     d80:	0000                	unimp
     d82:	193c                	addi	a5,sp,184
     d84:	0011                	c.nop	4
     d86:	3e00                	fld	fs0,56(a2)
     d88:	0006                	c.slli	zero,0x1
     d8a:	0080                	addi	s0,sp,64
     d8c:	0000                	unimp
     d8e:	9000                	.insn	2, 0x9000
     d90:	01000003          	lb	zero,16(zero) # 10 <_start-0x7ffffff0>
     d94:	0930                	addi	a2,sp,152
     d96:	0011282b          	.insn	4, 0x0011282b
     d9a:	e800                	sd	s0,16(s0)
     d9c:	0015                	c.nop	5
     d9e:	2d00                	fld	fs0,24(a0)
     da0:	0390                	addi	a2,sp,448
     da2:	0000                	unimp
     da4:	0011322f          	amoadd.d	tp,ra,(sp)
     da8:	0b00                	addi	s0,sp,400
     daa:	0016                	c.slli	zero,0x5
     dac:	2f00                	fld	fs0,24(a4)
     dae:	113e                	slli	sp,sp,0x2f
     db0:	0000                	unimp
     db2:	1631                	addi	a2,a2,-20
     db4:	0000                	unimp
     db6:	0000                	unimp
     db8:	0000                	unimp
     dba:	0b00                	addi	s0,sp,400
     dbc:	00e8                	addi	a0,sp,76
     dbe:	0000                	unimp
     dc0:	00000a77          	.insn	4, 0x0a77
     dc4:	7a0c                	ld	a1,48(a2)
     dc6:	0000                	unimp
     dc8:	1000                	addi	s0,sp,32
     dca:	1200                	addi	s0,sp,288
     dcc:	3001                	.insn	2, 0x3001
     dce:	0002                	c.slli64	zero
     dd0:	0700                	addi	s0,sp,896
     dd2:	05e2                	slli	a1,a1,0x18
     dd4:	5901                	li	s2,-32
     dd6:	0000                	unimp
     dd8:	d000                	sw	s0,32(s0)
     dda:	0001                	nop
     ddc:	0080                	addi	s0,sp,64
     dde:	0000                	unimp
     de0:	f000                	sd	s0,32(s0)
     de2:	0001                	nop
     de4:	0080                	addi	s0,sp,64
     de6:	0000                	unimp
     de8:	0200                	addi	s0,sp,256
     dea:	0072                	c.slli	zero,0x1c
     dec:	e301                	bnez	a4,dec <_start-0x7ffff214>
     dee:	000a                	c.slli	zero,0x2
     df0:	2600                	fld	fs0,8(a2)
     df2:	01006863          	bltu	zero,a6,e02 <_start-0x7ffff1fe>
     df6:	11b1                	addi	gp,gp,-20 # 80001834 <_tbss_end+0x56c>
     df8:	0059                	c.nop	22
     dfa:	0000                	unimp
     dfc:	1659                	addi	a2,a2,-10
     dfe:	0000                	unimp
     e00:	193c                	addi	a5,sp,184
     e02:	0011                	c.nop	4
     e04:	d000                	sw	s0,32(s0)
     e06:	0001                	nop
     e08:	0080                	addi	s0,sp,64
     e0a:	0000                	unimp
     e0c:	d000                	sw	s0,32(s0)
     e0e:	0000                	unimp
     e10:	0100                	addi	s0,sp,128
     e12:	03b5                	addi	t2,t2,13
     e14:	0011282b          	.insn	4, 0x0011282b
     e18:	9200                	.insn	2, 0x9200
     e1a:	0016                	c.slli	zero,0x5
     e1c:	2d00                	fld	fs0,24(a0)
     e1e:	00d0                	addi	a2,sp,68
     e20:	0000                	unimp
     e22:	323d                	addiw	tp,tp,-17 # ffffffffffffffef <__global_pointer$+0xffffffff7fffe7a7>
     e24:	0011                	c.nop	4
     e26:	0000                	unimp
     e28:	0000                	unimp
     e2a:	3d10                	fld	fa2,56(a0)
     e2c:	113e                	slli	sp,sp,0x2f
     e2e:	0000                	unimp
     e30:	0005                	c.nop	1
     e32:	1000                	addi	s0,sp,32
     e34:	0000                	unimp
     e36:	3a00                	fld	fs0,48(a2)
     e38:	9701                	srai	a4,a4,0x20
     e3a:	01000003          	lb	zero,16(zero) # 10 <_start-0x7ffffff0>
     e3e:	069c                	addi	a5,sp,832
     e40:	6001                	.insn	2, 0x6001
     e42:	00800007          	.insn	4, 0x00800007
     e46:	0000                	unimp
     e48:	1800                	addi	s0,sp,48
     e4a:	0008                	.insn	2, 0x0008
     e4c:	0080                	addi	s0,sp,64
     e4e:	0000                	unimp
     e50:	b500                	fsd	fs0,40(a0)
     e52:	0016                	c.slli	zero,0x5
     e54:	0100                	addi	s0,sp,128
     e56:	0d06                	slli	s10,s10,0x1
     e58:	0000                	unimp
     e5a:	6326                	ld	t1,72(sp)
     e5c:	6469                	lui	s0,0x1a
     e5e:	0100                	addi	s0,sp,128
     e60:	109c                	addi	a5,sp,96
     e62:	0059                	c.nop	22
     e64:	0000                	unimp
     e66:	16ee                	slli	a3,a3,0x3b
     e68:	0000                	unimp
     e6a:	6e26                	ld	t3,72(sp)
     e6c:	9c010063          	beqz	sp,2c <_start-0x7fffffd4>
     e70:	5919                	li	s2,-26
     e72:	0000                	unimp
     e74:	3a00                	fld	fs0,48(a2)
     e76:	3b000017          	auipc	zero,0x3b000
     e7a:	6572                	ld	a0,280(sp)
     e7c:	0074                	addi	a3,sp,12
     e7e:	a301                	j	137e <_start-0x7fffec82>
     e80:	00005907          	.insn	4, 0x5907
     e84:	0100                	addi	s0,sp,128
     e86:	3e59                	addiw	t3,t3,-10 # 18ff6 <_start-0x7ffe700a>
     e88:	7562                	ld	a0,56(sp)
     e8a:	0066                	c.slli	zero,0x19
     e8c:	a501                	j	148c <_start-0x7fffeb74>
     e8e:	0608                	addi	a0,sp,768
     e90:	000d                	c.nop	3
     e92:	4000                	lw	s0,0(s0)
     e94:	7802                	ld	a6,32(sp)
     e96:	3f00                	fld	fs0,56(a4)
     e98:	019a                	slli	gp,gp,0x6
     e9a:	0000                	unimp
     e9c:	a601                	j	119c <_start-0x7fffee64>
     e9e:	e209                	bnez	a2,ea0 <_start-0x7ffff160>
     ea0:	0000                	unimp
     ea2:	8600                	.insn	2, 0x8600
     ea4:	40000017          	auipc	zero,0x40000
     ea8:	04a0                	addi	s0,sp,584
     eaa:	0000                	unimp
     eac:	0bb1                	addi	s7,s7,12
     eae:	0000                	unimp
     eb0:	01006927          	.insn	4, 0x01006927
     eb4:	00590ca7          	.insn	4, 0x00590ca7
     eb8:	0000                	unimp
     eba:	17f5                	addi	a5,a5,-3
     ebc:	0000                	unimp
     ebe:	ec41                	bnez	s0,f56 <_start-0x7ffff0aa>
     ec0:	00800007          	.insn	4, 0x00800007
     ec4:	0000                	unimp
     ec6:	e900                	sd	s0,16(a0)
     ec8:	8f000003          	lb	zero,-1808(zero) # fffffffffffff8f0 <__global_pointer$+0xffffffff7fffe0a8>
     ecc:	2300000b          	.insn	4, 0x2300000b
     ed0:	5a01                	li	s4,-32
     ed2:	8302                	jr	t1
     ed4:	2300                	fld	fs0,0(a4)
     ed6:	5b01                	li	s6,-32
     ed8:	0309                	addi	t1,t1,2
     eda:	10a8                	addi	a0,sp,104
     edc:	8000                	.insn	2, 0x8000
     ede:	0000                	unimp
     ee0:	0000                	unimp
     ee2:	2200                	fld	fs0,0(a2)
     ee4:	080c                	addi	a1,sp,16
     ee6:	8000                	.insn	2, 0x8000
     ee8:	0000                	unimp
     eea:	0000                	unimp
     eec:	03e9                	addi	t2,t2,26
     eee:	0000                	unimp
     ef0:	025a0123          	sb	t0,34(s4)
     ef4:	0078                	addi	a4,sp,12
     ef6:	095b0123          	sb	s5,130(s6)
     efa:	0010a803          	lw	a6,1(ra)
     efe:	0080                	addi	s0,sp,64
     f00:	0000                	unimp
     f02:	0000                	unimp
     f04:	4200                	lw	s0,0(a2)
     f06:	0d16                	slli	s10,s10,0x5
     f08:	0000                	unimp
     f0a:	0760                	addi	s0,sp,908
     f0c:	8000                	.insn	2, 0x8000
     f0e:	0000                	unimp
     f10:	0000                	unimp
     f12:	0430                	addi	a2,sp,520
     f14:	0000                	unimp
     f16:	9e01                	subw	a2,a2,s0
     f18:	000c3503          	ld	a0,0(s8)
     f1c:	2d00                	fld	fs0,24(a0)
     f1e:	0430                	addi	a2,sp,520
     f20:	0000                	unimp
     f22:	232e                	fld	ft6,200(sp)
     f24:	000d                	c.nop	3
     f26:	0100                	addi	s0,sp,128
     f28:	2f54                	fld	fa3,152(a4)
     f2a:	0d59                	addi	s10,s10,22
     f2c:	0000                	unimp
     f2e:	187d                	addi	a6,a6,-1 # fffffffffffdffff <__global_pointer$+0xffffffff7ffde7b7>
     f30:	0000                	unimp
     f32:	000d652f          	.insn	4, 0x000d652f
     f36:	a000                	fsd	fs0,0(s0)
     f38:	0018                	.insn	2, 0x0018
     f3a:	4300                	lw	s0,0(a4)
     f3c:	00000d2f          	.insn	4, 0x0d2f
     f40:	4301                	li	t1,0
     f42:	0d3d                	addi	s10,s10,15
     f44:	0000                	unimp
     f46:	4301                	li	t1,0
     f48:	00000d4b          	fnmsub.s	fs10,ft0,ft0,ft0,rne
     f4c:	4101                	li	sp,0
     f4e:	078c                	addi	a1,sp,960
     f50:	8000                	.insn	2, 0x8000
     f52:	0000                	unimp
     f54:	0000                	unimp
     f56:	1489                	addi	s1,s1,-30
     f58:	0000                	unimp
     f5a:	00000c17          	auipc	s8,0x0
     f5e:	025a0123          	sb	t0,34(s4)
     f62:	0085                	addi	ra,ra,1
     f64:	025c0123          	sb	t0,34(s8) # f7c <_start-0x7ffff084>
     f68:	0084                	addi	s1,sp,64
     f6a:	2200                	fld	fs0,0(a2)
     f6c:	079e                	slli	a5,a5,0x7
     f6e:	8000                	.insn	2, 0x8000
     f70:	0000                	unimp
     f72:	0000                	unimp
     f74:	1496                	slli	s1,s1,0x25
     f76:	0000                	unimp
     f78:	055a0123          	sb	s5,66(s4)
     f7c:	0085                	addi	ra,ra,1
     f7e:	0084                	addi	s1,sp,64
     f80:	2322                	fld	ft6,8(sp)
     f82:	5b01                	li	s6,-32
     f84:	3001                	.insn	2, 0x3001
     f86:	0000                	unimp
     f88:	4400                	lw	s0,8(s0)
     f8a:	0000114b          	fnmsub.s	ft2,ft0,ft0,ft0,rtz
     f8e:	07a6                	slli	a5,a5,0x9
     f90:	8000                	.insn	2, 0x8000
     f92:	0000                	unimp
     f94:	0000                	unimp
     f96:	07b0                	addi	a2,sp,968
     f98:	8000                	.insn	2, 0x8000
     f9a:	0000                	unimp
     f9c:	0000                	unimp
     f9e:	a001                	j	f9e <_start-0x7ffff062>
     fa0:	000c5b03          	lhu	s6,0(s8)
     fa4:	3d00                	fld	fs0,56(a0)
     fa6:	115a                	slli	sp,sp,0x36
     fa8:	0000                	unimp
     faa:	10000003          	lb	zero,256(zero) # 100 <_start-0x7fffff00>
     fae:	4400                	lw	s0,8(s0)
     fb0:	0f5a                	slli	t5,t5,0x16
     fb2:	0000                	unimp
     fb4:	07d2                	slli	a5,a5,0x14
     fb6:	8000                	.insn	2, 0x8000
     fb8:	0000                	unimp
     fba:	0000                	unimp
     fbc:	07d8                	addi	a4,sp,964
     fbe:	8000                	.insn	2, 0x8000
     fc0:	0000                	unimp
     fc2:	0000                	unimp
     fc4:	ad01                	j	15d4 <_start-0x7fffea2c>
     fc6:	000c9503          	lh	a0,0(s9)
     fca:	2b00                	fld	fs0,16(a4)
     fcc:	0f6a                	slli	t5,t5,0x1a
     fce:	0000                	unimp
     fd0:	000018c3          	fmadd.s	fa7,ft0,ft0,ft0,rtz
     fd4:	d822                	sw	s0,48(sp)
     fd6:	00800007          	.insn	4, 0x00800007
     fda:	0000                	unimp
     fdc:	e800                	sd	s0,16(s0)
     fde:	2300000f          	.insn	4, 0x2300000f
     fe2:	5a01                	li	s4,-32
     fe4:	7902                	ld	s2,32(sp)
     fe6:	0000                	unimp
     fe8:	4400                	lw	s0,8(s0)
     fea:	0ee0                	addi	s0,sp,860
     fec:	0000                	unimp
     fee:	07f2                	slli	a5,a5,0x1c
     ff0:	8000                	.insn	2, 0x8000
     ff2:	0000                	unimp
     ff4:	0000                	unimp
     ff6:	07fa                	slli	a5,a5,0x1e
     ff8:	8000                	.insn	2, 0x8000
     ffa:	0000                	unimp
     ffc:	0000                	unimp
     ffe:	ab01                	j	150e <_start-0x7fffeaf2>
    1000:	cf05                	beqz	a4,1038 <_start-0x7fffefc8>
    1002:	000c                	.insn	2, 0x000c
    1004:	2b00                	fld	fs0,16(a4)
    1006:	00000eef          	jal	t4,1006 <_start-0x7fffeffa>
    100a:	18e6                	slli	a7,a7,0x39
    100c:	0000                	unimp
    100e:	f822                	sd	s0,48(sp)
    1010:	00800007          	.insn	4, 0x00800007
    1014:	0000                	unimp
    1016:	ac00                	fsd	fs0,24(s0)
    1018:	0010                	.insn	2, 0x0010
    101a:	2300                	fld	fs0,0(a4)
    101c:	5a01                	li	s4,-32
    101e:	7802                	ld	a6,32(sp)
    1020:	0000                	unimp
    1022:	4100                	lw	s0,0(a0)
    1024:	07a6                	slli	a5,a5,0x9
    1026:	8000                	.insn	2, 0x8000
    1028:	0000                	unimp
    102a:	0000                	unimp
    102c:	00000df3          	.insn	4, 0x0df3
    1030:	0ced                	addi	s9,s9,27
    1032:	0000                	unimp
    1034:	025a0123          	sb	t0,34(s4)
    1038:	0079                	c.nop	30
    103a:	025b0123          	sb	t0,34(s6)
    103e:	0082                	c.slli64	ra
    1040:	2200                	fld	fs0,0(a2)
    1042:	07b8                	addi	a4,sp,968
    1044:	8000                	.insn	2, 0x8000
    1046:	0000                	unimp
    1048:	0000                	unimp
    104a:	0d72                	slli	s10,s10,0x1c
    104c:	0000                	unimp
    104e:	015a0123          	sb	s5,2(s4)
    1052:	2330                	fld	fa2,64(a4)
    1054:	5b01                	li	s6,-32
    1056:	3001                	.insn	2, 0x3001
    1058:	0000                	unimp
    105a:	0000e80b          	.insn	4, 0xe80b
    105e:	1600                	addi	s0,sp,800
    1060:	000d                	c.nop	3
    1062:	0c00                	addi	s0,sp,528
    1064:	007a                	c.slli	zero,0x1e
    1066:	0000                	unimp
    1068:	a145003f 01000002 	.insn	8, 0x01000002a145003f
    1070:	0d92                	slli	s11,s11,0x4
    1072:	7201                	lui	tp,0xfffe0
    1074:	000d                	c.nop	3
    1076:	3800                	fld	fs0,48(s0)
    1078:	01df 0000 9401      	.insn	6, 0x9401000001df
    107e:	da12                	sw	tp,52(sp)
    1080:	0000                	unimp
    1082:	0a00                	addi	s0,sp,272
    1084:	0211                	addi	tp,tp,4 # fffffffffffe0004 <__global_pointer$+0xffffffff7ffde7bc>
    1086:	0000                	unimp
    1088:	9501                	srai	a0,a0,0x20
    108a:	0000e80f          	.insn	4, 0xe80f
    108e:	0100                	addi	s0,sp,128
    1090:	0a01                	addi	s4,s4,0
    1092:	03c1                	addi	t2,t2,16
    1094:	0000                	unimp
    1096:	9501                	srai	a0,a0,0x20
    1098:	e81d                	bnez	s0,10ce <_start-0x7fffef32>
    109a:	0000                	unimp
    109c:	0100                	addi	s0,sp,128
    109e:	0a01                	addi	s4,s4,0
    10a0:	0334                	addi	a3,sp,392
    10a2:	0000                	unimp
    10a4:	9501                	srai	a0,a0,0x20
    10a6:	e829                	bnez	s0,10f8 <_start-0x7fffef08>
    10a8:	0000                	unimp
    10aa:	0100                	addi	s0,sp,128
    10ac:	3801                	addiw	a6,a6,-32
    10ae:	000001f7          	.insn	4, 0x01f7
    10b2:	9601                	srai	a2,a2,0x20
    10b4:	c00a                	sw	sp,0(sp)
    10b6:	0000                	unimp
    10b8:	3800                	fld	fs0,48(s0)
    10ba:	0376                	slli	t1,t1,0x1d
    10bc:	0000                	unimp
    10be:	9801                	andi	s0,s0,-32
    10c0:	c00a                	sw	sp,0(sp)
    10c2:	0000                	unimp
    10c4:	0000                	unimp
    10c6:	011d                	addi	sp,sp,7
    10c8:	0042                	c.slli	zero,0x10
    10ca:	0000                	unimp
    10cc:	8b01                	andi	a4,a4,0
    10ce:	0059011b          	addiw	sp,s2,5
    10d2:	0000                	unimp
    10d4:	09ee                	slli	s3,s3,0x1b
    10d6:	8000                	.insn	2, 0x8000
    10d8:	0000                	unimp
    10da:	0000                	unimp
    10dc:	0a06                	slli	s4,s4,0x1
    10de:	8000                	.insn	2, 0x8000
    10e0:	0000                	unimp
    10e2:	0000                	unimp
    10e4:	1909                	addi	s2,s2,-30
    10e6:	0000                	unimp
    10e8:	f301                	bnez	a4,fe8 <_start-0x7ffff018>
    10ea:	000d                	c.nop	3
    10ec:	2500                	fld	fs0,8(a0)
    10ee:	03e4                	addi	s1,sp,460
    10f0:	0000                	unimp
    10f2:	8b01                	andi	a4,a4,0
    10f4:	5924                	lw	s1,112(a0)
    10f6:	0000                	unimp
    10f8:	5500                	lw	s0,40(a0)
    10fa:	0019                	c.nop	6
    10fc:	2500                	fld	fs0,8(a0)
    10fe:	000003f7          	.insn	4, 0x03f7
    1102:	8b01                	andi	a4,a4,0
    1104:	d931                	beqz	a0,1058 <_start-0x7fffefa8>
    1106:	0004                	.insn	2, 0x0004
    1108:	8e00                	.insn	2, 0x8e00
    110a:	0019                	c.nop	6
    110c:	3c00                	fld	fs0,56(s0)
    110e:	0ee0                	addi	s0,sp,860
    1110:	0000                	unimp
    1112:	09ee                	slli	s3,s3,0x1b
    1114:	8000                	.insn	2, 0x8000
    1116:	0000                	unimp
    1118:	0000                	unimp
    111a:	0320                	addi	s0,sp,392
    111c:	0000                	unimp
    111e:	8e01                	sub	a2,a2,s0
    1120:	0eef2b03          	lw	s6,238(t5)
    1124:	0000                	unimp
    1126:	000019c7          	fmsub.s	fs3,ft0,ft0,ft0,rtz
    112a:	fe22                	sd	s0,312(sp)
    112c:	0009                	c.nop	2
    112e:	0080                	addi	s0,sp,64
    1130:	0000                	unimp
    1132:	ac00                	fsd	fs0,24(s0)
    1134:	0010                	.insn	2, 0x0010
    1136:	2300                	fld	fs0,0(a4)
    1138:	5a01                	li	s4,-32
    113a:	0309                	addi	t1,t1,2
    113c:	1090                	addi	a2,sp,96
    113e:	8000                	.insn	2, 0x8000
    1140:	0000                	unimp
    1142:	0000                	unimp
    1144:	0000                	unimp
    1146:	4600                	lw	s0,8(a2)
    1148:	1001                	c.nop	-32
    114a:	0004                	.insn	2, 0x0004
    114c:	0100                	addi	s0,sp,128
    114e:	1c84                	addi	s1,sp,624
    1150:	fe01                	bnez	a2,1068 <_start-0x7fffef98>
    1152:	0005                	c.nop	1
    1154:	0080                	addi	s0,sp,64
    1156:	0000                	unimp
    1158:	0400                	addi	s0,sp,512
    115a:	0006                	c.slli	zero,0x1
    115c:	0080                	addi	s0,sp,64
    115e:	0000                	unimp
    1160:	0200                	addi	s0,sp,256
    1162:	0072                	c.slli	zero,0x1c
    1164:	3101                	addiw	sp,sp,-32
    1166:	000e                	c.slli	zero,0x3
    1168:	4700                	lw	s0,8(a4)
    116a:	00646963          	bltu	s0,t1,117c <_start-0x7fffee84>
    116e:	8401                	c.srai64	s0
    1170:	592d                	li	s2,-21
    1172:	0000                	unimp
    1174:	0100                	addi	s0,sp,128
    1176:	475a                	lw	a4,148(sp)
    1178:	636e                	ld	t1,216(sp)
    117a:	0100                	addi	s0,sp,128
    117c:	3684                	fld	fs1,40(a3)
    117e:	0059                	c.nop	22
    1180:	0000                	unimp
    1182:	5b01                	li	s6,-32
    1184:	1200                	addi	s0,sp,288
    1186:	ec01                	bnez	s0,119e <_start-0x7fffee62>
    1188:	0002                	c.slli64	zero
    118a:	0700                	addi	s0,sp,896
    118c:	590105e3          	beq	sp,a6,1f16 <_start-0x7fffe0ea>
    1190:	0000                	unimp
    1192:	d400                	sw	s0,40(s0)
    1194:	0005                	c.nop	1
    1196:	0080                	addi	s0,sp,64
    1198:	0000                	unimp
    119a:	fe00                	sd	s0,56(a2)
    119c:	0005                	c.nop	1
    119e:	0080                	addi	s0,sp,64
    11a0:	0000                	unimp
    11a2:	0200                	addi	s0,sp,256
    11a4:	0072                	c.slli	zero,0x1c
    11a6:	e001                	bnez	s0,11a6 <_start-0x7fffee5a>
    11a8:	000e                	c.slli	zero,0x3
    11aa:	2600                	fld	fs0,8(a2)
    11ac:	7e010073          	.insn	4, 0x7e010073
    11b0:	f416                	sd	t0,40(sp)
    11b2:	0000                	unimp
    11b4:	f300                	sd	s0,32(a4)
    11b6:	0019                	c.nop	6
    11b8:	4800                	lw	s0,16(s0)
    11ba:	0ee0                	addi	s0,sp,860
    11bc:	0000                	unimp
    11be:	05d4                	addi	a3,sp,708
    11c0:	8000                	.insn	2, 0x8000
    11c2:	0000                	unimp
    11c4:	0000                	unimp
    11c6:	05fa                	slli	a1,a1,0x1e
    11c8:	8000                	.insn	2, 0x8000
    11ca:	0000                	unimp
    11cc:	0000                	unimp
    11ce:	8001                	c.srli64	s0
    11d0:	0eef2b03          	lw	s6,238(t5)
    11d4:	0000                	unimp
    11d6:	1a2c                	addi	a1,sp,312
    11d8:	0000                	unimp
    11da:	ac48                	fsd	fa0,152(s0)
    11dc:	0010                	.insn	2, 0x0010
    11de:	d400                	sw	s0,40(s0)
    11e0:	0005                	c.nop	1
    11e2:	0080                	addi	s0,sp,64
    11e4:	0000                	unimp
    11e6:	fa00                	sd	s0,48(a2)
    11e8:	0005                	c.nop	1
    11ea:	0080                	addi	s0,sp,64
    11ec:	0000                	unimp
    11ee:	0100                	addi	s0,sp,128
    11f0:	0378                	addi	a4,sp,396
    11f2:	0010bf2b          	.insn	4, 0x0010bf2b
    11f6:	6500                	ld	s0,8(a0)
    11f8:	001a                	c.slli	zero,0x6
    11fa:	3c00                	fld	fs0,56(s0)
    11fc:	1119                	addi	sp,sp,-26
    11fe:	0000                	unimp
    1200:	05da                	slli	a1,a1,0x16
    1202:	8000                	.insn	2, 0x8000
    1204:	0000                	unimp
    1206:	0000                	unimp
    1208:	02f0                	addi	a2,sp,332
    120a:	0000                	unimp
    120c:	3001                	.insn	2, 0x3001
    120e:	2b09                	addiw	s6,s6,2
    1210:	1128                	addi	a0,sp,168
    1212:	0000                	unimp
    1214:	1a88                	addi	a0,sp,368
    1216:	0000                	unimp
    1218:	f02d                	bnez	s0,117a <_start-0x7fffee86>
    121a:	0002                	c.slli64	zero
    121c:	2f00                	fld	fs0,24(a4)
    121e:	1132                	slli	sp,sp,0x2c
    1220:	0000                	unimp
    1222:	00001aab          	.insn	4, 0x1aab
    1226:	00113e2f          	amoadd.d	t3,ra,(sp)
    122a:	d100                	sw	s0,32(a0)
    122c:	001a                	c.slli	zero,0x6
    122e:	0000                	unimp
    1230:	0000                	unimp
    1232:	0000                	unimp
    1234:	0149                	addi	sp,sp,18
    1236:	038e                	slli	t2,t2,0x3
    1238:	0000                	unimp
    123a:	7301                	lui	t1,0xfffe0
    123c:	0106                	slli	sp,sp,0x1
    123e:	fa01                	bnez	a2,114e <_start-0x7fffeeb2>
    1240:	000e                	c.slli	zero,0x3
    1242:	3500                	fld	fs0,40(a0)
    1244:	73010073          	.insn	4, 0x73010073
    1248:	0000f41b          	.insn	4, 0xf41b
    124c:	0000                	unimp
    124e:	014a                	slli	sp,sp,0x12
    1250:	000003bb          	addw	t2,zero,zero
    1254:	6e01                	.insn	2, 0x6e01
    1256:	9e06                	add	t3,t3,ra
    1258:	0005                	c.nop	1
    125a:	0080                	addi	s0,sp,64
    125c:	0000                	unimp
    125e:	ac00                	fsd	fs0,24(s0)
    1260:	0005                	c.nop	1
    1262:	0080                	addi	s0,sp,64
    1264:	0000                	unimp
    1266:	0200                	addi	s0,sp,256
    1268:	0072                	c.slli	zero,0x1c
    126a:	5a01                	li	s4,-32
    126c:	4800000f          	.insn	4, 0x4800000f
    1270:	0f5a                	slli	t5,t5,0x16
    1272:	0000                	unimp
    1274:	059e                	slli	a1,a1,0x7
    1276:	8000                	.insn	2, 0x8000
    1278:	0000                	unimp
    127a:	0000                	unimp
    127c:	05ac                	addi	a1,sp,712
    127e:	8000                	.insn	2, 0x8000
    1280:	0000                	unimp
    1282:	0000                	unimp
    1284:	7001                	c.lui	zero,0xfffe0
    1286:	0f6a4b03          	lbu	s6,246(s4)
    128a:	0000                	unimp
    128c:	4886                	lw	a7,64(sp)
    128e:	0fe8                	addi	a0,sp,988
    1290:	0000                	unimp
    1292:	059e                	slli	a1,a1,0x7
    1294:	8000                	.insn	2, 0x8000
    1296:	0000                	unimp
    1298:	0000                	unimp
    129a:	05ac                	addi	a1,sp,712
    129c:	8000                	.insn	2, 0x8000
    129e:	0000                	unimp
    12a0:	0000                	unimp
    12a2:	6b01                	.insn	2, 0x6b01
    12a4:	0ff84b03          	lbu	s6,255(a6)
    12a8:	0000                	unimp
    12aa:	0086                	slli	ra,ra,0x1
    12ac:	0000                	unimp
    12ae:	014c                	addi	a1,sp,132
    12b0:	0000040b          	.insn	4, 0x040b
    12b4:	6901                	.insn	2, 0x6901
    12b6:	0106                	slli	sp,sp,0x1
    12b8:	0101                	addi	sp,sp,0
    12ba:	00000f77          	.insn	4, 0x0f77
    12be:	da36                	sw	a3,52(sp)
    12c0:	01000003          	lb	zero,16(zero) # 10 <_start-0x7ffffff0>
    12c4:	0f69                	addi	t5,t5,26
    12c6:	0059                	c.nop	22
    12c8:	0000                	unimp
    12ca:	1200                	addi	s0,sp,288
    12cc:	ba01                	j	bdc <_start-0x7ffff424>
    12ce:	0001                	nop
    12d0:	0100                	addi	s0,sp,128
    12d2:	2164                	fld	fs1,192(a0)
    12d4:	af01                	j	19e4 <_start-0x7fffe61c>
    12d6:	0000                	unimp
    12d8:	8600                	.insn	2, 0x8600
    12da:	0005                	c.nop	1
    12dc:	0080                	addi	s0,sp,64
    12de:	0000                	unimp
    12e0:	9600                	.insn	2, 0x9600
    12e2:	0005                	c.nop	1
    12e4:	0080                	addi	s0,sp,64
    12e6:	0000                	unimp
    12e8:	0200                	addi	s0,sp,256
    12ea:	0072                	c.slli	zero,0x1c
    12ec:	e801                	bnez	s0,12fc <_start-0x7fffed04>
    12ee:	4d00000f          	.insn	4, 0x4d00000f
    12f2:	0000020b          	.insn	4, 0x020b
    12f6:	6401                	.insn	2, 0x6401
    12f8:	0000af37          	lui	t5,0xa
    12fc:	0100                	addi	s0,sp,128
    12fe:	475a                	lw	a4,148(sp)
    1300:	7065                	c.lui	zero,0xffff9
    1302:	64010063          	beqz	sp,1942 <_start-0x7fffe6be>
    1306:	af48                	fsd	fa0,152(a4)
    1308:	0000                	unimp
    130a:	0100                	addi	s0,sp,128
    130c:	03804d5b          	.insn	4, 0x03804d5b
    1310:	0000                	unimp
    1312:	6401                	.insn	2, 0x6401
    1314:	00036757          	.insn	4, 0x00036757
    1318:	0100                	addi	s0,sp,128
    131a:	485c                	lw	a5,20(s0)
    131c:	0fe8                	addi	a0,sp,988
    131e:	0000                	unimp
    1320:	0586                	slli	a1,a1,0x1
    1322:	8000                	.insn	2, 0x8000
    1324:	0000                	unimp
    1326:	0000                	unimp
    1328:	0596                	slli	a1,a1,0x5
    132a:	8000                	.insn	2, 0x8000
    132c:	0000                	unimp
    132e:	0000                	unimp
    1330:	6601                	.insn	2, 0x6601
    1332:	0ff84e03          	lbu	t3,255(a6)
    1336:	0000                	unimp
    1338:	0539                	addi	a0,a0,14
    133a:	0000                	unimp
    133c:	014c                	addi	a1,sp,132
    133e:	0404                	addi	s1,sp,512
    1340:	0000                	unimp
    1342:	5e01                	li	t3,-32
    1344:	0120                	addi	s0,sp,136
    1346:	0101                	addi	sp,sp,0
    1348:	1005                	c.nop	-31
    134a:	0000                	unimp
    134c:	da36                	sw	a3,52(sp)
    134e:	01000003          	lb	zero,16(zero) # 10 <_start-0x7ffffff0>
    1352:	365e                	fld	fa2,496(sp)
    1354:	000000af          	.insn	4, 0x00af
    1358:	4600                	lw	s0,8(a2)
    135a:	5e01                	li	t3,-32
    135c:	0001                	nop
    135e:	0100                	addi	s0,sp,128
    1360:	064e                	slli	a2,a2,0x13
    1362:	3a01                	addiw	s4,s4,-32
    1364:	0005                	c.nop	1
    1366:	0080                	addi	s0,sp,64
    1368:	0000                	unimp
    136a:	7400                	ld	s0,40(s0)
    136c:	0005                	c.nop	1
    136e:	0080                	addi	s0,sp,64
    1370:	0000                	unimp
    1372:	0200                	addi	s0,sp,256
    1374:	0072                	c.slli	zero,0x1c
    1376:	ac01                	j	1586 <_start-0x7fffea7a>
    1378:	0010                	.insn	2, 0x0010
    137a:	4d00                	lw	s0,24(a0)
    137c:	0238                	addi	a4,sp,264
    137e:	0000                	unimp
    1380:	4e01                	li	t3,0
    1382:	00005913          	srli	s2,zero,0x0
    1386:	0100                	addi	s0,sp,128
    1388:	275a                	fld	fa4,400(sp)
    138a:	0069                	c.nop	26
    138c:	5001                	c.li	zero,-32
    138e:	00005907          	.insn	4, 0x5907
    1392:	f900                	sd	s0,48(a0)
    1394:	001a                	c.slli	zero,0x6
    1396:	4000                	lw	s0,0(s0)
    1398:	0230                	addi	a2,sp,264
    139a:	0000                	unimp
    139c:	0000107f 72736327 	.insn	12, 0x03580100727363270000107f
    13a4:	03580100 
    13a8:	000000af          	.insn	4, 0x00af
    13ac:	1b81                	addi	s7,s7,-32
    13ae:	0000                	unimp
    13b0:	00053a4f          	fnmadd.s	fs4,fa0,ft0,ft0,rup
    13b4:	0080                	addi	s0,sp,64
    13b6:	0000                	unimp
    13b8:	3e00                	fld	fs0,56(a2)
    13ba:	0005                	c.nop	1
    13bc:	0080                	addi	s0,sp,64
    13be:	0000                	unimp
    13c0:	3f00                	fld	fs0,56(a4)
    13c2:	0000026b          	.insn	4, 0x026b
    13c6:	5801                	li	a6,-32
    13c8:	00007a03          	.insn	4, 0x7a03
    13cc:	ed00                	sd	s0,24(a0)
    13ce:	0000001b          	sext.w	zero,zero
    13d2:	2d00                	fld	fs0,24(a0)
    13d4:	0260                	addi	s0,sp,268
    13d6:	0000                	unimp
    13d8:	72736327          	.insn	4, 0x72736327
    13dc:	0100                	addi	s0,sp,128
    13de:	0359                	addi	t1,t1,22 # fffffffffffe0016 <__global_pointer$+0xffffffff7ffde7ce>
    13e0:	000000af          	.insn	4, 0x00af
    13e4:	1c3e                	slli	s8,s8,0x2f
    13e6:	0000                	unimp
    13e8:	902d                	srli	s0,s0,0x2b
    13ea:	0002                	c.slli64	zero
    13ec:	3f00                	fld	fs0,56(a4)
    13ee:	0000026b          	.insn	4, 0x026b
    13f2:	5901                	li	s2,-32
    13f4:	00007a03          	.insn	4, 0x7a03
    13f8:	7400                	ld	s0,40(s0)
    13fa:	001c                	.insn	2, 0x001c
    13fc:	0000                	unimp
    13fe:	0000                	unimp
    1400:	0115                	addi	sp,sp,5
    1402:	0301                	addi	t1,t1,0
    1404:	0000                	unimp
    1406:	2e01                	sext.w	t3,t3
    1408:	0106                	slli	sp,sp,0x1
    140a:	00e8                	addi	a0,sp,76
    140c:	0000                	unimp
    140e:	cc01                	beqz	s0,1426 <_start-0x7fffebda>
    1410:	0010                	.insn	2, 0x0010
    1412:	3500                	fld	fs0,40(a0)
    1414:	00727473          	csrrci	s0,0x7,4
    1418:	2e01                	sext.w	t3,t3
    141a:	f41d                	bnez	s0,1348 <_start-0x7fffecb8>
    141c:	0000                	unimp
    141e:	0000                	unimp
    1420:	0112                	slli	sp,sp,0x4
    1422:	024c                	addi	a1,sp,260
    1424:	0000                	unimp
    1426:	2601                	sext.w	a2,a2
    1428:	0106                	slli	sp,sp,0x1
    142a:	00e8                	addi	a0,sp,76
    142c:	0000                	unimp
    142e:	04fa                	slli	s1,s1,0x1e
    1430:	8000                	.insn	2, 0x8000
    1432:	0000                	unimp
    1434:	0000                	unimp
    1436:	0512                	slli	a0,a0,0x4
    1438:	8000                	.insn	2, 0x8000
    143a:	0000                	unimp
    143c:	0000                	unimp
    143e:	7202                	ld	tp,32(sp)
    1440:	0100                	addi	s0,sp,128
    1442:	00001113          	slli	sp,zero,0x0
    1446:	e950                	sd	a2,144(a0)
    1448:	01000003          	lb	zero,16(zero) # 10 <_start-0x7ffffff0>
    144c:	11131527          	.insn	4, 0x11131527
    1450:	0000                	unimp
    1452:	0000                	unimp
    1454:	1000                	addi	s0,sp,32
    1456:	5d50                	lw	a2,60(a0)
    1458:	0002                	c.slli64	zero
    145a:	0100                	addi	s0,sp,128
    145c:	1528                	addi	a0,sp,680
    145e:	00001113          	slli	sp,zero,0x0
    1462:	0005                	c.nop	1
    1464:	1000                	addi	s0,sp,32
    1466:	0900                	addi	s0,sp,144
    1468:	9908                	.insn	2, 0x9908
    146a:	0000                	unimp
    146c:	4900                	lw	s0,16(a0)
    146e:	7101                	addi	sp,sp,-512
    1470:	0002                	c.slli64	zero
    1472:	0100                	addi	s0,sp,128
    1474:	061e                	slli	a2,a2,0x7
    1476:	0101                	addi	sp,sp,0
    1478:	0000114b          	fnmsub.s	ft2,ft0,ft0,ft0,rtz
    147c:	6335                	lui	t1,0xd
    147e:	0100                	addi	s0,sp,128
    1480:	141e                	slli	s0,s0,0x27
    1482:	00e8                	addi	a0,sp,76
    1484:	0000                	unimp
    1486:	aa38                	fsd	fa4,80(a2)
    1488:	0002                	c.slli64	zero
    148a:	0100                	addi	s0,sp,128
    148c:	151f 1113 0000      	.insn	6, 0x1113151f
    1492:	5d38                	lw	a4,120(a0)
    1494:	0002                	c.slli64	zero
    1496:	0100                	addi	s0,sp,128
    1498:	1520                	addi	s0,sp,680
    149a:	00001113          	slli	sp,zero,0x0
    149e:	4900                	lw	s0,16(a0)
    14a0:	ee01                	bnez	a2,14b8 <_start-0x7fffeb48>
    14a2:	0001                	nop
    14a4:	0100                	addi	s0,sp,128
    14a6:	0619                	addi	a2,a2,6
    14a8:	0101                	addi	sp,sp,0
    14aa:	00001167          	.insn	4, 0x1167
    14ae:	0238                	addi	a4,sp,264
    14b0:	0002                	c.slli64	zero
    14b2:	0100                	addi	s0,sp,128
    14b4:	151a                	slli	a0,a0,0x26
    14b6:	00001113          	slli	sp,zero,0x0
    14ba:	5100                	lw	s0,32(a0)
    14bc:	0000114b          	fnmsub.s	ft2,ft0,ft0,ft0,rtz
    14c0:	04d4                	addi	a3,sp,580
    14c2:	8000                	.insn	2, 0x8000
    14c4:	0000                	unimp
    14c6:	0000                	unimp
    14c8:	04e0                	addi	s0,sp,588
    14ca:	8000                	.insn	2, 0x8000
    14cc:	0000                	unimp
    14ce:	0000                	unimp
    14d0:	7202                	ld	tp,32(sp)
    14d2:	0100                	addi	s0,sp,128
    14d4:	118e                	slli	gp,gp,0x23
    14d6:	0000                	unimp
    14d8:	5a3d                	li	s4,-17
    14da:	0011                	c.nop	4
    14dc:	0300                	addi	s0,sp,384
    14de:	0000                	unimp
    14e0:	0010                	.insn	2, 0x0010
    14e2:	1951                	addi	s2,s2,-12
    14e4:	0011                	c.nop	4
    14e6:	e000                	sd	s0,0(s0)
    14e8:	0004                	.insn	2, 0x0004
    14ea:	0080                	addi	s0,sp,64
    14ec:	0000                	unimp
    14ee:	fa00                	sd	s0,48(a2)
    14f0:	0004                	.insn	2, 0x0004
    14f2:	0080                	addi	s0,sp,64
    14f4:	0000                	unimp
    14f6:	0200                	addi	s0,sp,256
    14f8:	0072                	c.slli	zero,0x1c
    14fa:	c501                	beqz	a0,1502 <_start-0x7fffeafe>
    14fc:	0011                	c.nop	4
    14fe:	5200                	lw	s0,32(a2)
    1500:	1128                	addi	a0,sp,168
    1502:	0000                	unimp
    1504:	5a01                	li	s4,-32
    1506:	323d                	addiw	tp,tp,-17 # ffffffffffffffef <__global_pointer$+0xffffffff7fffe7a7>
    1508:	0011                	c.nop	4
    150a:	0000                	unimp
    150c:	0000                	unimp
    150e:	3d10                	fld	fa2,56(a0)
    1510:	113e                	slli	sp,sp,0x2f
    1512:	0000                	unimp
    1514:	0005                	c.nop	1
    1516:	1000                	addi	s0,sp,32
    1518:	5100                	lw	s0,32(a0)
    151a:	10ac                	addi	a1,sp,104
    151c:	0000                	unimp
    151e:	0512                	slli	a0,a0,0x4
    1520:	8000                	.insn	2, 0x8000
    1522:	0000                	unimp
    1524:	0000                	unimp
    1526:	053a                	slli	a0,a0,0xe
    1528:	8000                	.insn	2, 0x8000
    152a:	0000                	unimp
    152c:	0000                	unimp
    152e:	7202                	ld	tp,32(sp)
    1530:	0100                	addi	s0,sp,128
    1532:	1222                	slli	tp,tp,0x28
    1534:	0000                	unimp
    1536:	0010bf2b          	.insn	4, 0x0010bf2b
    153a:	aa00                	fsd	fs0,16(a2)
    153c:	001c                	.insn	2, 0x001c
    153e:	3c00                	fld	fs0,56(s0)
    1540:	1119                	addi	sp,sp,-26
    1542:	0000                	unimp
    1544:	0518                	addi	a4,sp,640
    1546:	8000                	.insn	2, 0x8000
    1548:	0000                	unimp
    154a:	0000                	unimp
    154c:	0200                	addi	s0,sp,256
    154e:	0000                	unimp
    1550:	3001                	.insn	2, 0x3001
    1552:	2b09                	addiw	s6,s6,2
    1554:	1128                	addi	a0,sp,168
    1556:	0000                	unimp
    1558:	1ce0                	addi	s0,sp,636
    155a:	0000                	unimp
    155c:	002d                	c.nop	11
    155e:	0002                	c.slli64	zero
    1560:	2f00                	fld	fs0,24(a4)
    1562:	1132                	slli	sp,sp,0x2c
    1564:	0000                	unimp
    1566:	00001d03          	lh	s10,0(zero) # 0 <_start-0x80000000>
    156a:	00113e2f          	amoadd.d	t3,ra,(sp)
    156e:	2900                	fld	fs0,16(a0)
    1570:	001d                	c.nop	7
    1572:	0000                	unimp
    1574:	0000                	unimp
    1576:	e851                	bnez	s0,160a <_start-0x7fffe9f6>
    1578:	7400000f          	.insn	4, 0x7400000f
    157c:	0005                	c.nop	1
    157e:	0080                	addi	s0,sp,64
    1580:	0000                	unimp
    1582:	8600                	.insn	2, 0x8600
    1584:	0005                	c.nop	1
    1586:	0080                	addi	s0,sp,64
    1588:	0000                	unimp
    158a:	0200                	addi	s0,sp,256
    158c:	0072                	c.slli	zero,0x1c
    158e:	4701                	li	a4,0
    1590:	0012                	c.slli	zero,0x4
    1592:	5200                	lw	s0,32(a2)
    1594:	0ff8                	addi	a4,sp,988
    1596:	0000                	unimp
    1598:	5a01                	li	s4,-32
    159a:	5300                	lw	s0,32(a4)
    159c:	0f5a                	slli	t5,t5,0x16
    159e:	0000                	unimp
    15a0:	0596                	slli	a1,a1,0x5
    15a2:	8000                	.insn	2, 0x8000
    15a4:	0000                	unimp
    15a6:	0000                	unimp
    15a8:	059e                	slli	a1,a1,0x7
    15aa:	8000                	.insn	2, 0x8000
    15ac:	0000                	unimp
    15ae:	0000                	unimp
    15b0:	1d51                	addi	s10,s10,-12
    15b2:	0000                	unimp
    15b4:	8401                	c.srai64	s0
    15b6:	0012                	c.slli	zero,0x4
    15b8:	2b00                	fld	fs0,16(a4)
    15ba:	0f6a                	slli	t5,t5,0x1a
    15bc:	0000                	unimp
    15be:	1d89                	addi	s11,s11,-30
    15c0:	0000                	unimp
    15c2:	9e22                	add	t3,t3,s0
    15c4:	0005                	c.nop	1
    15c6:	0080                	addi	s0,sp,64
    15c8:	0000                	unimp
    15ca:	e800                	sd	s0,16(s0)
    15cc:	2300000f          	.insn	4, 0x2300000f
    15d0:	5a01                	li	s4,-32
    15d2:	5a01f303          	.insn	4, 0x5a01f303
    15d6:	0000                	unimp
    15d8:	e051                	bnez	s0,165c <_start-0x7fffe9a4>
    15da:	000e                	c.slli	zero,0x3
    15dc:	ac00                	fsd	fs0,24(s0)
    15de:	0005                	c.nop	1
    15e0:	0080                	addi	s0,sp,64
    15e2:	0000                	unimp
    15e4:	d400                	sw	s0,40(s0)
    15e6:	0005                	c.nop	1
    15e8:	0080                	addi	s0,sp,64
    15ea:	0000                	unimp
    15ec:	0200                	addi	s0,sp,256
    15ee:	0072                	c.slli	zero,0x1c
    15f0:	0101                	addi	sp,sp,0
    15f2:	2b000013          	li	zero,688
    15f6:	00000eef          	jal	t4,15f6 <_start-0x7fffea0a>
    15fa:	1dc2                	slli	s11,s11,0x30
    15fc:	0000                	unimp
    15fe:	ac48                	fsd	fa0,152(s0)
    1600:	0010                	.insn	2, 0x0010
    1602:	ac00                	fsd	fs0,24(s0)
    1604:	0005                	c.nop	1
    1606:	0080                	addi	s0,sp,64
    1608:	0000                	unimp
    160a:	d200                	sw	s0,32(a2)
    160c:	0005                	c.nop	1
    160e:	0080                	addi	s0,sp,64
    1610:	0000                	unimp
    1612:	0100                	addi	s0,sp,128
    1614:	0378                	addi	a4,sp,396
    1616:	bf52                	fsd	fs4,440(sp)
    1618:	0010                	.insn	2, 0x0010
    161a:	0100                	addi	s0,sp,128
    161c:	3c5a                	fld	fs8,432(sp)
    161e:	1119                	addi	sp,sp,-26
    1620:	0000                	unimp
    1622:	05b2                	slli	a1,a1,0xc
    1624:	8000                	.insn	2, 0x8000
    1626:	0000                	unimp
    1628:	0000                	unimp
    162a:	02c0                	addi	s0,sp,324
    162c:	0000                	unimp
    162e:	3001                	.insn	2, 0x3001
    1630:	2b09                	addiw	s6,s6,2
    1632:	1128                	addi	a0,sp,168
    1634:	0000                	unimp
    1636:	00001dfb          	.insn	4, 0x1dfb
    163a:	c02d                	beqz	s0,169c <_start-0x7fffe964>
    163c:	0002                	c.slli64	zero
    163e:	2f00                	fld	fs0,24(a4)
    1640:	1132                	slli	sp,sp,0x2c
    1642:	0000                	unimp
    1644:	1e1e                	slli	t3,t3,0x27
    1646:	0000                	unimp
    1648:	00113e2f          	amoadd.d	t3,ra,(sp)
    164c:	4400                	lw	s0,8(s0)
    164e:	001e                	c.slli	zero,0x7
    1650:	0000                	unimp
    1652:	0000                	unimp
    1654:	5100                	lw	s0,32(a0)
    1656:	036d                	addi	t1,t1,27 # d01b <_start-0x7fff2fe5>
    1658:	0000                	unimp
    165a:	06d6                	slli	a3,a3,0x15
    165c:	8000                	.insn	2, 0x8000
    165e:	0000                	unimp
    1660:	0000                	unimp
    1662:	0716                	slli	a4,a4,0x5
    1664:	8000                	.insn	2, 0x8000
    1666:	0000                	unimp
    1668:	0000                	unimp
    166a:	7202                	ld	tp,32(sp)
    166c:	0100                	addi	s0,sp,128
    166e:	13a8                	addi	a0,sp,488
    1670:	0000                	unimp
    1672:	8052                	c.mv	zero,s4
    1674:	01000003          	lb	zero,16(zero) # 10 <_start-0x7ffffff0>
    1678:	2b5a                	fld	fs6,400(sp)
    167a:	038d                	addi	t2,t2,3
    167c:	0000                	unimp
    167e:	1e6c                	addi	a1,sp,828
    1680:	0000                	unimp
    1682:	00039a2b          	.insn	4, 0x00039a2b
    1686:	e100                	sd	s0,0(a0)
    1688:	001e                	c.slli	zero,0x7
    168a:	5400                	lw	s0,40(s0)
    168c:	000003c3          	fmadd.s	ft7,ft0,ft0,ft0,rne
    1690:	03d0                	addi	a2,sp,452
    1692:	0000                	unimp
    1694:	00001357          	.insn	4, 0x1357
    1698:	0003c42f          	.insn	4, 0x0003c42f
    169c:	4300                	lw	s0,0(a4)
    169e:	001f 2f00 03cf      	.insn	6, 0x03cf2f00001f
    16a4:	0000                	unimp
    16a6:	1f79                	addi	t5,t5,-2 # 9ffe <_start-0x7fff6002>
    16a8:	0000                	unimp
    16aa:	4800                	lw	s0,16(s0)
    16ac:	036d                	addi	t1,t1,27
    16ae:	0000                	unimp
    16b0:	06fe                	slli	a3,a3,0x1f
    16b2:	8000                	.insn	2, 0x8000
    16b4:	0000                	unimp
    16b6:	0000                	unimp
    16b8:	0716                	slli	a4,a4,0x5
    16ba:	8000                	.insn	2, 0x8000
    16bc:	0000                	unimp
    16be:	0000                	unimp
    16c0:	1f06                	slli	t5,t5,0x21
    16c2:	2c09                	addiw	s8,s8,2
    16c4:	0380                	addi	s0,sp,448
    16c6:	0000                	unimp
    16c8:	8d2c                	.insn	2, 0x8d2c
    16ca:	2c000003          	lb	zero,704(zero) # 2c0 <_start-0x7ffffd40>
    16ce:	039a                	slli	t2,t2,0x6
    16d0:	0000                	unimp
    16d2:	a755                	j	1e76 <_start-0x7fffe18a>
    16d4:	fe000003          	lb	zero,-32(zero) # ffffffffffffffe0 <__global_pointer$+0xffffffff7fffe798>
    16d8:	0006                	c.slli	zero,0x1
    16da:	0080                	addi	s0,sp,64
    16dc:	0000                	unimp
    16de:	1600                	addi	s0,sp,800
    16e0:	00800007          	.insn	4, 0x00800007
    16e4:	0000                	unimp
    16e6:	2f00                	fld	fs0,24(a4)
    16e8:	03ac                	addi	a1,sp,456
    16ea:	0000                	unimp
    16ec:	1fc2                	slli	t6,t6,0x30
    16ee:	0000                	unimp
    16f0:	0003b72f          	amoadd.d	a4,zero,(t2)
    16f4:	e500                	sd	s0,8(a0)
    16f6:	001f 0000 0000      	.insn	6, 0x001f
    16fc:	0151                	addi	sp,sp,20
    16fe:	16000003          	lb	zero,352(zero) # 160 <_start-0x7ffffea0>
    1702:	00800007          	.insn	4, 0x00800007
    1706:	0000                	unimp
    1708:	6000                	ld	s0,0(s0)
    170a:	00800007          	.insn	4, 0x00800007
    170e:	0000                	unimp
    1710:	0200                	addi	s0,sp,256
    1712:	0072                	c.slli	zero,0x1c
    1714:	5001                	c.li	zero,-32
    1716:	0014                	.insn	2, 0x0014
    1718:	5200                	lw	s0,32(a2)
    171a:	0314                	addi	a3,sp,384
    171c:	0000                	unimp
    171e:	5a01                	li	s4,-32
    1720:	2152                	fld	ft2,272(sp)
    1722:	01000003          	lb	zero,16(zero) # 10 <_start-0x7ffffff0>
    1726:	032e2b5b          	.insn	4, 0x032e2b5b
    172a:	0000                	unimp
    172c:	00002043          	fmadd.s	ft0,ft0,ft0,ft0,rdn
    1730:	5954                	lw	a3,52(a0)
    1732:	00000003          	lb	zero,0(zero) # 0 <_start-0x80000000>
    1736:	0004                	.insn	2, 0x0004
    1738:	f300                	sd	s0,32(a4)
    173a:	2f000013          	li	zero,752
    173e:	035a                	slli	t1,t1,0x16
    1740:	0000                	unimp
    1742:	207c                	fld	fa5,192(s0)
    1744:	0000                	unimp
    1746:	4800                	lw	s0,16(s0)
    1748:	0301                	addi	t1,t1,0
    174a:	0000                	unimp
    174c:	0736                	slli	a4,a4,0xd
    174e:	8000                	.insn	2, 0x8000
    1750:	0000                	unimp
    1752:	0000                	unimp
    1754:	0760                	addi	s0,sp,908
    1756:	8000                	.insn	2, 0x8000
    1758:	0000                	unimp
    175a:	0000                	unimp
    175c:	2106                	fld	ft2,64(sp)
    175e:	2b09                	addiw	s6,s6,2
    1760:	0314                	addi	a3,sp,384
    1762:	0000                	unimp
    1764:	20c5                	addiw	ra,ra,17
    1766:	0000                	unimp
    1768:	0003212b          	.insn	4, 0x0003212b
    176c:	e800                	sd	s0,16(s0)
    176e:	0020                	addi	s0,sp,8
    1770:	2b00                	fld	fs0,16(a4)
    1772:	032e                	slli	t1,t1,0xb
    1774:	0000                	unimp
    1776:	0000210b          	.insn	4, 0x210b
    177a:	3b55                	addiw	s6,s6,-11
    177c:	36000003          	lb	zero,864(zero) # 360 <_start-0x7ffffca0>
    1780:	00800007          	.insn	4, 0x00800007
    1784:	0000                	unimp
    1786:	6000                	ld	s0,0(s0)
    1788:	00800007          	.insn	4, 0x00800007
    178c:	0000                	unimp
    178e:	2f00                	fld	fs0,24(a4)
    1790:	0340                	addi	s0,sp,388
    1792:	0000                	unimp
    1794:	2131                	addiw	sp,sp,12
    1796:	0000                	unimp
    1798:	00034d2f          	.insn	4, 0x00034d2f
    179c:	7800                	ld	s0,48(s0)
    179e:	0021                	c.nop	8
    17a0:	0000                	unimp
    17a2:	0000                	unimp
    17a4:	8751                	srai	a4,a4,0x14
    17a6:	0002                	c.slli64	zero
    17a8:	3200                	fld	fs0,32(a2)
    17aa:	0008                	.insn	2, 0x0008
    17ac:	0080                	addi	s0,sp,64
    17ae:	0000                	unimp
    17b0:	5200                	lw	s0,32(a2)
    17b2:	0008                	.insn	2, 0x0008
    17b4:	0080                	addi	s0,sp,64
    17b6:	0000                	unimp
    17b8:	0200                	addi	s0,sp,256
    17ba:	0072                	c.slli	zero,0x1c
    17bc:	8901                	andi	a0,a0,0
    17be:	0014                	.insn	2, 0x0014
    17c0:	2b00                	fld	fs0,16(a4)
    17c2:	029a                	slli	t0,t0,0x6
    17c4:	0000                	unimp
    17c6:	21ae                	fld	ft3,200(sp)
    17c8:	0000                	unimp
    17ca:	0002a52b          	.insn	4, 0x0002a52b
    17ce:	0d00                	addi	s0,sp,656
    17d0:	0022                	c.slli	zero,0x8
    17d2:	2f00                	fld	fs0,24(a4)
    17d4:	02b0                	addi	a2,sp,328
    17d6:	0000                	unimp
    17d8:	2276                	fld	ft4,344(sp)
    17da:	0000                	unimp
    17dc:	5600                	lw	s0,40(a2)
    17de:	0101                	addi	sp,sp,0
    17e0:	000002d7          	.insn	4, 0x02d7
    17e4:	02cd                	addi	t0,t0,19
    17e6:	0000                	unimp
    17e8:	0008                	.insn	2, 0x0008
    17ea:	0156                	slli	sp,sp,0x15
    17ec:	d001                	beqz	s0,16ec <_start-0x7fffe914>
    17ee:	0001                	nop
    17f0:	c600                	sw	s0,8(a2)
    17f2:	0001                	nop
    17f4:	0800                	addi	s0,sp,16
	...

Disassembly of section .debug_abbrev:

0000000000000000 <.debug_abbrev>:
   0:	1101                	addi	sp,sp,-32
   2:	2501                	sext.w	a0,a0
   4:	130e                	slli	t1,t1,0x23
   6:	1b0e030b          	.insn	4, 0x1b0e030b
   a:	550e                	lw	a0,224(sp)
   c:	1106                	slli	sp,sp,0x21
   e:	5201                	li	tp,-32
  10:	1001                	c.nop	-32
  12:	0006                	c.slli	zero,0x1
  14:	0200                	addi	s0,sp,256
  16:	0024                	addi	s1,sp,8
  18:	0b3e0b0b          	.insn	4, 0x0b3e0b0b
  1c:	00000e03          	lb	t3,0(zero) # 0 <_start-0x80000000>
  20:	03001603          	lh	a2,48(zero) # 30 <_start-0x7fffffd0>
  24:	3a0e                	fld	fs4,224(sp)
  26:	390b3b0b          	.insn	4, 0x390b3b0b
  2a:	0013490b          	.insn	4, 0x0013490b
  2e:	0400                	addi	s0,sp,512
  30:	0024                	addi	s1,sp,8
  32:	0b3e0b0b          	.insn	4, 0x0b3e0b0b
  36:	00000803          	lb	a6,0(zero) # 0 <_start-0x80000000>
  3a:	3505                	addiw	a0,a0,-31
  3c:	4900                	lw	s0,16(a0)
  3e:	06000013          	li	zero,96
  42:	0026                	c.slli	zero,0x9
  44:	1349                	addi	t1,t1,-14
  46:	0000                	unimp
  48:	0b000f07          	.insn	4, 0x0b000f07
  4c:	0013490b          	.insn	4, 0x0013490b
  50:	0800                	addi	s0,sp,16
  52:	012e                	slli	sp,sp,0xb
  54:	0e030c3f 0b3b0b3a 	.insn	8, 0x0b3b0b3a0e030c3f
  5c:	0b39                	addi	s6,s6,14
  5e:	13490c27          	.insn	4, 0x13490c27
  62:	0c3c                	addi	a5,sp,536
  64:	1301                	addi	t1,t1,-32
  66:	0000                	unimp
  68:	0509                	addi	a0,a0,2
  6a:	4900                	lw	s0,16(a0)
  6c:	0a000013          	li	zero,160
  70:	0018                	.insn	2, 0x0018
  72:	0000                	unimp
  74:	3f012e0b          	.insn	4, 0x3f012e0b
  78:	030c                	addi	a1,sp,384
  7a:	3a08                	fld	fa0,48(a2)
  7c:	390b3b0b          	.insn	4, 0x390b3b0b
  80:	010c3c0b          	.insn	4, 0x010c3c0b
  84:	0c000013          	li	zero,192
  88:	012e                	slli	sp,sp,0xb
  8a:	0e030c3f 0b3b0b3a 	.insn	8, 0x0b3b0b3a0e030c3f
  92:	0b39                	addi	s6,s6,14
  94:	0c3c0c27          	.insn	4, 0x0c3c0c27
  98:	1301                	addi	t1,t1,-32
  9a:	0000                	unimp
  9c:	2e0d                	addiw	t3,t3,3
  9e:	3f01                	addiw	t5,t5,-32
  a0:	030c                	addi	a1,sp,384
  a2:	3a0e                	fld	fs4,224(sp)
  a4:	390b3b0b          	.insn	4, 0x390b3b0b
  a8:	490c270b          	.insn	4, 0x490c270b
  ac:	12011113          	.insn	4, 0x12011113
  b0:	4001                	c.li	zero,0
  b2:	9706                	add	a4,a4,ra
  b4:	0c42                	slli	s8,s8,0x10
  b6:	1301                	addi	t1,t1,-32
  b8:	0000                	unimp
  ba:	340e                	fld	fs0,224(sp)
  bc:	0300                	addi	s0,sp,384
  be:	3a0e                	fld	fs4,224(sp)
  c0:	390b3b0b          	.insn	4, 0x390b3b0b
  c4:	0213490b          	.insn	4, 0x0213490b
  c8:	000a                	c.slli	zero,0x2
  ca:	0f00                	addi	s0,sp,912
  cc:	0034                	addi	a3,sp,8
  ce:	0b3a0803          	lb	a6,179(s4)
  d2:	0b390b3b          	.insn	4, 0x0b390b3b
  d6:	1349                	addi	t1,t1,-14
  d8:	0a02                	c.slli64	s4
  da:	0000                	unimp
  dc:	0b10                	addi	a2,sp,400
  de:	5501                	li	a0,-32
  e0:	0106                	slli	sp,sp,0x1
  e2:	11000013          	li	zero,272
  e6:	0034                	addi	a3,sp,8
  e8:	0b3a0803          	lb	a6,179(s4)
  ec:	0b390b3b          	.insn	4, 0x0b390b3b
  f0:	1349                	addi	t1,t1,-14
  f2:	0602                	c.slli64	a2
  f4:	0000                	unimp
  f6:	8912                	mv	s2,tp
  f8:	0182                	c.slli64	gp
  fa:	1101                	addi	sp,sp,-32
  fc:	3101                	addiw	sp,sp,-32
  fe:	13000013          	li	zero,304
 102:	828a                	mv	t0,sp
 104:	0001                	nop
 106:	0a02                	c.slli64	s4
 108:	4291                	li	t0,4
 10a:	000a                	c.slli	zero,0x2
 10c:	1400                	addi	s0,sp,544
 10e:	011d                	addi	sp,sp,7
 110:	1331                	addi	t1,t1,-20
 112:	0152                	slli	sp,sp,0x14
 114:	0655                	addi	a2,a2,21
 116:	0b58                	addi	a4,sp,404
 118:	0b59                	addi	s6,s6,22
 11a:	13010b57          	.insn	4, 0x13010b57
 11e:	0000                	unimp
 120:	0515                	addi	a0,a0,5
 122:	3100                	fld	fs0,32(a0)
 124:	16000013          	li	zero,352
 128:	0655010b          	.insn	4, 0x0655010b
 12c:	0000                	unimp
 12e:	31003417          	auipc	s0,0x31003
 132:	00060213          	mv	tp,a2
 136:	1800                	addi	s0,sp,48
 138:	1331010b          	.insn	4, 0x1331010b
 13c:	0655                	addi	a2,a2,21
 13e:	0000                	unimp
 140:	8919                	andi	a0,a0,6
 142:	0182                	c.slli64	gp
 144:	1101                	addi	sp,sp,-32
 146:	3101                	addiw	sp,sp,-32
 148:	00130113          	addi	sp,t1,1
 14c:	1a00                	addi	s0,sp,304
 14e:	0101                	addi	sp,sp,0
 150:	1349                	addi	t1,t1,-14
 152:	1301                	addi	t1,t1,-32
 154:	0000                	unimp
 156:	4900211b          	.insn	4, 0x4900211b
 15a:	000b2f13          	slti	t5,s6,0
 15e:	1c00                	addi	s0,sp,560
 160:	012e                	slli	sp,sp,0xb
 162:	0b3a0e03          	lb	t3,179(s4)
 166:	0b390b3b          	.insn	4, 0x0b390b3b
 16a:	13490c27          	.insn	4, 0x13490c27
 16e:	0b20                	addi	s0,sp,408
 170:	1301                	addi	t1,t1,-32
 172:	0000                	unimp
 174:	051d                	addi	a0,a0,7
 176:	0300                	addi	s0,sp,384
 178:	3a08                	fld	fa0,48(a2)
 17a:	390b3b0b          	.insn	4, 0x390b3b0b
 17e:	0013490b          	.insn	4, 0x0013490b
 182:	1e00                	addi	s0,sp,816
 184:	0005                	c.nop	1
 186:	0b3a0e03          	lb	t3,179(s4)
 18a:	0b390b3b          	.insn	4, 0x0b390b3b
 18e:	1349                	addi	t1,t1,-14
 190:	0000                	unimp
 192:	341f 0300 3a08      	.insn	6, 0x3a080300341f
 198:	390b3b0b          	.insn	4, 0x390b3b0b
 19c:	0013490b          	.insn	4, 0x0013490b
 1a0:	2000                	fld	fs0,0(s0)
 1a2:	0000010b          	.insn	4, 0x010b
 1a6:	0100                	addi	s0,sp,128
 1a8:	0011                	c.nop	4
 1aa:	0610                	addi	a2,sp,768
 1ac:	0111                	addi	sp,sp,4
 1ae:	0112                	slli	sp,sp,0x4
 1b0:	0e1b0e03          	lb	t3,225(s6)
 1b4:	0e25                	addi	t3,t3,9
 1b6:	00000513          	li	a0,0
 1ba:	0100                	addi	s0,sp,128
 1bc:	0011                	c.nop	4
 1be:	0610                	addi	a2,sp,768
 1c0:	0111                	addi	sp,sp,4
 1c2:	0112                	slli	sp,sp,0x4
 1c4:	0e1b0e03          	lb	t3,225(s6)
 1c8:	0e25                	addi	t3,t3,9
 1ca:	00000513          	li	a0,0
 1ce:	0100                	addi	s0,sp,128
 1d0:	0111                	addi	sp,sp,4
 1d2:	0e25                	addi	t3,t3,9
 1d4:	0e030b13          	addi	s6,t1,224
 1d8:	06550e1b          	addiw	t3,a0,101
 1dc:	0111                	addi	sp,sp,4
 1de:	0152                	slli	sp,sp,0x14
 1e0:	0610                	addi	a2,sp,768
 1e2:	0000                	unimp
 1e4:	2402                	fld	fs0,0(sp)
 1e6:	0b00                	addi	s0,sp,400
 1e8:	030b3e0b          	.insn	4, 0x030b3e0b
 1ec:	000e                	c.slli	zero,0x3
 1ee:	0300                	addi	s0,sp,384
 1f0:	0016                	c.slli	zero,0x5
 1f2:	0b3a0e03          	lb	t3,179(s4)
 1f6:	0b390b3b          	.insn	4, 0x0b390b3b
 1fa:	1349                	addi	t1,t1,-14
 1fc:	0000                	unimp
 1fe:	2404                	fld	fs1,8(s0)
 200:	0b00                	addi	s0,sp,400
 202:	030b3e0b          	.insn	4, 0x030b3e0b
 206:	0008                	.insn	2, 0x0008
 208:	0500                	addi	s0,sp,640
 20a:	0035                	c.nop	13
 20c:	1349                	addi	t1,t1,-14
 20e:	0000                	unimp
 210:	2606                	fld	fa2,64(sp)
 212:	4900                	lw	s0,16(a0)
 214:	07000013          	li	zero,112
 218:	0b0b000f          	.insn	4, 0x0b0b000f
 21c:	0000                	unimp
 21e:	0f08                	addi	a0,sp,912
 220:	0b00                	addi	s0,sp,400
 222:	000e030b          	.insn	4, 0x000e030b
 226:	0900                	addi	s0,sp,144
 228:	0b0b000f          	.insn	4, 0x0b0b000f
 22c:	1349                	addi	t1,t1,-14
 22e:	0000                	unimp
 230:	340a                	fld	fs0,160(sp)
 232:	0300                	addi	s0,sp,384
 234:	3a0e                	fld	fs4,224(sp)
 236:	390b3b0b          	.insn	4, 0x390b3b0b
 23a:	3f13490b          	.insn	4, 0x3f13490b
 23e:	3c0c                	fld	fa1,56(s0)
 240:	000c                	.insn	2, 0x000c
 242:	0b00                	addi	s0,sp,400
 244:	0101                	addi	sp,sp,0
 246:	1349                	addi	t1,t1,-14
 248:	1301                	addi	t1,t1,-32
 24a:	0000                	unimp
 24c:	210c                	fld	fa1,0(a0)
 24e:	4900                	lw	s0,16(a0)
 250:	000b2f13          	slti	t5,s6,0
 254:	0d00                	addi	s0,sp,656
 256:	0034                	addi	a3,sp,8
 258:	0b3a0e03          	lb	t3,179(s4)
 25c:	0b390b3b          	.insn	4, 0x0b390b3b
 260:	1349                	addi	t1,t1,-14
 262:	0a02                	c.slli64	s4
 264:	0000                	unimp
 266:	2e0e                	fld	ft8,192(sp)
 268:	3f01                	addiw	t5,t5,-32
 26a:	030c                	addi	a1,sp,384
 26c:	3a0e                	fld	fs4,224(sp)
 26e:	39053b0b          	.insn	4, 0x39053b0b
 272:	490c270b          	.insn	4, 0x490c270b
 276:	12011113          	.insn	4, 0x12011113
 27a:	4001                	c.li	zero,0
 27c:	970a                	add	a4,a4,sp
 27e:	0c42                	slli	s8,s8,0x10
 280:	1301                	addi	t1,t1,-32
 282:	0000                	unimp
 284:	0300050f          	.insn	4, 0x0300050f
 288:	3a08                	fld	fa0,48(a2)
 28a:	39053b0b          	.insn	4, 0x39053b0b
 28e:	0213490b          	.insn	4, 0x0213490b
 292:	0006                	c.slli	zero,0x1
 294:	1000                	addi	s0,sp,32
 296:	0034                	addi	a3,sp,8
 298:	0b3a0803          	lb	a6,179(s4)
 29c:	0b39053b          	.insn	4, 0x0b39053b
 2a0:	1349                	addi	t1,t1,-14
 2a2:	0602                	c.slli64	a2
 2a4:	0000                	unimp
 2a6:	3411                	addiw	s0,s0,-28 # 31003112 <_start-0x4effceee>
 2a8:	0300                	addi	s0,sp,384
 2aa:	3a0e                	fld	fs4,224(sp)
 2ac:	39053b0b          	.insn	4, 0x39053b0b
 2b0:	0213490b          	.insn	4, 0x0213490b
 2b4:	0006                	c.slli	zero,0x1
 2b6:	1200                	addi	s0,sp,288
 2b8:	012e                	slli	sp,sp,0xb
 2ba:	0e030c3f 0b3b0b3a 	.insn	8, 0x0b3b0b3a0e030c3f
 2c2:	0b39                	addi	s6,s6,14
 2c4:	13490c27          	.insn	4, 0x13490c27
 2c8:	0111                	addi	sp,sp,4
 2ca:	0112                	slli	sp,sp,0x4
 2cc:	0a40                	addi	s0,sp,276
 2ce:	010c4297          	auipc	t0,0x10c4
 2d2:	13000013          	li	zero,304
 2d6:	0005                	c.nop	1
 2d8:	0b3a0e03          	lb	t3,179(s4)
 2dc:	0b39053b          	.insn	4, 0x0b39053b
 2e0:	1349                	addi	t1,t1,-14
 2e2:	0a02                	c.slli64	s4
 2e4:	0000                	unimp
 2e6:	3414                	fld	fa3,40(s0)
 2e8:	0300                	addi	s0,sp,384
 2ea:	3a08                	fld	fa0,48(a2)
 2ec:	39053b0b          	.insn	4, 0x39053b0b
 2f0:	0213490b          	.insn	4, 0x0213490b
 2f4:	000a                	c.slli	zero,0x2
 2f6:	1500                	addi	s0,sp,672
 2f8:	012e                	slli	sp,sp,0xb
 2fa:	0e030c3f 0b3b0b3a 	.insn	8, 0x0b3b0b3a0e030c3f
 302:	0b39                	addi	s6,s6,14
 304:	13490c27          	.insn	4, 0x13490c27
 308:	0b20                	addi	s0,sp,408
 30a:	1301                	addi	t1,t1,-32
 30c:	0000                	unimp
 30e:	0516                	slli	a0,a0,0x5
 310:	0300                	addi	s0,sp,384
 312:	3a08                	fld	fa0,48(a2)
 314:	39053b0b          	.insn	4, 0x39053b0b
 318:	0013490b          	.insn	4, 0x0013490b
 31c:	1700                	addi	s0,sp,928
 31e:	0034                	addi	a3,sp,8
 320:	0b3a0803          	lb	a6,179(s4)
 324:	0b39053b          	.insn	4, 0x0b39053b
 328:	1349                	addi	t1,t1,-14
 32a:	0000                	unimp
 32c:	0518                	addi	a4,sp,640
 32e:	0300                	addi	s0,sp,384
 330:	3a0e                	fld	fs4,224(sp)
 332:	39053b0b          	.insn	4, 0x39053b0b
 336:	0013490b          	.insn	4, 0x0013490b
 33a:	1900                	addi	s0,sp,176
 33c:	1301010b          	.insn	4, 0x1301010b
 340:	0000                	unimp
 342:	341a                	fld	fs0,416(sp)
 344:	0300                	addi	s0,sp,384
 346:	3a0e                	fld	fs4,224(sp)
 348:	39053b0b          	.insn	4, 0x39053b0b
 34c:	0013490b          	.insn	4, 0x0013490b
 350:	1b00                	addi	s0,sp,432
 352:	0000010b          	.insn	4, 0x010b
 356:	261c                	fld	fa5,8(a2)
 358:	0000                	unimp
 35a:	1d00                	addi	s0,sp,688
 35c:	012e                	slli	sp,sp,0xb
 35e:	0e030c3f 0b3b0b3a 	.insn	8, 0x0b3b0b3a0e030c3f
 366:	0b39                	addi	s6,s6,14
 368:	13490c27          	.insn	4, 0x13490c27
 36c:	0111                	addi	sp,sp,4
 36e:	0112                	slli	sp,sp,0x4
 370:	0640                	addi	s0,sp,772
 372:	010c4297          	auipc	t0,0x10c4
 376:	1e000013          	li	zero,480
 37a:	0018                	.insn	2, 0x0018
 37c:	0000                	unimp
 37e:	2e1f 0301 3a0e      	.insn	6, 0x3a0e03012e1f
 384:	39053b0b          	.insn	4, 0x39053b0b
 388:	110c270b          	.insn	4, 0x110c270b
 38c:	1201                	addi	tp,tp,-32 # ffffffffffffffe0 <__global_pointer$+0xffffffff7fffe798>
 38e:	4001                	c.li	zero,0
 390:	970a                	add	a4,a4,sp
 392:	0c42                	slli	s8,s8,0x10
 394:	1301                	addi	t1,t1,-32
 396:	0000                	unimp
 398:	0520                	addi	s0,sp,648
 39a:	0300                	addi	s0,sp,384
 39c:	3a08                	fld	fa0,48(a2)
 39e:	39053b0b          	.insn	4, 0x39053b0b
 3a2:	0213490b          	.insn	4, 0x0213490b
 3a6:	000a                	c.slli	zero,0x2
 3a8:	2100                	fld	fs0,0(a0)
 3aa:	0034                	addi	a3,sp,8
 3ac:	0b3a0e03          	lb	t3,179(s4)
 3b0:	0b39053b          	.insn	4, 0x0b39053b
 3b4:	1349                	addi	t1,t1,-14
 3b6:	0a02                	c.slli64	s4
 3b8:	0000                	unimp
 3ba:	8922                	mv	s2,s0
 3bc:	0182                	c.slli64	gp
 3be:	1101                	addi	sp,sp,-32
 3c0:	3101                	addiw	sp,sp,-32
 3c2:	23000013          	li	zero,560
 3c6:	828a                	mv	t0,sp
 3c8:	0001                	nop
 3ca:	0a02                	c.slli64	s4
 3cc:	4291                	li	t0,4
 3ce:	000a                	c.slli	zero,0x2
 3d0:	2400                	fld	fs0,8(s0)
 3d2:	012e                	slli	sp,sp,0xb
 3d4:	0b3a0e03          	lb	t3,179(s4)
 3d8:	0b390b3b          	.insn	4, 0x0b390b3b
 3dc:	01110c27          	.insn	4, 0x01110c27
 3e0:	0112                	slli	sp,sp,0x4
 3e2:	0640                	addi	s0,sp,772
 3e4:	010c4297          	auipc	t0,0x10c4
 3e8:	25000013          	li	zero,592
 3ec:	0005                	c.nop	1
 3ee:	0b3a0e03          	lb	t3,179(s4)
 3f2:	0b390b3b          	.insn	4, 0x0b390b3b
 3f6:	1349                	addi	t1,t1,-14
 3f8:	0602                	c.slli64	a2
 3fa:	0000                	unimp
 3fc:	0526                	slli	a0,a0,0x9
 3fe:	0300                	addi	s0,sp,384
 400:	3a08                	fld	fa0,48(a2)
 402:	390b3b0b          	.insn	4, 0x390b3b0b
 406:	0213490b          	.insn	4, 0x0213490b
 40a:	0006                	c.slli	zero,0x1
 40c:	2700                	fld	fs0,8(a4)
 40e:	0034                	addi	a3,sp,8
 410:	0b3a0803          	lb	a6,179(s4)
 414:	0b390b3b          	.insn	4, 0x0b390b3b
 418:	1349                	addi	t1,t1,-14
 41a:	0602                	c.slli64	a2
 41c:	0000                	unimp
 41e:	0a28                	addi	a0,sp,280
 420:	0300                	addi	s0,sp,384
 422:	3a0e                	fld	fs4,224(sp)
 424:	39053b0b          	.insn	4, 0x39053b0b
 428:	2900000b          	.insn	4, 0x2900000b
 42c:	000a                	c.slli	zero,0x2
 42e:	0b3a0e03          	lb	t3,179(s4)
 432:	0b39053b          	.insn	4, 0x0b39053b
 436:	0111                	addi	sp,sp,4
 438:	0000                	unimp
 43a:	1d2a                	slli	s10,s10,0x2a
 43c:	3101                	addiw	sp,sp,-32
 43e:	55015213          	.insn	4, 0x55015213
 442:	5806                	lw	a6,96(sp)
 444:	5705590b          	.insn	4, 0x5705590b
 448:	0013010b          	.insn	4, 0x0013010b
 44c:	2b00                	fld	fs0,16(a4)
 44e:	0005                	c.nop	1
 450:	1331                	addi	t1,t1,-20
 452:	0602                	c.slli64	a2
 454:	0000                	unimp
 456:	052c                	addi	a1,sp,648
 458:	3100                	fld	fs0,32(a0)
 45a:	2d000013          	li	zero,720
 45e:	0655010b          	.insn	4, 0x0655010b
 462:	0000                	unimp
 464:	342e                	fld	fs0,232(sp)
 466:	3100                	fld	fs0,32(a0)
 468:	000a0213          	mv	tp,s4
 46c:	2f00                	fld	fs0,24(a4)
 46e:	0034                	addi	a3,sp,8
 470:	1331                	addi	t1,t1,-20
 472:	0602                	c.slli64	a2
 474:	0000                	unimp
 476:	8930                	.insn	2, 0x8930
 478:	0182                	c.slli64	gp
 47a:	1101                	addi	sp,sp,-32
 47c:	0101                	addi	sp,sp,0
 47e:	31000013          	li	zero,784
 482:	8289                	srli	a3,a3,0x2
 484:	0101                	addi	sp,sp,0
 486:	0111                	addi	sp,sp,4
 488:	0000                	unimp
 48a:	1532                	slli	a0,a0,0x2c
 48c:	2701                	sext.w	a4,a4
 48e:	010c                	addi	a1,sp,128
 490:	33000013          	li	zero,816
 494:	0005                	c.nop	1
 496:	1349                	addi	t1,t1,-14
 498:	0000                	unimp
 49a:	2e34                	fld	fa3,88(a2)
 49c:	0301                	addi	t1,t1,0
 49e:	3a0e                	fld	fs4,224(sp)
 4a0:	390b3b0b          	.insn	4, 0x390b3b0b
 4a4:	490c270b          	.insn	4, 0x490c270b
 4a8:	010b2013          	slti	zero,s6,16
 4ac:	35000013          	li	zero,848
 4b0:	0005                	c.nop	1
 4b2:	0b3a0803          	lb	a6,179(s4)
 4b6:	0b390b3b          	.insn	4, 0x0b390b3b
 4ba:	1349                	addi	t1,t1,-14
 4bc:	0000                	unimp
 4be:	0536                	slli	a0,a0,0xd
 4c0:	0300                	addi	s0,sp,384
 4c2:	3a0e                	fld	fs4,224(sp)
 4c4:	390b3b0b          	.insn	4, 0x390b3b0b
 4c8:	0013490b          	.insn	4, 0x0013490b
 4cc:	3700                	fld	fs0,40(a4)
 4ce:	012e                	slli	sp,sp,0xb
 4d0:	0b3a0e03          	lb	t3,179(s4)
 4d4:	0b390b3b          	.insn	4, 0x0b390b3b
 4d8:	0b200c27          	.insn	4, 0x0b200c27
 4dc:	1301                	addi	t1,t1,-32
 4de:	0000                	unimp
 4e0:	3438                	fld	fa4,104(s0)
 4e2:	0300                	addi	s0,sp,384
 4e4:	3a0e                	fld	fs4,224(sp)
 4e6:	390b3b0b          	.insn	4, 0x390b3b0b
 4ea:	0013490b          	.insn	4, 0x0013490b
 4ee:	3900                	fld	fs0,48(a0)
 4f0:	0034                	addi	a3,sp,8
 4f2:	0b3a0803          	lb	a6,179(s4)
 4f6:	0b390b3b          	.insn	4, 0x0b390b3b
 4fa:	1349                	addi	t1,t1,-14
 4fc:	0000                	unimp
 4fe:	2e3a                	fld	ft8,392(sp)
 500:	3f01                	addiw	t5,t5,-32
 502:	030c                	addi	a1,sp,384
 504:	3a0e                	fld	fs4,224(sp)
 506:	390b3b0b          	.insn	4, 0x390b3b0b
 50a:	110c270b          	.insn	4, 0x110c270b
 50e:	1201                	addi	tp,tp,-32 # ffffffffffffffe0 <__global_pointer$+0xffffffff7fffe798>
 510:	4001                	c.li	zero,0
 512:	9706                	add	a4,a4,ra
 514:	0c42                	slli	s8,s8,0x10
 516:	1301                	addi	t1,t1,-32
 518:	0000                	unimp
 51a:	0300343b          	.insn	4, 0x0300343b
 51e:	3a08                	fld	fa0,48(a2)
 520:	390b3b0b          	.insn	4, 0x390b3b0b
 524:	0213490b          	.insn	4, 0x0213490b
 528:	000a                	c.slli	zero,0x2
 52a:	3c00                	fld	fs0,56(s0)
 52c:	011d                	addi	sp,sp,7
 52e:	1331                	addi	t1,t1,-20
 530:	0152                	slli	sp,sp,0x14
 532:	0655                	addi	a2,a2,21
 534:	0b58                	addi	a4,sp,404
 536:	0b59                	addi	s6,s6,22
 538:	00000b57          	.insn	4, 0x0b57
 53c:	343d                	addiw	s0,s0,-17
 53e:	3100                	fld	fs0,32(a0)
 540:	00061c13          	slli	s8,a2,0x0
 544:	3e00                	fld	fs0,56(a2)
 546:	0034                	addi	a3,sp,8
 548:	0b3a0803          	lb	a6,179(s4)
 54c:	0b390b3b          	.insn	4, 0x0b390b3b
 550:	1349                	addi	t1,t1,-14
 552:	0188                	addi	a0,sp,192
 554:	000a020b          	.insn	4, 0x000a020b
 558:	3f00                	fld	fs0,56(a4)
 55a:	0034                	addi	a3,sp,8
 55c:	0b3a0e03          	lb	t3,179(s4)
 560:	0b390b3b          	.insn	4, 0x0b390b3b
 564:	1349                	addi	t1,t1,-14
 566:	0602                	c.slli64	a2
 568:	0000                	unimp
 56a:	0b40                	addi	s0,sp,404
 56c:	5501                	li	a0,-32
 56e:	0106                	slli	sp,sp,0x1
 570:	41000013          	li	zero,1040
 574:	8289                	srli	a3,a3,0x2
 576:	0101                	addi	sp,sp,0
 578:	0111                	addi	sp,sp,4
 57a:	1331                	addi	t1,t1,-20
 57c:	1301                	addi	t1,t1,-32
 57e:	0000                	unimp
 580:	1d42                	slli	s10,s10,0x30
 582:	3101                	addiw	sp,sp,-32
 584:	55015213          	.insn	4, 0x55015213
 588:	5806                	lw	a6,96(sp)
 58a:	570b590b          	.insn	4, 0x570b590b
 58e:	0013010b          	.insn	4, 0x0013010b
 592:	4300                	lw	s0,0(a4)
 594:	0034                	addi	a3,sp,8
 596:	1331                	addi	t1,t1,-20
 598:	0c3c                	addi	a5,sp,536
 59a:	0000                	unimp
 59c:	1d44                	addi	s1,sp,692
 59e:	3101                	addiw	sp,sp,-32
 5a0:	12011113          	.insn	4, 0x12011113
 5a4:	5801                	li	a6,-32
 5a6:	570b590b          	.insn	4, 0x570b590b
 5aa:	0013010b          	.insn	4, 0x0013010b
 5ae:	4500                	lw	s0,8(a0)
 5b0:	012e                	slli	sp,sp,0xb
 5b2:	0b3a0e03          	lb	t3,179(s4)
 5b6:	0b390b3b          	.insn	4, 0x0b390b3b
 5ba:	0b20                	addi	s0,sp,408
 5bc:	1301                	addi	t1,t1,-32
 5be:	0000                	unimp
 5c0:	2e46                	fld	ft8,80(sp)
 5c2:	3f01                	addiw	t5,t5,-32
 5c4:	030c                	addi	a1,sp,384
 5c6:	3a0e                	fld	fs4,224(sp)
 5c8:	390b3b0b          	.insn	4, 0x390b3b0b
 5cc:	110c270b          	.insn	4, 0x110c270b
 5d0:	1201                	addi	tp,tp,-32 # ffffffffffffffe0 <__global_pointer$+0xffffffff7fffe798>
 5d2:	4001                	c.li	zero,0
 5d4:	970a                	add	a4,a4,sp
 5d6:	0c42                	slli	s8,s8,0x10
 5d8:	1301                	addi	t1,t1,-32
 5da:	0000                	unimp
 5dc:	03000547          	fmsub.d	fa0,ft0,fa6,ft0,rne
 5e0:	3a08                	fld	fa0,48(a2)
 5e2:	390b3b0b          	.insn	4, 0x390b3b0b
 5e6:	0213490b          	.insn	4, 0x0213490b
 5ea:	000a                	c.slli	zero,0x2
 5ec:	4800                	lw	s0,16(s0)
 5ee:	011d                	addi	sp,sp,7
 5f0:	1331                	addi	t1,t1,-20
 5f2:	0111                	addi	sp,sp,4
 5f4:	0112                	slli	sp,sp,0x4
 5f6:	0b58                	addi	a4,sp,404
 5f8:	0b59                	addi	s6,s6,22
 5fa:	00000b57          	.insn	4, 0x0b57
 5fe:	2e49                	addiw	t3,t3,18
 600:	3f01                	addiw	t5,t5,-32
 602:	030c                	addi	a1,sp,384
 604:	3a0e                	fld	fs4,224(sp)
 606:	390b3b0b          	.insn	4, 0x390b3b0b
 60a:	200c270b          	.insn	4, 0x200c270b
 60e:	0013010b          	.insn	4, 0x0013010b
 612:	4a00                	lw	s0,16(a2)
 614:	012e                	slli	sp,sp,0xb
 616:	0e030c3f 0b3b0b3a 	.insn	8, 0x0b3b0b3a0e030c3f
 61e:	0b39                	addi	s6,s6,14
 620:	0111                	addi	sp,sp,4
 622:	0112                	slli	sp,sp,0x4
 624:	0a40                	addi	s0,sp,276
 626:	010c4297          	auipc	t0,0x10c4
 62a:	4b000013          	li	zero,1200
 62e:	0005                	c.nop	1
 630:	1331                	addi	t1,t1,-20
 632:	0b1c                	addi	a5,sp,400
 634:	0000                	unimp
 636:	2e4c                	fld	fa1,152(a2)
 638:	3f01                	addiw	t5,t5,-32
 63a:	030c                	addi	a1,sp,384
 63c:	3a0e                	fld	fs4,224(sp)
 63e:	390b3b0b          	.insn	4, 0x390b3b0b
 642:	870c270b          	.insn	4, 0x870c270b
 646:	0c01                	addi	s8,s8,0
 648:	0b20                	addi	s0,sp,408
 64a:	1301                	addi	t1,t1,-32
 64c:	0000                	unimp
 64e:	054d                	addi	a0,a0,19
 650:	0300                	addi	s0,sp,384
 652:	3a0e                	fld	fs4,224(sp)
 654:	390b3b0b          	.insn	4, 0x390b3b0b
 658:	0213490b          	.insn	4, 0x0213490b
 65c:	000a                	c.slli	zero,0x2
 65e:	4e00                	lw	s0,24(a2)
 660:	0005                	c.nop	1
 662:	1331                	addi	t1,t1,-20
 664:	051c                	addi	a5,sp,640
 666:	0000                	unimp
 668:	11010b4f          	fnmadd.s	fs6,ft2,fa6,ft2,rne
 66c:	1201                	addi	tp,tp,-32 # ffffffffffffffe0 <__global_pointer$+0xffffffff7fffe798>
 66e:	0001                	nop
 670:	5000                	lw	s0,32(s0)
 672:	0034                	addi	a3,sp,8
 674:	0b3a0e03          	lb	t3,179(s4)
 678:	0b390b3b          	.insn	4, 0x0b390b3b
 67c:	1349                	addi	t1,t1,-14
 67e:	061c                	addi	a5,sp,768
 680:	0000                	unimp
 682:	2e51                	addiw	t3,t3,20
 684:	3101                	addiw	sp,sp,-32
 686:	12011113          	.insn	4, 0x12011113
 68a:	4001                	c.li	zero,0
 68c:	970a                	add	a4,a4,sp
 68e:	0c42                	slli	s8,s8,0x10
 690:	1301                	addi	t1,t1,-32
 692:	0000                	unimp
 694:	0552                	slli	a0,a0,0x14
 696:	3100                	fld	fs0,32(a0)
 698:	000a0213          	mv	tp,s4
 69c:	5300                	lw	s0,32(a4)
 69e:	012e                	slli	sp,sp,0xb
 6a0:	1331                	addi	t1,t1,-20
 6a2:	0111                	addi	sp,sp,4
 6a4:	0112                	slli	sp,sp,0x4
 6a6:	0640                	addi	s0,sp,772
 6a8:	010c4297          	auipc	t0,0x10c4
 6ac:	54000013          	li	zero,1344
 6b0:	1331010b          	.insn	4, 0x1331010b
 6b4:	0655                	addi	a2,a2,21
 6b6:	1301                	addi	t1,t1,-32
 6b8:	0000                	unimp
 6ba:	0b55                	addi	s6,s6,21
 6bc:	3101                	addiw	sp,sp,-32
 6be:	12011113          	.insn	4, 0x12011113
 6c2:	0001                	nop
 6c4:	5600                	lw	s0,40(a2)
 6c6:	002e                	c.slli	zero,0xb
 6c8:	0c3c0c3f 030e4087 	.insn	8, 0x030e40870c3c0c3f
 6d0:	3a0e                	fld	fs4,224(sp)
 6d2:	000b3b0b          	.insn	4, 0x000b3b0b
	...

Disassembly of section .debug_loc:

0000000000000000 <.debug_loc>:
       0:	08f0                	addi	a2,sp,92
       2:	8000                	.insn	2, 0x8000
       4:	0000                	unimp
       6:	0000                	unimp
       8:	092a                	slli	s2,s2,0xa
       a:	8000                	.insn	2, 0x8000
       c:	0000                	unimp
       e:	0000                	unimp
      10:	0002                	c.slli64	zero
      12:	0072                	c.slli	zero,0x1c
      14:	092a                	slli	s2,s2,0xa
      16:	8000                	.insn	2, 0x8000
      18:	0000                	unimp
      1a:	0000                	unimp
      1c:	09e8                	addi	a0,sp,220
      1e:	8000                	.insn	2, 0x8000
      20:	0000                	unimp
      22:	0000                	unimp
      24:	a0720003          	lb	zero,-1529(tp) # fffffffffffffa07 <__global_pointer$+0xffffffff7fffe1bf>
      28:	e802                	sd	zero,16(sp)
      2a:	0009                	c.nop	2
      2c:	0080                	addi	s0,sp,64
      2e:	0000                	unimp
      30:	ea00                	sd	s0,16(a2)
      32:	0009                	c.nop	2
      34:	0080                	addi	s0,sp,64
      36:	0000                	unimp
      38:	0200                	addi	s0,sp,256
      3a:	7200                	ld	s0,32(a2)
      3c:	ea00                	sd	s0,16(a2)
      3e:	0009                	c.nop	2
      40:	0080                	addi	s0,sp,64
      42:	0000                	unimp
      44:	ee00                	sd	s0,24(a2)
      46:	0009                	c.nop	2
      48:	0080                	addi	s0,sp,64
      4a:	0000                	unimp
      4c:	0300                	addi	s0,sp,384
      4e:	7200                	ld	s0,32(a2)
      50:	02a0                	addi	s0,sp,328
	...
      62:	0996                	slli	s3,s3,0x5
      64:	8000                	.insn	2, 0x8000
      66:	0000                	unimp
      68:	0000                	unimp
      6a:	099c                	addi	a5,sp,208
      6c:	8000                	.insn	2, 0x8000
      6e:	0000                	unimp
      70:	0000                	unimp
      72:	0002                	c.slli64	zero
      74:	9f30                	.insn	2, 0x9f30
      76:	099c                	addi	a5,sp,208
      78:	8000                	.insn	2, 0x8000
      7a:	0000                	unimp
      7c:	0000                	unimp
      7e:	09aa                	slli	s3,s3,0xa
      80:	8000                	.insn	2, 0x8000
      82:	0000                	unimp
      84:	0000                	unimp
      86:	0001                	nop
      88:	aa58                	fsd	fa4,144(a2)
      8a:	0009                	c.nop	2
      8c:	0080                	addi	s0,sp,64
      8e:	0000                	unimp
      90:	ad00                	fsd	fs0,24(a0)
      92:	0009                	c.nop	2
      94:	0080                	addi	s0,sp,64
      96:	0000                	unimp
      98:	0100                	addi	s0,sp,128
      9a:	5b00                	lw	s0,48(a4)
      9c:	09ae                	slli	s3,s3,0xb
      9e:	8000                	.insn	2, 0x8000
      a0:	0000                	unimp
      a2:	0000                	unimp
      a4:	09e0                	addi	s0,sp,220
      a6:	8000                	.insn	2, 0x8000
      a8:	0000                	unimp
      aa:	0000                	unimp
      ac:	0001                	nop
      ae:	ea58                	sd	a4,144(a2)
      b0:	0009                	c.nop	2
      b2:	0080                	addi	s0,sp,64
      b4:	0000                	unimp
      b6:	ee00                	sd	s0,24(a2)
      b8:	0009                	c.nop	2
      ba:	0080                	addi	s0,sp,64
      bc:	0000                	unimp
      be:	0100                	addi	s0,sp,128
      c0:	5800                	lw	s0,48(s0)
	...
      d2:	09ba                	slli	s3,s3,0xe
      d4:	8000                	.insn	2, 0x8000
      d6:	0000                	unimp
      d8:	0000                	unimp
      da:	09d0                	addi	a2,sp,212
      dc:	8000                	.insn	2, 0x8000
      de:	0000                	unimp
      e0:	0000                	unimp
      e2:	047a0003          	lb	zero,71(s4)
      e6:	d09f 0009 0080      	.insn	6, 0x00800009d09f
      ec:	0000                	unimp
      ee:	dc00                	sw	s0,56(s0)
      f0:	0009                	c.nop	2
      f2:	0080                	addi	s0,sp,64
      f4:	0000                	unimp
      f6:	0300                	addi	s0,sp,384
      f8:	7a00                	ld	s0,48(a2)
      fa:	9f02                	jalr	t5
      fc:	09ea                	slli	s3,s3,0x1a
      fe:	8000                	.insn	2, 0x8000
     100:	0000                	unimp
     102:	0000                	unimp
     104:	09ec                	addi	a1,sp,220
     106:	8000                	.insn	2, 0x8000
     108:	0000                	unimp
     10a:	0000                	unimp
     10c:	047a0003          	lb	zero,71(s4)
     110:	009f 0000 0000      	.insn	6, 0x009f
	...
     11e:	0000                	unimp
     120:	be00                	fsd	fs0,56(a2)
     122:	0009                	c.nop	2
     124:	0080                	addi	s0,sp,64
     126:	0000                	unimp
     128:	dc00                	sw	s0,56(s0)
     12a:	0009                	c.nop	2
     12c:	0080                	addi	s0,sp,64
     12e:	0000                	unimp
     130:	0100                	addi	s0,sp,128
     132:	5d00                	lw	s0,56(a0)
     134:	09ea                	slli	s3,s3,0x1a
     136:	8000                	.insn	2, 0x8000
     138:	0000                	unimp
     13a:	0000                	unimp
     13c:	09ee                	slli	s3,s3,0x1b
     13e:	8000                	.insn	2, 0x8000
     140:	0000                	unimp
     142:	0000                	unimp
     144:	0001                	nop
     146:	005d                	c.nop	23
	...
     154:	0000                	unimp
     156:	ca00                	sw	s0,16(a2)
     158:	0009                	c.nop	2
     15a:	0080                	addi	s0,sp,64
     15c:	0000                	unimp
     15e:	dc00                	sw	s0,56(s0)
     160:	0009                	c.nop	2
     162:	0080                	addi	s0,sp,64
     164:	0000                	unimp
     166:	0100                	addi	s0,sp,128
     168:	5e00                	lw	s0,56(a2)
     16a:	09ea                	slli	s3,s3,0x1a
     16c:	8000                	.insn	2, 0x8000
     16e:	0000                	unimp
     170:	0000                	unimp
     172:	09ee                	slli	s3,s3,0x1b
     174:	8000                	.insn	2, 0x8000
     176:	0000                	unimp
     178:	0000                	unimp
     17a:	0001                	nop
     17c:	005e                	c.slli	zero,0x17
	...
     18a:	0000                	unimp
     18c:	ca00                	sw	s0,16(a2)
     18e:	0009                	c.nop	2
     190:	0080                	addi	s0,sp,64
     192:	0000                	unimp
     194:	d600                	sw	s0,40(a2)
     196:	0009                	c.nop	2
     198:	0080                	addi	s0,sp,64
     19a:	0000                	unimp
     19c:	0200                	addi	s0,sp,256
     19e:	7f00                	ld	s0,56(a4)
     1a0:	d600                	sw	s0,40(a2)
     1a2:	0009                	c.nop	2
     1a4:	0080                	addi	s0,sp,64
     1a6:	0000                	unimp
     1a8:	dc00                	sw	s0,56(s0)
     1aa:	0009                	c.nop	2
     1ac:	0080                	addi	s0,sp,64
     1ae:	0000                	unimp
     1b0:	0200                	addi	s0,sp,256
     1b2:	7f00                	ld	s0,56(a4)
     1b4:	ea78                	sd	a4,208(a2)
     1b6:	0009                	c.nop	2
     1b8:	0080                	addi	s0,sp,64
     1ba:	0000                	unimp
     1bc:	ee00                	sd	s0,24(a2)
     1be:	0009                	c.nop	2
     1c0:	0080                	addi	s0,sp,64
     1c2:	0000                	unimp
     1c4:	0100                	addi	s0,sp,128
     1c6:	5c00                	lw	s0,56(s0)
	...
     1d8:	09ca                	slli	s3,s3,0x12
     1da:	8000                	.insn	2, 0x8000
     1dc:	0000                	unimp
     1de:	0000                	unimp
     1e0:	09d6                	slli	s3,s3,0x15
     1e2:	8000                	.insn	2, 0x8000
     1e4:	0000                	unimp
     1e6:	0000                	unimp
     1e8:	0002                	c.slli64	zero
     1ea:	047f 09d6 8000 0000 	.insn	10, 0x800009d6047f
     1f2:	0000 
     1f4:	09dc                	addi	a5,sp,212
     1f6:	8000                	.insn	2, 0x8000
     1f8:	0000                	unimp
     1fa:	0000                	unimp
     1fc:	0002                	c.slli64	zero
     1fe:	7c7f                	.insn	2, 0x7c7f
     200:	09ea                	slli	s3,s3,0x1a
     202:	8000                	.insn	2, 0x8000
     204:	0000                	unimp
     206:	0000                	unimp
     208:	09ee                	slli	s3,s3,0x1b
     20a:	8000                	.insn	2, 0x8000
     20c:	0000                	unimp
     20e:	0000                	unimp
     210:	0001                	nop
     212:	0000005b          	.insn	4, 0x005b
	...
     222:	8200                	.insn	2, 0x8200
     224:	0008                	.insn	2, 0x0008
     226:	0080                	addi	s0,sp,64
     228:	0000                	unimp
     22a:	9200                	.insn	2, 0x9200
     22c:	0008                	.insn	2, 0x0008
     22e:	0080                	addi	s0,sp,64
     230:	0000                	unimp
     232:	0100                	addi	s0,sp,128
     234:	5a00                	lw	s0,48(a2)
     236:	0892                	slli	a7,a7,0x4
     238:	8000                	.insn	2, 0x8000
     23a:	0000                	unimp
     23c:	0000                	unimp
     23e:	08b8                	addi	a4,sp,88
     240:	8000                	.insn	2, 0x8000
     242:	0000                	unimp
     244:	0000                	unimp
     246:	0001                	nop
     248:	b85f 0008 0080      	.insn	6, 0x00800008b85f
     24e:	0000                	unimp
     250:	c800                	sw	s0,16(s0)
     252:	0008                	.insn	2, 0x0008
     254:	0080                	addi	s0,sp,64
     256:	0000                	unimp
     258:	0300                	addi	s0,sp,384
     25a:	7f00                	ld	s0,56(a4)
     25c:	08c89f7f 00008000 	.insn	12, 0x08e200000000800008c89f7f
     264:	08e20000 
     268:	8000                	.insn	2, 0x8000
     26a:	0000                	unimp
     26c:	0000                	unimp
     26e:	0001                	nop
     270:	e25f 0008 0080      	.insn	6, 0x00800008e25f
     276:	0000                	unimp
     278:	ea00                	sd	s0,16(a2)
     27a:	0008                	.insn	2, 0x0008
     27c:	0080                	addi	s0,sp,64
     27e:	0000                	unimp
     280:	0300                	addi	s0,sp,384
     282:	7f00                	ld	s0,56(a4)
     284:	9f01                	subw	a4,a4,s0
     286:	08ea                	slli	a7,a7,0x1a
     288:	8000                	.insn	2, 0x8000
     28a:	0000                	unimp
     28c:	0000                	unimp
     28e:	08f0                	addi	a2,sp,92
     290:	8000                	.insn	2, 0x8000
     292:	0000                	unimp
     294:	0000                	unimp
     296:	0001                	nop
     298:	005f 0000 0000      	.insn	6, 0x005f
	...
     2a6:	0000                	unimp
     2a8:	8200                	.insn	2, 0x8200
     2aa:	0008                	.insn	2, 0x0008
     2ac:	0080                	addi	s0,sp,64
     2ae:	0000                	unimp
     2b0:	b600                	fsd	fs0,40(a2)
     2b2:	0008                	.insn	2, 0x0008
     2b4:	0080                	addi	s0,sp,64
     2b6:	0000                	unimp
     2b8:	0200                	addi	s0,sp,256
     2ba:	3000                	fld	fs0,32(s0)
     2bc:	b69f 0008 0080      	.insn	6, 0x00800008b69f
     2c2:	0000                	unimp
     2c4:	c800                	sw	s0,16(s0)
     2c6:	0008                	.insn	2, 0x0008
     2c8:	0080                	addi	s0,sp,64
     2ca:	0000                	unimp
     2cc:	0100                	addi	s0,sp,128
     2ce:	5a00                	lw	s0,48(a2)
     2d0:	08c8                	addi	a0,sp,84
     2d2:	8000                	.insn	2, 0x8000
     2d4:	0000                	unimp
     2d6:	0000                	unimp
     2d8:	08cc                	addi	a1,sp,84
     2da:	8000                	.insn	2, 0x8000
     2dc:	0000                	unimp
     2de:	0000                	unimp
     2e0:	0001                	nop
     2e2:	cc5e                	sw	s7,24(sp)
     2e4:	0008                	.insn	2, 0x0008
     2e6:	0080                	addi	s0,sp,64
     2e8:	0000                	unimp
     2ea:	d400                	sw	s0,40(s0)
     2ec:	0008                	.insn	2, 0x0008
     2ee:	0080                	addi	s0,sp,64
     2f0:	0000                	unimp
     2f2:	0100                	addi	s0,sp,128
     2f4:	5a00                	lw	s0,48(a2)
     2f6:	08d4                	addi	a3,sp,84
     2f8:	8000                	.insn	2, 0x8000
     2fa:	0000                	unimp
     2fc:	0000                	unimp
     2fe:	08d6                	slli	a7,a7,0x15
     300:	8000                	.insn	2, 0x8000
     302:	0000                	unimp
     304:	0000                	unimp
     306:	0004                	.insn	2, 0x0004
     308:	007a                	c.slli	zero,0x1e
     30a:	9f1f 08d6 8000      	.insn	6, 0x800008d69f1f
     310:	0000                	unimp
     312:	0000                	unimp
     314:	08ee                	slli	a7,a7,0x1b
     316:	8000                	.insn	2, 0x8000
     318:	0000                	unimp
     31a:	0000                	unimp
     31c:	0002                	c.slli64	zero
     31e:	9f30                	.insn	2, 0x9f30
	...
     330:	0882                	c.slli64	a7
     332:	8000                	.insn	2, 0x8000
     334:	0000                	unimp
     336:	0000                	unimp
     338:	08b4                	addi	a3,sp,88
     33a:	8000                	.insn	2, 0x8000
     33c:	0000                	unimp
     33e:	0000                	unimp
     340:	0002                	c.slli64	zero
     342:	9f30                	.insn	2, 0x9f30
     344:	08b6                	slli	a7,a7,0xd
     346:	8000                	.insn	2, 0x8000
     348:	0000                	unimp
     34a:	0000                	unimp
     34c:	08d6                	slli	a7,a7,0x15
     34e:	8000                	.insn	2, 0x8000
     350:	0000                	unimp
     352:	0000                	unimp
     354:	0001                	nop
     356:	0008d65b          	.insn	4, 0x0008d65b
     35a:	0080                	addi	s0,sp,64
     35c:	0000                	unimp
     35e:	e200                	sd	s0,0(a2)
     360:	0008                	.insn	2, 0x0008
     362:	0080                	addi	s0,sp,64
     364:	0000                	unimp
     366:	0200                	addi	s0,sp,256
     368:	3000                	fld	fs0,32(s0)
     36a:	e29f 0008 0080      	.insn	6, 0x00800008e29f
     370:	0000                	unimp
     372:	ec00                	sd	s0,24(s0)
     374:	0008                	.insn	2, 0x0008
     376:	0080                	addi	s0,sp,64
     378:	0000                	unimp
     37a:	0200                	addi	s0,sp,256
     37c:	3100                	fld	fs0,32(a0)
     37e:	009f 0000 0000      	.insn	6, 0x009f
	...
     38c:	0000                	unimp
     38e:	7000                	ld	s0,32(s0)
     390:	0008                	.insn	2, 0x0008
     392:	0080                	addi	s0,sp,64
     394:	0000                	unimp
     396:	7800                	ld	s0,48(s0)
     398:	0008                	.insn	2, 0x0008
     39a:	0080                	addi	s0,sp,64
     39c:	0000                	unimp
     39e:	0100                	addi	s0,sp,128
     3a0:	5b00                	lw	s0,48(a4)
     3a2:	0878                	addi	a4,sp,28
     3a4:	8000                	.insn	2, 0x8000
     3a6:	0000                	unimp
     3a8:	0000                	unimp
     3aa:	0882                	c.slli64	a7
     3ac:	8000                	.insn	2, 0x8000
     3ae:	0000                	unimp
     3b0:	0000                	unimp
     3b2:	0001                	nop
     3b4:	0000005b          	.insn	4, 0x005b
	...
     3c4:	7000                	ld	s0,32(s0)
     3c6:	0008                	.insn	2, 0x0008
     3c8:	0080                	addi	s0,sp,64
     3ca:	0000                	unimp
     3cc:	7200                	ld	s0,32(a2)
     3ce:	0008                	.insn	2, 0x0008
     3d0:	0080                	addi	s0,sp,64
     3d2:	0000                	unimp
     3d4:	0100                	addi	s0,sp,128
     3d6:	5a00                	lw	s0,48(a2)
     3d8:	0872                	slli	a6,a6,0x1c
     3da:	8000                	.insn	2, 0x8000
     3dc:	0000                	unimp
     3de:	0000                	unimp
     3e0:	0882                	c.slli64	a7
     3e2:	8000                	.insn	2, 0x8000
     3e4:	0000                	unimp
     3e6:	0000                	unimp
     3e8:	0001                	nop
     3ea:	005f 0000 0000      	.insn	6, 0x005f
	...
     3f8:	0000                	unimp
     3fa:	5200                	lw	s0,32(a2)
     3fc:	0008                	.insn	2, 0x0008
     3fe:	0080                	addi	s0,sp,64
     400:	0000                	unimp
     402:	5200                	lw	s0,32(a2)
     404:	0008                	.insn	2, 0x0008
     406:	0080                	addi	s0,sp,64
     408:	0000                	unimp
     40a:	0100                	addi	s0,sp,128
     40c:	5a00                	lw	s0,48(a2)
     40e:	0852                	slli	a6,a6,0x14
     410:	8000                	.insn	2, 0x8000
     412:	0000                	unimp
     414:	0000                	unimp
     416:	0858                	addi	a4,sp,20
     418:	8000                	.insn	2, 0x8000
     41a:	0000                	unimp
     41c:	0000                	unimp
     41e:	0004                	.insn	2, 0x0004
     420:	9f5a01f3          	.insn	4, 0x9f5a01f3
     424:	0858                	addi	a4,sp,20
     426:	8000                	.insn	2, 0x8000
     428:	0000                	unimp
     42a:	0000                	unimp
     42c:	0868                	addi	a0,sp,28
     42e:	8000                	.insn	2, 0x8000
     430:	0000                	unimp
     432:	0000                	unimp
     434:	0001                	nop
     436:	685a                	ld	a6,400(sp)
     438:	0008                	.insn	2, 0x0008
     43a:	0080                	addi	s0,sp,64
     43c:	0000                	unimp
     43e:	6c00                	ld	s0,24(s0)
     440:	0008                	.insn	2, 0x0008
     442:	0080                	addi	s0,sp,64
     444:	0000                	unimp
     446:	0600                	addi	s0,sp,768
     448:	f300                	sd	s0,32(a4)
     44a:	5a01                	li	s4,-32
     44c:	6c9f0123          	sb	s1,1730(t5)
     450:	0008                	.insn	2, 0x0008
     452:	0080                	addi	s0,sp,64
     454:	0000                	unimp
     456:	6e00                	ld	s0,24(a2)
     458:	0008                	.insn	2, 0x0008
     45a:	0080                	addi	s0,sp,64
     45c:	0000                	unimp
     45e:	0100                	addi	s0,sp,128
     460:	5a00                	lw	s0,48(a2)
     462:	086e                	slli	a6,a6,0x1b
     464:	8000                	.insn	2, 0x8000
     466:	0000                	unimp
     468:	0000                	unimp
     46a:	0870                	addi	a2,sp,28
     46c:	8000                	.insn	2, 0x8000
     46e:	0000                	unimp
     470:	0000                	unimp
     472:	0006                	c.slli	zero,0x1
     474:	235a01f3          	.insn	4, 0x235a01f3
     478:	9f01                	subw	a4,a4,s0
	...
     48a:	0852                	slli	a6,a6,0x14
     48c:	8000                	.insn	2, 0x8000
     48e:	0000                	unimp
     490:	0000                	unimp
     492:	0852                	slli	a6,a6,0x14
     494:	8000                	.insn	2, 0x8000
     496:	0000                	unimp
     498:	0000                	unimp
     49a:	0001                	nop
     49c:	0008525b          	.insn	4, 0x0008525b
     4a0:	0080                	addi	s0,sp,64
     4a2:	0000                	unimp
     4a4:	5a00                	lw	s0,48(a2)
     4a6:	0008                	.insn	2, 0x0008
     4a8:	0080                	addi	s0,sp,64
     4aa:	0000                	unimp
     4ac:	0400                	addi	s0,sp,512
     4ae:	f300                	sd	s0,32(a4)
     4b0:	5b01                	li	s6,-32
     4b2:	5a9f 0008 0080      	.insn	6, 0x008000085a9f
     4b8:	0000                	unimp
     4ba:	7000                	ld	s0,32(s0)
     4bc:	0008                	.insn	2, 0x0008
     4be:	0080                	addi	s0,sp,64
     4c0:	0000                	unimp
     4c2:	0100                	addi	s0,sp,128
     4c4:	5b00                	lw	s0,48(a4)
	...
     4d6:	0818                	addi	a4,sp,16
     4d8:	8000                	.insn	2, 0x8000
     4da:	0000                	unimp
     4dc:	0000                	unimp
     4de:	082c                	addi	a1,sp,24
     4e0:	8000                	.insn	2, 0x8000
     4e2:	0000                	unimp
     4e4:	0000                	unimp
     4e6:	0001                	nop
     4e8:	2c5a                	fld	fs8,400(sp)
     4ea:	0008                	.insn	2, 0x0008
     4ec:	0080                	addi	s0,sp,64
     4ee:	0000                	unimp
     4f0:	2e00                	fld	fs0,24(a2)
     4f2:	0008                	.insn	2, 0x0008
     4f4:	0080                	addi	s0,sp,64
     4f6:	0000                	unimp
     4f8:	0400                	addi	s0,sp,512
     4fa:	f300                	sd	s0,32(a4)
     4fc:	5a01                	li	s4,-32
     4fe:	2e9f 0008 0080      	.insn	6, 0x008000082e9f
     504:	0000                	unimp
     506:	3000                	fld	fs0,32(s0)
     508:	0008                	.insn	2, 0x0008
     50a:	0080                	addi	s0,sp,64
     50c:	0000                	unimp
     50e:	0100                	addi	s0,sp,128
     510:	5a00                	lw	s0,48(a2)
     512:	0830                	addi	a2,sp,24
     514:	8000                	.insn	2, 0x8000
     516:	0000                	unimp
     518:	0000                	unimp
     51a:	0832                	slli	a6,a6,0xc
     51c:	8000                	.insn	2, 0x8000
     51e:	0000                	unimp
     520:	0000                	unimp
     522:	0004                	.insn	2, 0x0004
     524:	9f5a01f3          	.insn	4, 0x9f5a01f3
	...
     538:	0818                	addi	a4,sp,16
     53a:	8000                	.insn	2, 0x8000
     53c:	0000                	unimp
     53e:	0000                	unimp
     540:	0820                	addi	s0,sp,24
     542:	8000                	.insn	2, 0x8000
     544:	0000                	unimp
     546:	0000                	unimp
     548:	0001                	nop
     54a:	205a                	fld	ft0,400(sp)
     54c:	0008                	.insn	2, 0x0008
     54e:	0080                	addi	s0,sp,64
     550:	0000                	unimp
     552:	2e00                	fld	fs0,24(a2)
     554:	0008                	.insn	2, 0x0008
     556:	0080                	addi	s0,sp,64
     558:	0000                	unimp
     55a:	0100                	addi	s0,sp,128
     55c:	5f00                	lw	s0,56(a4)
     55e:	082e                	slli	a6,a6,0xb
     560:	8000                	.insn	2, 0x8000
     562:	0000                	unimp
     564:	0000                	unimp
     566:	0830                	addi	a2,sp,24
     568:	8000                	.insn	2, 0x8000
     56a:	0000                	unimp
     56c:	0000                	unimp
     56e:	0001                	nop
     570:	305a                	fld	ft0,432(sp)
     572:	0008                	.insn	2, 0x0008
     574:	0080                	addi	s0,sp,64
     576:	0000                	unimp
     578:	3200                	fld	fs0,32(a2)
     57a:	0008                	.insn	2, 0x0008
     57c:	0080                	addi	s0,sp,64
     57e:	0000                	unimp
     580:	0400                	addi	s0,sp,512
     582:	f300                	sd	s0,32(a4)
     584:	5a01                	li	s4,-32
     586:	009f 0000 0000      	.insn	6, 0x009f
	...
     594:	0000                	unimp
     596:	9600                	.insn	2, 0x9600
     598:	0006                	c.slli	zero,0x1
     59a:	0080                	addi	s0,sp,64
     59c:	0000                	unimp
     59e:	9800                	.insn	2, 0x9800
     5a0:	0006                	c.slli	zero,0x1
     5a2:	0080                	addi	s0,sp,64
     5a4:	0000                	unimp
     5a6:	0200                	addi	s0,sp,256
     5a8:	7200                	ld	s0,32(a2)
     5aa:	9800                	.insn	2, 0x9800
     5ac:	0006                	c.slli	zero,0x1
     5ae:	0080                	addi	s0,sp,64
     5b0:	0000                	unimp
     5b2:	d400                	sw	s0,40(s0)
     5b4:	0006                	c.slli	zero,0x1
     5b6:	0080                	addi	s0,sp,64
     5b8:	0000                	unimp
     5ba:	0300                	addi	s0,sp,384
     5bc:	7200                	ld	s0,32(a2)
     5be:	00e0                	addi	s0,sp,76
     5c0:	06d4                	addi	a3,sp,836
     5c2:	8000                	.insn	2, 0x8000
     5c4:	0000                	unimp
     5c6:	0000                	unimp
     5c8:	06d6                	slli	a3,a3,0x15
     5ca:	8000                	.insn	2, 0x8000
     5cc:	0000                	unimp
     5ce:	0000                	unimp
     5d0:	0002                	c.slli64	zero
     5d2:	0072                	c.slli	zero,0x1c
	...
     5e4:	0696                	slli	a3,a3,0x5
     5e6:	8000                	.insn	2, 0x8000
     5e8:	0000                	unimp
     5ea:	0000                	unimp
     5ec:	06b0                	addi	a2,sp,840
     5ee:	8000                	.insn	2, 0x8000
     5f0:	0000                	unimp
     5f2:	0000                	unimp
     5f4:	0001                	nop
     5f6:	b05a                	fsd	fs6,32(sp)
     5f8:	0006                	c.slli	zero,0x1
     5fa:	0080                	addi	s0,sp,64
     5fc:	0000                	unimp
     5fe:	c300                	sw	s0,0(a4)
     600:	0006                	c.slli	zero,0x1
     602:	0080                	addi	s0,sp,64
     604:	0000                	unimp
     606:	0100                	addi	s0,sp,128
     608:	5800                	lw	s0,48(s0)
	...
     61a:	0696                	slli	a3,a3,0x5
     61c:	8000                	.insn	2, 0x8000
     61e:	0000                	unimp
     620:	0000                	unimp
     622:	06b2                	slli	a3,a3,0xc
     624:	8000                	.insn	2, 0x8000
     626:	0000                	unimp
     628:	0000                	unimp
     62a:	0001                	nop
     62c:	0006b25b          	.insn	4, 0x0006b25b
     630:	0080                	addi	s0,sp,64
     632:	0000                	unimp
     634:	c300                	sw	s0,0(a4)
     636:	0006                	c.slli	zero,0x1
     638:	0080                	addi	s0,sp,64
     63a:	0000                	unimp
     63c:	0100                	addi	s0,sp,128
     63e:	5c00                	lw	s0,56(s0)
     640:	800006c3          	fmadd.s	fa3,ft0,ft0,fa6,rne
     644:	0000                	unimp
     646:	0000                	unimp
     648:	06d6                	slli	a3,a3,0x15
     64a:	8000                	.insn	2, 0x8000
     64c:	0000                	unimp
     64e:	0000                	unimp
     650:	0004                	.insn	2, 0x0004
     652:	9f5b01f3          	.insn	4, 0x9f5b01f3
	...
     666:	06b0                	addi	a2,sp,840
     668:	8000                	.insn	2, 0x8000
     66a:	0000                	unimp
     66c:	0000                	unimp
     66e:	06d2                	slli	a3,a3,0x14
     670:	8000                	.insn	2, 0x8000
     672:	0000                	unimp
     674:	0000                	unimp
     676:	0001                	nop
     678:	d258                	sw	a4,36(a2)
     67a:	0006                	c.slli	zero,0x1
     67c:	0080                	addi	s0,sp,64
     67e:	0000                	unimp
     680:	d600                	sw	s0,40(a2)
     682:	0006                	c.slli	zero,0x1
     684:	0080                	addi	s0,sp,64
     686:	0000                	unimp
     688:	0400                	addi	s0,sp,512
     68a:	f300                	sd	s0,32(a4)
     68c:	5a01                	li	s4,-32
     68e:	009f 0000 0000      	.insn	6, 0x009f
	...
     69c:	0000                	unimp
     69e:	6400                	ld	s0,8(s0)
     6a0:	0006                	c.slli	zero,0x1
     6a2:	0080                	addi	s0,sp,64
     6a4:	0000                	unimp
     6a6:	6600                	ld	s0,8(a2)
     6a8:	0006                	c.slli	zero,0x1
     6aa:	0080                	addi	s0,sp,64
     6ac:	0000                	unimp
     6ae:	0200                	addi	s0,sp,256
     6b0:	7200                	ld	s0,32(a2)
     6b2:	6600                	ld	s0,8(a2)
     6b4:	0006                	c.slli	zero,0x1
     6b6:	0080                	addi	s0,sp,64
     6b8:	0000                	unimp
     6ba:	9400                	.insn	2, 0x9400
     6bc:	0006                	c.slli	zero,0x1
     6be:	0080                	addi	s0,sp,64
     6c0:	0000                	unimp
     6c2:	0300                	addi	s0,sp,384
     6c4:	7200                	ld	s0,32(a2)
     6c6:	00e0                	addi	s0,sp,76
     6c8:	0694                	addi	a3,sp,832
     6ca:	8000                	.insn	2, 0x8000
     6cc:	0000                	unimp
     6ce:	0000                	unimp
     6d0:	0696                	slli	a3,a3,0x5
     6d2:	8000                	.insn	2, 0x8000
     6d4:	0000                	unimp
     6d6:	0000                	unimp
     6d8:	0002                	c.slli64	zero
     6da:	0072                	c.slli	zero,0x1c
	...
     6ec:	0664                	addi	s1,sp,780
     6ee:	8000                	.insn	2, 0x8000
     6f0:	0000                	unimp
     6f2:	0000                	unimp
     6f4:	067c                	addi	a5,sp,780
     6f6:	8000                	.insn	2, 0x8000
     6f8:	0000                	unimp
     6fa:	0000                	unimp
     6fc:	0001                	nop
     6fe:	7c5a                	ld	s8,432(sp)
     700:	0006                	c.slli	zero,0x1
     702:	0080                	addi	s0,sp,64
     704:	0000                	unimp
     706:	8d00                	.insn	2, 0x8d00
     708:	0006                	c.slli	zero,0x1
     70a:	0080                	addi	s0,sp,64
     70c:	0000                	unimp
     70e:	0100                	addi	s0,sp,128
     710:	5c00                	lw	s0,56(s0)
     712:	068d                	addi	a3,a3,3
     714:	8000                	.insn	2, 0x8000
     716:	0000                	unimp
     718:	0000                	unimp
     71a:	0696                	slli	a3,a3,0x5
     71c:	8000                	.insn	2, 0x8000
     71e:	0000                	unimp
     720:	0000                	unimp
     722:	0004                	.insn	2, 0x0004
     724:	9f5a01f3          	.insn	4, 0x9f5a01f3
	...
     738:	01f0                	addi	a2,sp,204
     73a:	8000                	.insn	2, 0x8000
     73c:	0000                	unimp
     73e:	0000                	unimp
     740:	01f2                	slli	gp,gp,0x1c
     742:	8000                	.insn	2, 0x8000
     744:	0000                	unimp
     746:	0000                	unimp
     748:	0002                	c.slli64	zero
     74a:	0072                	c.slli	zero,0x1c
     74c:	01f2                	slli	gp,gp,0x1c
     74e:	8000                	.insn	2, 0x8000
     750:	0000                	unimp
     752:	0000                	unimp
     754:	0278                	addi	a4,sp,268
     756:	8000                	.insn	2, 0x8000
     758:	0000                	unimp
     75a:	0000                	unimp
     75c:	f0720003          	lb	zero,-249(tp) # ffffffffffffff07 <__global_pointer$+0xffffffff7fffe6bf>
     760:	7802                	ld	a6,32(sp)
     762:	0002                	c.slli64	zero
     764:	0080                	addi	s0,sp,64
     766:	0000                	unimp
     768:	7a00                	ld	s0,48(a2)
     76a:	0002                	c.slli64	zero
     76c:	0080                	addi	s0,sp,64
     76e:	0000                	unimp
     770:	0200                	addi	s0,sp,256
     772:	7200                	ld	s0,32(a2)
     774:	7a00                	ld	s0,48(a2)
     776:	0002                	c.slli64	zero
     778:	0080                	addi	s0,sp,64
     77a:	0000                	unimp
     77c:	c600                	sw	s0,8(a2)
     77e:	0004                	.insn	2, 0x0004
     780:	0080                	addi	s0,sp,64
     782:	0000                	unimp
     784:	0300                	addi	s0,sp,384
     786:	7200                	ld	s0,32(a2)
     788:	02f0                	addi	a2,sp,332
	...
     79a:	01f0                	addi	a2,sp,204
     79c:	8000                	.insn	2, 0x8000
     79e:	0000                	unimp
     7a0:	0000                	unimp
     7a2:	0220                	addi	s0,sp,264
     7a4:	8000                	.insn	2, 0x8000
     7a6:	0000                	unimp
     7a8:	0000                	unimp
     7aa:	0001                	nop
     7ac:	205a                	fld	ft0,400(sp)
     7ae:	0002                	c.slli64	zero
     7b0:	0080                	addi	s0,sp,64
     7b2:	0000                	unimp
     7b4:	6600                	ld	s0,8(a2)
     7b6:	0002                	c.slli64	zero
     7b8:	0080                	addi	s0,sp,64
     7ba:	0000                	unimp
     7bc:	0100                	addi	s0,sp,128
     7be:	6200                	ld	s0,0(a2)
     7c0:	0266                	slli	tp,tp,0x19
     7c2:	8000                	.insn	2, 0x8000
     7c4:	0000                	unimp
     7c6:	0000                	unimp
     7c8:	027a                	slli	tp,tp,0x1e
     7ca:	8000                	.insn	2, 0x8000
     7cc:	0000                	unimp
     7ce:	0000                	unimp
     7d0:	0004                	.insn	2, 0x0004
     7d2:	9f5a01f3          	.insn	4, 0x9f5a01f3
     7d6:	027a                	slli	tp,tp,0x1e
     7d8:	8000                	.insn	2, 0x8000
     7da:	0000                	unimp
     7dc:	0000                	unimp
     7de:	04c6                	slli	s1,s1,0x11
     7e0:	8000                	.insn	2, 0x8000
     7e2:	0000                	unimp
     7e4:	0000                	unimp
     7e6:	0001                	nop
     7e8:	0062                	c.slli	zero,0x18
	...
     7f6:	0000                	unimp
     7f8:	f000                	sd	s0,32(s0)
     7fa:	0001                	nop
     7fc:	0080                	addi	s0,sp,64
     7fe:	0000                	unimp
     800:	2000                	fld	fs0,0(s0)
     802:	0002                	c.slli64	zero
     804:	0080                	addi	s0,sp,64
     806:	0000                	unimp
     808:	0100                	addi	s0,sp,128
     80a:	5b00                	lw	s0,48(a4)
     80c:	0220                	addi	s0,sp,264
     80e:	8000                	.insn	2, 0x8000
     810:	0000                	unimp
     812:	0000                	unimp
     814:	0264                	addi	s1,sp,268
     816:	8000                	.insn	2, 0x8000
     818:	0000                	unimp
     81a:	0000                	unimp
     81c:	0001                	nop
     81e:	6459                	lui	s0,0x16
     820:	0002                	c.slli64	zero
     822:	0080                	addi	s0,sp,64
     824:	0000                	unimp
     826:	7a00                	ld	s0,48(a2)
     828:	0002                	c.slli64	zero
     82a:	0080                	addi	s0,sp,64
     82c:	0000                	unimp
     82e:	0400                	addi	s0,sp,512
     830:	f300                	sd	s0,32(a4)
     832:	5b01                	li	s6,-32
     834:	7a9f 0002 0080      	.insn	6, 0x008000027a9f
     83a:	0000                	unimp
     83c:	c600                	sw	s0,8(a2)
     83e:	0004                	.insn	2, 0x0004
     840:	0080                	addi	s0,sp,64
     842:	0000                	unimp
     844:	0100                	addi	s0,sp,128
     846:	5900                	lw	s0,48(a0)
	...
     858:	01f0                	addi	a2,sp,204
     85a:	8000                	.insn	2, 0x8000
     85c:	0000                	unimp
     85e:	0000                	unimp
     860:	0220                	addi	s0,sp,264
     862:	8000                	.insn	2, 0x8000
     864:	0000                	unimp
     866:	0000                	unimp
     868:	0001                	nop
     86a:	205c                	fld	fa5,128(s0)
     86c:	0002                	c.slli64	zero
     86e:	0080                	addi	s0,sp,64
     870:	0000                	unimp
     872:	3800                	fld	fs0,48(s0)
     874:	0002                	c.slli64	zero
     876:	0080                	addi	s0,sp,64
     878:	0000                	unimp
     87a:	0100                	addi	s0,sp,128
     87c:	5800                	lw	s0,48(s0)
     87e:	0238                	addi	a4,sp,264
     880:	8000                	.insn	2, 0x8000
     882:	0000                	unimp
     884:	0000                	unimp
     886:	0244                	addi	s1,sp,260
     888:	8000                	.insn	2, 0x8000
     88a:	0000                	unimp
     88c:	0000                	unimp
     88e:	0001                	nop
     890:	00024463          	bltz	tp,898 <_start-0x7ffff768>
     894:	0080                	addi	s0,sp,64
     896:	0000                	unimp
     898:	5000                	lw	s0,32(s0)
     89a:	0002                	c.slli64	zero
     89c:	0080                	addi	s0,sp,64
     89e:	0000                	unimp
     8a0:	0100                	addi	s0,sp,128
     8a2:	5e00                	lw	s0,56(a2)
     8a4:	0250                	addi	a2,sp,260
     8a6:	8000                	.insn	2, 0x8000
     8a8:	0000                	unimp
     8aa:	0000                	unimp
     8ac:	0262                	slli	tp,tp,0x18
     8ae:	8000                	.insn	2, 0x8000
     8b0:	0000                	unimp
     8b2:	0000                	unimp
     8b4:	0001                	nop
     8b6:	7a58                	ld	a4,176(a2)
     8b8:	0002                	c.slli64	zero
     8ba:	0080                	addi	s0,sp,64
     8bc:	0000                	unimp
     8be:	8200                	.insn	2, 0x8200
     8c0:	0002                	c.slli64	zero
     8c2:	0080                	addi	s0,sp,64
     8c4:	0000                	unimp
     8c6:	0100                	addi	s0,sp,128
     8c8:	5800                	lw	s0,48(s0)
     8ca:	0282                	c.slli64	t0
     8cc:	8000                	.insn	2, 0x8000
     8ce:	0000                	unimp
     8d0:	0000                	unimp
     8d2:	0286                	slli	t0,t0,0x1
     8d4:	8000                	.insn	2, 0x8000
     8d6:	0000                	unimp
     8d8:	0000                	unimp
     8da:	0001                	nop
     8dc:	865e                	mv	a2,s7
     8de:	0002                	c.slli64	zero
     8e0:	0080                	addi	s0,sp,64
     8e2:	0000                	unimp
     8e4:	9a00                	.insn	2, 0x9a00
     8e6:	0002                	c.slli64	zero
     8e8:	0080                	addi	s0,sp,64
     8ea:	0000                	unimp
     8ec:	0100                	addi	s0,sp,128
     8ee:	5800                	lw	s0,48(s0)
     8f0:	029a                	slli	t0,t0,0x6
     8f2:	8000                	.insn	2, 0x8000
     8f4:	0000                	unimp
     8f6:	0000                	unimp
     8f8:	029e                	slli	t0,t0,0x7
     8fa:	8000                	.insn	2, 0x8000
     8fc:	0000                	unimp
     8fe:	0000                	unimp
     900:	0001                	nop
     902:	00029e63          	bnez	t0,91e <_start-0x7ffff6e2>
     906:	0080                	addi	s0,sp,64
     908:	0000                	unimp
     90a:	b600                	fsd	fs0,40(a2)
     90c:	0002                	c.slli64	zero
     90e:	0080                	addi	s0,sp,64
     910:	0000                	unimp
     912:	0100                	addi	s0,sp,128
     914:	5800                	lw	s0,48(s0)
     916:	02b6                	slli	t0,t0,0xd
     918:	8000                	.insn	2, 0x8000
     91a:	0000                	unimp
     91c:	0000                	unimp
     91e:	02e4                	addi	s1,sp,332
     920:	8000                	.insn	2, 0x8000
     922:	0000                	unimp
     924:	0000                	unimp
     926:	0001                	nop
     928:	e45e                	sd	s7,8(sp)
     92a:	0002                	c.slli64	zero
     92c:	0080                	addi	s0,sp,64
     92e:	0000                	unimp
     930:	c600                	sw	s0,8(a2)
     932:	0004                	.insn	2, 0x0004
     934:	0080                	addi	s0,sp,64
     936:	0000                	unimp
     938:	0100                	addi	s0,sp,128
     93a:	5800                	lw	s0,48(s0)
	...
     94c:	01f0                	addi	a2,sp,204
     94e:	8000                	.insn	2, 0x8000
     950:	0000                	unimp
     952:	0000                	unimp
     954:	0220                	addi	s0,sp,264
     956:	8000                	.insn	2, 0x8000
     958:	0000                	unimp
     95a:	0000                	unimp
     95c:	0001                	nop
     95e:	445d                	li	s0,23
     960:	0002                	c.slli64	zero
     962:	0080                	addi	s0,sp,64
     964:	0000                	unimp
     966:	5e00                	lw	s0,56(a2)
     968:	0002                	c.slli64	zero
     96a:	0080                	addi	s0,sp,64
     96c:	0000                	unimp
     96e:	0100                	addi	s0,sp,128
     970:	6700                	ld	s0,8(a4)
     972:	027a                	slli	tp,tp,0x1e
     974:	8000                	.insn	2, 0x8000
     976:	0000                	unimp
     978:	0000                	unimp
     97a:	02f6                	slli	t0,t0,0x1d
     97c:	8000                	.insn	2, 0x8000
     97e:	0000                	unimp
     980:	0000                	unimp
     982:	0001                	nop
     984:	0002f667          	.insn	4, 0x0002f667
     988:	0080                	addi	s0,sp,64
     98a:	0000                	unimp
     98c:	0200                	addi	s0,sp,256
     98e:	00800003          	lb	zero,8(zero) # 8 <_start-0x7ffffff8>
     992:	0000                	unimp
     994:	0300                	addi	s0,sp,384
     996:	8700                	.insn	2, 0x8700
     998:	9f08                	.insn	2, 0x9f08
     99a:	0302                	c.slli64	t1
     99c:	8000                	.insn	2, 0x8000
     99e:	0000                	unimp
     9a0:	0000                	unimp
     9a2:	031c                	addi	a5,sp,384
     9a4:	8000                	.insn	2, 0x8000
     9a6:	0000                	unimp
     9a8:	0000                	unimp
     9aa:	0001                	nop
     9ac:	00031c67          	.insn	4, 0x00031c67
     9b0:	0080                	addi	s0,sp,64
     9b2:	0000                	unimp
     9b4:	2200                	fld	fs0,0(a2)
     9b6:	00800003          	lb	zero,8(zero) # 8 <_start-0x7ffffff8>
     9ba:	0000                	unimp
     9bc:	0100                	addi	s0,sp,128
     9be:	5e00                	lw	s0,56(a2)
     9c0:	0322                	slli	t1,t1,0x8
     9c2:	8000                	.insn	2, 0x8000
     9c4:	0000                	unimp
     9c6:	0000                	unimp
     9c8:	039e                	slli	t2,t2,0x7
     9ca:	8000                	.insn	2, 0x8000
     9cc:	0000                	unimp
     9ce:	0000                	unimp
     9d0:	0001                	nop
     9d2:	00039e67          	.insn	4, 0x00039e67
     9d6:	0080                	addi	s0,sp,64
     9d8:	0000                	unimp
     9da:	a200                	fsd	fs0,0(a2)
     9dc:	00800003          	lb	zero,8(zero) # 8 <_start-0x7ffffff8>
     9e0:	0000                	unimp
     9e2:	0300                	addi	s0,sp,384
     9e4:	8700                	.insn	2, 0x8700
     9e6:	9f08                	.insn	2, 0x9f08
     9e8:	03a2                	slli	t2,t2,0x8
     9ea:	8000                	.insn	2, 0x8000
     9ec:	0000                	unimp
     9ee:	0000                	unimp
     9f0:	03ae                	slli	t2,t2,0xb
     9f2:	8000                	.insn	2, 0x8000
     9f4:	0000                	unimp
     9f6:	0000                	unimp
     9f8:	0001                	nop
     9fa:	ae68                	fsd	fa0,216(a2)
     9fc:	00800003          	lb	zero,8(zero) # 8 <_start-0x7ffffff8>
     a00:	0000                	unimp
     a02:	c800                	sw	s0,16(s0)
     a04:	00800003          	lb	zero,8(zero) # 8 <_start-0x7ffffff8>
     a08:	0000                	unimp
     a0a:	0100                	addi	s0,sp,128
     a0c:	6700                	ld	s0,8(a4)
     a0e:	03c8                	addi	a0,sp,452
     a10:	8000                	.insn	2, 0x8000
     a12:	0000                	unimp
     a14:	0000                	unimp
     a16:	03d0                	addi	a2,sp,452
     a18:	8000                	.insn	2, 0x8000
     a1a:	0000                	unimp
     a1c:	0000                	unimp
     a1e:	0001                	nop
     a20:	d05e                	sw	s7,32(sp)
     a22:	00800003          	lb	zero,8(zero) # 8 <_start-0x7ffffff8>
     a26:	0000                	unimp
     a28:	d200                	sw	s0,32(a2)
     a2a:	00800003          	lb	zero,8(zero) # 8 <_start-0x7ffffff8>
     a2e:	0000                	unimp
     a30:	0100                	addi	s0,sp,128
     a32:	6700                	ld	s0,8(a4)
     a34:	03d2                	slli	t2,t2,0x14
     a36:	8000                	.insn	2, 0x8000
     a38:	0000                	unimp
     a3a:	0000                	unimp
     a3c:	041c                	addi	a5,sp,512
     a3e:	8000                	.insn	2, 0x8000
     a40:	0000                	unimp
     a42:	0000                	unimp
     a44:	08870003          	lb	zero,136(a4) # 7cb7c <_start-0x7ff83484>
     a48:	1c9f 0004 0080      	.insn	6, 0x008000041c9f
     a4e:	0000                	unimp
     a50:	1e00                	addi	s0,sp,816
     a52:	0004                	.insn	2, 0x0004
     a54:	0080                	addi	s0,sp,64
     a56:	0000                	unimp
     a58:	0100                	addi	s0,sp,128
     a5a:	6700                	ld	s0,8(a4)
     a5c:	041e                	slli	s0,s0,0x7
     a5e:	8000                	.insn	2, 0x8000
     a60:	0000                	unimp
     a62:	0000                	unimp
     a64:	047e                	slli	s0,s0,0x1f
     a66:	8000                	.insn	2, 0x8000
     a68:	0000                	unimp
     a6a:	0000                	unimp
     a6c:	08870003          	lb	zero,136(a4)
     a70:	7e9f 0004 0080      	.insn	6, 0x008000047e9f
     a76:	0000                	unimp
     a78:	a200                	fsd	fs0,0(a2)
     a7a:	0004                	.insn	2, 0x0004
     a7c:	0080                	addi	s0,sp,64
     a7e:	0000                	unimp
     a80:	0100                	addi	s0,sp,128
     a82:	6700                	ld	s0,8(a4)
     a84:	04a2                	slli	s1,s1,0x8
     a86:	8000                	.insn	2, 0x8000
     a88:	0000                	unimp
     a8a:	0000                	unimp
     a8c:	04a8                	addi	a0,sp,584
     a8e:	8000                	.insn	2, 0x8000
     a90:	0000                	unimp
     a92:	0000                	unimp
     a94:	08870003          	lb	zero,136(a4)
     a98:	a89f 0004 0080      	.insn	6, 0x00800004a89f
     a9e:	0000                	unimp
     aa0:	b400                	fsd	fs0,40(s0)
     aa2:	0004                	.insn	2, 0x0004
     aa4:	0080                	addi	s0,sp,64
     aa6:	0000                	unimp
     aa8:	0100                	addi	s0,sp,128
     aaa:	6700                	ld	s0,8(a4)
     aac:	04b4                	addi	a3,sp,584
     aae:	8000                	.insn	2, 0x8000
     ab0:	0000                	unimp
     ab2:	0000                	unimp
     ab4:	04c6                	slli	s1,s1,0x11
     ab6:	8000                	.insn	2, 0x8000
     ab8:	0000                	unimp
     aba:	0000                	unimp
     abc:	0001                	nop
     abe:	0068                	addi	a0,sp,12
	...
     acc:	0000                	unimp
     ace:	da00                	sw	s0,48(a2)
     ad0:	00800003          	lb	zero,8(zero) # 8 <_start-0x7ffffff8>
     ad4:	0000                	unimp
     ad6:	ec00                	sd	s0,24(s0)
     ad8:	00800003          	lb	zero,8(zero) # 8 <_start-0x7ffffff8>
     adc:	0000                	unimp
     ade:	0100                	addi	s0,sp,128
     ae0:	6a00                	ld	s0,16(a2)
     ae2:	03ee                	slli	t2,t2,0x1b
     ae4:	8000                	.insn	2, 0x8000
     ae6:	0000                	unimp
     ae8:	0000                	unimp
     aea:	041a                	slli	s0,s0,0x6
     aec:	8000                	.insn	2, 0x8000
     aee:	0000                	unimp
     af0:	0000                	unimp
     af2:	0001                	nop
     af4:	1e6a                	slli	t3,t3,0x3a
     af6:	0004                	.insn	2, 0x0004
     af8:	0080                	addi	s0,sp,64
     afa:	0000                	unimp
     afc:	4200                	lw	s0,0(a2)
     afe:	0004                	.insn	2, 0x0004
     b00:	0080                	addi	s0,sp,64
     b02:	0000                	unimp
     b04:	0a00                	addi	s0,sp,272
     b06:	0300                	addi	s0,sp,384
     b08:	1068                	addi	a0,sp,44
     b0a:	8000                	.insn	2, 0x8000
     b0c:	0000                	unimp
     b0e:	0000                	unimp
     b10:	749f 0004 0080      	.insn	6, 0x00800004749f
     b16:	0000                	unimp
     b18:	7a00                	ld	s0,48(a2)
     b1a:	0004                	.insn	2, 0x0004
     b1c:	0080                	addi	s0,sp,64
     b1e:	0000                	unimp
     b20:	0100                	addi	s0,sp,128
     b22:	6a00                	ld	s0,16(a2)
	...
     b34:	0238                	addi	a4,sp,264
     b36:	8000                	.insn	2, 0x8000
     b38:	0000                	unimp
     b3a:	0000                	unimp
     b3c:	025e                	slli	tp,tp,0x17
     b3e:	8000                	.insn	2, 0x8000
     b40:	0000                	unimp
     b42:	0000                	unimp
     b44:	0001                	nop
     b46:	00027a63          	bgeu	tp,zero,b5a <_start-0x7ffff4a6>
     b4a:	0080                	addi	s0,sp,64
     b4c:	0000                	unimp
     b4e:	2200                	fld	fs0,0(a2)
     b50:	00800003          	lb	zero,8(zero) # 8 <_start-0x7ffffff8>
     b54:	0000                	unimp
     b56:	0100                	addi	s0,sp,128
     b58:	6300                	ld	s0,0(a4)
     b5a:	038e                	slli	t2,t2,0x3
     b5c:	8000                	.insn	2, 0x8000
     b5e:	0000                	unimp
     b60:	0000                	unimp
     b62:	03a2                	slli	t2,t2,0x8
     b64:	8000                	.insn	2, 0x8000
     b66:	0000                	unimp
     b68:	0000                	unimp
     b6a:	0001                	nop
     b6c:	0003ae63          	.insn	4, 0x0003ae63
     b70:	0080                	addi	s0,sp,64
     b72:	0000                	unimp
     b74:	ee00                	sd	s0,24(a2)
     b76:	00800003          	lb	zero,8(zero) # 8 <_start-0x7ffffff8>
     b7a:	0000                	unimp
     b7c:	0100                	addi	s0,sp,128
     b7e:	6300                	ld	s0,0(a4)
     b80:	041e                	slli	s0,s0,0x7
     b82:	8000                	.insn	2, 0x8000
     b84:	0000                	unimp
     b86:	0000                	unimp
     b88:	047c                	addi	a5,sp,524
     b8a:	8000                	.insn	2, 0x8000
     b8c:	0000                	unimp
     b8e:	0000                	unimp
     b90:	0001                	nop
     b92:	00047e63          	bgeu	s0,zero,bae <_start-0x7ffff452>
     b96:	0080                	addi	s0,sp,64
     b98:	0000                	unimp
     b9a:	9e00                	.insn	2, 0x9e00
     b9c:	0004                	.insn	2, 0x0004
     b9e:	0080                	addi	s0,sp,64
     ba0:	0000                	unimp
     ba2:	0100                	addi	s0,sp,128
     ba4:	6300                	ld	s0,0(a4)
     ba6:	04a2                	slli	s1,s1,0x8
     ba8:	8000                	.insn	2, 0x8000
     baa:	0000                	unimp
     bac:	0000                	unimp
     bae:	04a6                	slli	s1,s1,0x9
     bb0:	8000                	.insn	2, 0x8000
     bb2:	0000                	unimp
     bb4:	0000                	unimp
     bb6:	0001                	nop
     bb8:	0004a863          	.insn	4, 0x0004a863
     bbc:	0080                	addi	s0,sp,64
     bbe:	0000                	unimp
     bc0:	b400                	fsd	fs0,40(s0)
     bc2:	0004                	.insn	2, 0x0004
     bc4:	0080                	addi	s0,sp,64
     bc6:	0000                	unimp
     bc8:	0100                	addi	s0,sp,128
     bca:	6300                	ld	s0,0(a4)
	...
     bdc:	0220                	addi	s0,sp,264
     bde:	8000                	.insn	2, 0x8000
     be0:	0000                	unimp
     be2:	0000                	unimp
     be4:	80000227          	.insn	4, 0x80000227
     be8:	0000                	unimp
     bea:	0000                	unimp
     bec:	0001                	nop
     bee:	2c5a                	fld	fs8,400(sp)
     bf0:	0002                	c.slli64	zero
     bf2:	0080                	addi	s0,sp,64
     bf4:	0000                	unimp
     bf6:	4400                	lw	s0,8(s0)
     bf8:	0002                	c.slli64	zero
     bfa:	0080                	addi	s0,sp,64
     bfc:	0000                	unimp
     bfe:	0500                	addi	s0,sp,640
     c00:	7800                	ld	s0,48(s0)
     c02:	9400                	.insn	2, 0x9400
     c04:	9f01                	subw	a4,a4,s0
     c06:	0250                	addi	a2,sp,260
     c08:	8000                	.insn	2, 0x8000
     c0a:	0000                	unimp
     c0c:	0000                	unimp
     c0e:	0254                	addi	a3,sp,260
     c10:	8000                	.insn	2, 0x8000
     c12:	0000                	unimp
     c14:	0000                	unimp
     c16:	0006                	c.slli	zero,0x1
     c18:	007d                	c.nop	31
     c1a:	ff08                	sd	a0,56(a4)
     c1c:	9f1a                	add	t5,t5,t1
     c1e:	025e                	slli	tp,tp,0x17
     c20:	8000                	.insn	2, 0x8000
     c22:	0000                	unimp
     c24:	0000                	unimp
     c26:	027a                	slli	tp,tp,0x1e
     c28:	8000                	.insn	2, 0x8000
     c2a:	0000                	unimp
     c2c:	0000                	unimp
     c2e:	0001                	nop
     c30:	865a                	mv	a2,s6
     c32:	0002                	c.slli64	zero
     c34:	0080                	addi	s0,sp,64
     c36:	0000                	unimp
     c38:	9200                	.insn	2, 0x9200
     c3a:	0002                	c.slli64	zero
     c3c:	0080                	addi	s0,sp,64
     c3e:	0000                	unimp
     c40:	0600                	addi	s0,sp,768
     c42:	7d00                	ld	s0,56(a0)
     c44:	0800                	addi	s0,sp,16
     c46:	b29f1aff 00800002 	.insn	12, 0xda00000000800002b29f1aff
     c4e:	da000000 
     c52:	0002                	c.slli64	zero
     c54:	0080                	addi	s0,sp,64
     c56:	0000                	unimp
     c58:	0100                	addi	s0,sp,128
     c5a:	5b00                	lw	s0,48(a4)
     c5c:	03ea                	slli	t2,t2,0x1a
     c5e:	8000                	.insn	2, 0x8000
     c60:	0000                	unimp
     c62:	0000                	unimp
     c64:	03ec                	addi	a1,sp,460
     c66:	8000                	.insn	2, 0x8000
     c68:	0000                	unimp
     c6a:	0000                	unimp
     c6c:	0005                	c.nop	1
     c6e:	008a                	slli	ra,ra,0x2
     c70:	0194                	addi	a3,sp,192
     c72:	ee9f 0003 0080      	.insn	6, 0x00800003ee9f
     c78:	0000                	unimp
     c7a:	fb00                	sd	s0,48(a4)
     c7c:	00800003          	lb	zero,8(zero) # 8 <_start-0x7ffffff8>
     c80:	0000                	unimp
     c82:	0100                	addi	s0,sp,128
     c84:	5a00                	lw	s0,48(a2)
     c86:	0404                	addi	s1,sp,512
     c88:	8000                	.insn	2, 0x8000
     c8a:	0000                	unimp
     c8c:	0000                	unimp
     c8e:	0406                	slli	s0,s0,0x1
     c90:	8000                	.insn	2, 0x8000
     c92:	0000                	unimp
     c94:	0000                	unimp
     c96:	0005                	c.nop	1
     c98:	008a                	slli	ra,ra,0x2
     c9a:	0194                	addi	a3,sp,192
     c9c:	789f 0004 0080      	.insn	6, 0x00800004789f
     ca2:	0000                	unimp
     ca4:	7a00                	ld	s0,48(a2)
     ca6:	0004                	.insn	2, 0x0004
     ca8:	0080                	addi	s0,sp,64
     caa:	0000                	unimp
     cac:	0500                	addi	s0,sp,640
     cae:	8a00                	.insn	2, 0x8a00
     cb0:	9400                	.insn	2, 0x9400
     cb2:	9f01                	subw	a4,a4,s0
	...
     cc4:	0322                	slli	t1,t1,0x8
     cc6:	8000                	.insn	2, 0x8000
     cc8:	0000                	unimp
     cca:	0000                	unimp
     ccc:	0334                	addi	a3,sp,392
     cce:	8000                	.insn	2, 0x8000
     cd0:	0000                	unimp
     cd2:	0000                	unimp
     cd4:	0001                	nop
     cd6:	a25f 0003 0080      	.insn	6, 0x00800003a25f
     cdc:	0000                	unimp
     cde:	ae00                	fsd	fs0,24(a2)
     ce0:	00800003          	lb	zero,8(zero) # 8 <_start-0x7ffffff8>
     ce4:	0000                	unimp
     ce6:	0100                	addi	s0,sp,128
     ce8:	6300                	ld	s0,0(a4)
     cea:	049e                	slli	s1,s1,0x7
     cec:	8000                	.insn	2, 0x8000
     cee:	0000                	unimp
     cf0:	0000                	unimp
     cf2:	04a2                	slli	s1,s1,0x8
     cf4:	8000                	.insn	2, 0x8000
     cf6:	0000                	unimp
     cf8:	0000                	unimp
     cfa:	0001                	nop
     cfc:	b45f 0004 0080      	.insn	6, 0x00800004b45f
     d02:	0000                	unimp
     d04:	c000                	sw	s0,0(s0)
     d06:	0004                	.insn	2, 0x0004
     d08:	0080                	addi	s0,sp,64
     d0a:	0000                	unimp
     d0c:	0100                	addi	s0,sp,128
     d0e:	6300                	ld	s0,0(a4)
     d10:	04c0                	addi	s0,sp,580
     d12:	8000                	.insn	2, 0x8000
     d14:	0000                	unimp
     d16:	0000                	unimp
     d18:	04c6                	slli	s1,s1,0x11
     d1a:	8000                	.insn	2, 0x8000
     d1c:	0000                	unimp
     d1e:	0000                	unimp
     d20:	0001                	nop
     d22:	005f 0000 0000      	.insn	6, 0x005f
	...
     d30:	0000                	unimp
     d32:	1600                	addi	s0,sp,800
     d34:	00800003          	lb	zero,8(zero) # 8 <_start-0x7ffffff8>
     d38:	0000                	unimp
     d3a:	1c00                	addi	s0,sp,560
     d3c:	00800003          	lb	zero,8(zero) # 8 <_start-0x7ffffff8>
     d40:	0000                	unimp
     d42:	0200                	addi	s0,sp,256
     d44:	4000                	lw	s0,0(s0)
     d46:	009f 0000 0000      	.insn	6, 0x009f
	...
     d54:	0000                	unimp
     d56:	3800                	fld	fs0,48(s0)
     d58:	0002                	c.slli64	zero
     d5a:	0080                	addi	s0,sp,64
     d5c:	0000                	unimp
     d5e:	4400                	lw	s0,8(s0)
     d60:	0002                	c.slli64	zero
     d62:	0080                	addi	s0,sp,64
     d64:	0000                	unimp
     d66:	0200                	addi	s0,sp,256
     d68:	3000                	fld	fs0,32(s0)
     d6a:	449f 0002 0080      	.insn	6, 0x00800002449f
     d70:	0000                	unimp
     d72:	5e00                	lw	s0,56(a2)
     d74:	0002                	c.slli64	zero
     d76:	0080                	addi	s0,sp,64
     d78:	0000                	unimp
     d7a:	0100                	addi	s0,sp,128
     d7c:	5c00                	lw	s0,56(s0)
     d7e:	027a                	slli	tp,tp,0x1e
     d80:	8000                	.insn	2, 0x8000
     d82:	0000                	unimp
     d84:	0000                	unimp
     d86:	0299                	addi	t0,t0,6 # 10c46ae <_start-0x7ef3b952>
     d88:	8000                	.insn	2, 0x8000
     d8a:	0000                	unimp
     d8c:	0000                	unimp
     d8e:	0001                	nop
     d90:	9e5c                	.insn	2, 0x9e5c
     d92:	0002                	c.slli64	zero
     d94:	0080                	addi	s0,sp,64
     d96:	0000                	unimp
     d98:	f300                	sd	s0,32(a4)
     d9a:	0002                	c.slli64	zero
     d9c:	0080                	addi	s0,sp,64
     d9e:	0000                	unimp
     da0:	0100                	addi	s0,sp,128
     da2:	5c00                	lw	s0,56(s0)
     da4:	02f6                	slli	t0,t0,0x1d
     da6:	8000                	.insn	2, 0x8000
     da8:	0000                	unimp
     daa:	0000                	unimp
     dac:	030c                	addi	a1,sp,384
     dae:	8000                	.insn	2, 0x8000
     db0:	0000                	unimp
     db2:	0000                	unimp
     db4:	0001                	nop
     db6:	0c5c                	addi	a5,sp,532
     db8:	00800003          	lb	zero,8(zero) # 8 <_start-0x7ffffff8>
     dbc:	0000                	unimp
     dbe:	1c00                	addi	s0,sp,560
     dc0:	00800003          	lb	zero,8(zero) # 8 <_start-0x7ffffff8>
     dc4:	0000                	unimp
     dc6:	0200                	addi	s0,sp,256
     dc8:	3100                	fld	fs0,32(a0)
     dca:	8e9f 0003 0080      	.insn	6, 0x008000038e9f
     dd0:	0000                	unimp
     dd2:	ee00                	sd	s0,24(a2)
     dd4:	00800003          	lb	zero,8(zero) # 8 <_start-0x7ffffff8>
     dd8:	0000                	unimp
     dda:	0100                	addi	s0,sp,128
     ddc:	5c00                	lw	s0,56(s0)
     dde:	041e                	slli	s0,s0,0x7
     de0:	8000                	.insn	2, 0x8000
     de2:	0000                	unimp
     de4:	0000                	unimp
     de6:	0468                	addi	a0,sp,524
     de8:	8000                	.insn	2, 0x8000
     dea:	0000                	unimp
     dec:	0000                	unimp
     dee:	0001                	nop
     df0:	7e5c                	ld	a5,184(a2)
     df2:	0004                	.insn	2, 0x0004
     df4:	0080                	addi	s0,sp,64
     df6:	0000                	unimp
     df8:	9b00                	.insn	2, 0x9b00
     dfa:	0004                	.insn	2, 0x0004
     dfc:	0080                	addi	s0,sp,64
     dfe:	0000                	unimp
     e00:	0100                	addi	s0,sp,128
     e02:	5c00                	lw	s0,56(s0)
     e04:	04a2                	slli	s1,s1,0x8
     e06:	8000                	.insn	2, 0x8000
     e08:	0000                	unimp
     e0a:	0000                	unimp
     e0c:	800004bb          	.insn	4, 0x800004bb
     e10:	0000                	unimp
     e12:	0000                	unimp
     e14:	0001                	nop
     e16:	005c                	addi	a5,sp,4
	...
     e24:	0000                	unimp
     e26:	3800                	fld	fs0,48(s0)
     e28:	0002                	c.slli64	zero
     e2a:	0080                	addi	s0,sp,64
     e2c:	0000                	unimp
     e2e:	4400                	lw	s0,8(s0)
     e30:	0002                	c.slli64	zero
     e32:	0080                	addi	s0,sp,64
     e34:	0000                	unimp
     e36:	0300                	addi	s0,sp,384
     e38:	0900                	addi	s0,sp,144
     e3a:	02449fff 00008000 	.insn	12, 0x025e00000000800002449fff
     e42:	025e0000 
     e46:	8000                	.insn	2, 0x8000
     e48:	0000                	unimp
     e4a:	0000                	unimp
     e4c:	0001                	nop
     e4e:	00027a6b          	.insn	4, 0x00027a6b
     e52:	0080                	addi	s0,sp,64
     e54:	0000                	unimp
     e56:	9c00                	.insn	2, 0x9c00
     e58:	0002                	c.slli64	zero
     e5a:	0080                	addi	s0,sp,64
     e5c:	0000                	unimp
     e5e:	0100                	addi	s0,sp,128
     e60:	6b00                	ld	s0,16(a4)
     e62:	029e                	slli	t0,t0,0x7
     e64:	8000                	.insn	2, 0x8000
     e66:	0000                	unimp
     e68:	0000                	unimp
     e6a:	02e0                	addi	s0,sp,332
     e6c:	8000                	.insn	2, 0x8000
     e6e:	0000                	unimp
     e70:	0000                	unimp
     e72:	0001                	nop
     e74:	0002e46b          	.insn	4, 0x0002e46b
     e78:	0080                	addi	s0,sp,64
     e7a:	0000                	unimp
     e7c:	ec00                	sd	s0,24(s0)
     e7e:	00800003          	lb	zero,8(zero) # 8 <_start-0x7ffffff8>
     e82:	0000                	unimp
     e84:	0100                	addi	s0,sp,128
     e86:	6b00                	ld	s0,16(a4)
     e88:	03ee                	slli	t2,t2,0x1b
     e8a:	8000                	.insn	2, 0x8000
     e8c:	0000                	unimp
     e8e:	0000                	unimp
     e90:	0412                	slli	s0,s0,0x4
     e92:	8000                	.insn	2, 0x8000
     e94:	0000                	unimp
     e96:	0000                	unimp
     e98:	0001                	nop
     e9a:	0004146b          	.insn	4, 0x0004146b
     e9e:	0080                	addi	s0,sp,64
     ea0:	0000                	unimp
     ea2:	1800                	addi	s0,sp,48
     ea4:	0004                	.insn	2, 0x0004
     ea6:	0080                	addi	s0,sp,64
     ea8:	0000                	unimp
     eaa:	0100                	addi	s0,sp,128
     eac:	6b00                	ld	s0,16(a4)
     eae:	041e                	slli	s0,s0,0x7
     eb0:	8000                	.insn	2, 0x8000
     eb2:	0000                	unimp
     eb4:	0000                	unimp
     eb6:	0462                	slli	s0,s0,0x18
     eb8:	8000                	.insn	2, 0x8000
     eba:	0000                	unimp
     ebc:	0000                	unimp
     ebe:	0001                	nop
     ec0:	0004686b          	.insn	4, 0x0004686b
     ec4:	0080                	addi	s0,sp,64
     ec6:	0000                	unimp
     ec8:	6e00                	ld	s0,24(a2)
     eca:	0004                	.insn	2, 0x0004
     ecc:	0080                	addi	s0,sp,64
     ece:	0000                	unimp
     ed0:	0100                	addi	s0,sp,128
     ed2:	6b00                	ld	s0,16(a4)
     ed4:	0470                	addi	a2,sp,524
     ed6:	8000                	.insn	2, 0x8000
     ed8:	0000                	unimp
     eda:	0000                	unimp
     edc:	0474                	addi	a3,sp,524
     ede:	8000                	.insn	2, 0x8000
     ee0:	0000                	unimp
     ee2:	0000                	unimp
     ee4:	0001                	nop
     ee6:	0004746b          	.insn	4, 0x0004746b
     eea:	0080                	addi	s0,sp,64
     eec:	0000                	unimp
     eee:	7a00                	ld	s0,48(a2)
     ef0:	0004                	.insn	2, 0x0004
     ef2:	0080                	addi	s0,sp,64
     ef4:	0000                	unimp
     ef6:	0200                	addi	s0,sp,256
     ef8:	3000                	fld	fs0,32(s0)
     efa:	7e9f 0004 0080      	.insn	6, 0x008000047e9f
     f00:	0000                	unimp
     f02:	8400                	.insn	2, 0x8400
     f04:	0004                	.insn	2, 0x0004
     f06:	0080                	addi	s0,sp,64
     f08:	0000                	unimp
     f0a:	0100                	addi	s0,sp,128
     f0c:	6b00                	ld	s0,16(a4)
     f0e:	0484                	addi	s1,sp,576
     f10:	8000                	.insn	2, 0x8000
     f12:	0000                	unimp
     f14:	0000                	unimp
     f16:	0486                	slli	s1,s1,0x1
     f18:	8000                	.insn	2, 0x8000
     f1a:	0000                	unimp
     f1c:	0000                	unimp
     f1e:	0001                	nop
     f20:	865f 0004 0080      	.insn	6, 0x00800004865f
     f26:	0000                	unimp
     f28:	8e00                	.insn	2, 0x8e00
     f2a:	0004                	.insn	2, 0x0004
     f2c:	0080                	addi	s0,sp,64
     f2e:	0000                	unimp
     f30:	0100                	addi	s0,sp,128
     f32:	6b00                	ld	s0,16(a4)
     f34:	0492                	slli	s1,s1,0x4
     f36:	8000                	.insn	2, 0x8000
     f38:	0000                	unimp
     f3a:	0000                	unimp
     f3c:	04c6                	slli	s1,s1,0x11
     f3e:	8000                	.insn	2, 0x8000
     f40:	0000                	unimp
     f42:	0000                	unimp
     f44:	0001                	nop
     f46:	0000006b          	.insn	4, 0x006b
	...
     f56:	3800                	fld	fs0,48(s0)
     f58:	0002                	c.slli64	zero
     f5a:	0080                	addi	s0,sp,64
     f5c:	0000                	unimp
     f5e:	4400                	lw	s0,8(s0)
     f60:	0002                	c.slli64	zero
     f62:	0080                	addi	s0,sp,64
     f64:	0000                	unimp
     f66:	0300                	addi	s0,sp,384
     f68:	0900                	addi	s0,sp,144
     f6a:	02449fff 00008000 	.insn	12, 0x025e00000000800002449fff
     f72:	025e0000 
     f76:	8000                	.insn	2, 0x8000
     f78:	0000                	unimp
     f7a:	0000                	unimp
     f7c:	0001                	nop
     f7e:	7a68                	ld	a0,240(a2)
     f80:	0002                	c.slli64	zero
     f82:	0080                	addi	s0,sp,64
     f84:	0000                	unimp
     f86:	9e00                	.insn	2, 0x9e00
     f88:	0002                	c.slli64	zero
     f8a:	0080                	addi	s0,sp,64
     f8c:	0000                	unimp
     f8e:	0100                	addi	s0,sp,128
     f90:	6800                	ld	s0,16(s0)
     f92:	029e                	slli	t0,t0,0x7
     f94:	8000                	.insn	2, 0x8000
     f96:	0000                	unimp
     f98:	0000                	unimp
     f9a:	02a2                	slli	t0,t0,0x8
     f9c:	8000                	.insn	2, 0x8000
     f9e:	0000                	unimp
     fa0:	0000                	unimp
     fa2:	0002                	c.slli64	zero
     fa4:	9f30                	.insn	2, 0x9f30
     fa6:	02a2                	slli	t0,t0,0x8
     fa8:	8000                	.insn	2, 0x8000
     faa:	0000                	unimp
     fac:	0000                	unimp
     fae:	02e2                	slli	t0,t0,0x18
     fb0:	8000                	.insn	2, 0x8000
     fb2:	0000                	unimp
     fb4:	0000                	unimp
     fb6:	0001                	nop
     fb8:	e268                	sd	a0,192(a2)
     fba:	0002                	c.slli64	zero
     fbc:	0080                	addi	s0,sp,64
     fbe:	0000                	unimp
     fc0:	e400                	sd	s0,8(s0)
     fc2:	0002                	c.slli64	zero
     fc4:	0080                	addi	s0,sp,64
     fc6:	0000                	unimp
     fc8:	0100                	addi	s0,sp,128
     fca:	6b00                	ld	s0,16(a4)
     fcc:	02e4                	addi	s1,sp,332
     fce:	8000                	.insn	2, 0x8000
     fd0:	0000                	unimp
     fd2:	0000                	unimp
     fd4:	02fe                	slli	t0,t0,0x1f
     fd6:	8000                	.insn	2, 0x8000
     fd8:	0000                	unimp
     fda:	0000                	unimp
     fdc:	0001                	nop
     fde:	0468                	addi	a0,sp,524
     fe0:	00800003          	lb	zero,8(zero) # 8 <_start-0x7ffffff8>
     fe4:	0000                	unimp
     fe6:	2200                	fld	fs0,0(a2)
     fe8:	00800003          	lb	zero,8(zero) # 8 <_start-0x7ffffff8>
     fec:	0000                	unimp
     fee:	0100                	addi	s0,sp,128
     ff0:	6800                	ld	s0,16(s0)
     ff2:	038e                	slli	t2,t2,0x3
     ff4:	8000                	.insn	2, 0x8000
     ff6:	0000                	unimp
     ff8:	0000                	unimp
     ffa:	0396                	slli	t2,t2,0x5
     ffc:	8000                	.insn	2, 0x8000
     ffe:	0000                	unimp
    1000:	0000                	unimp
    1002:	0001                	nop
    1004:	ae68                	fsd	fa0,216(a2)
    1006:	00800003          	lb	zero,8(zero) # 8 <_start-0x7ffffff8>
    100a:	0000                	unimp
    100c:	ec00                	sd	s0,24(s0)
    100e:	00800003          	lb	zero,8(zero) # 8 <_start-0x7ffffff8>
    1012:	0000                	unimp
    1014:	0100                	addi	s0,sp,128
    1016:	6800                	ld	s0,16(s0)
    1018:	03ee                	slli	t2,t2,0x1b
    101a:	8000                	.insn	2, 0x8000
    101c:	0000                	unimp
    101e:	0000                	unimp
    1020:	0406                	slli	s0,s0,0x1
    1022:	8000                	.insn	2, 0x8000
    1024:	0000                	unimp
    1026:	0000                	unimp
    1028:	0001                	nop
    102a:	1e68                	addi	a0,sp,828
    102c:	0004                	.insn	2, 0x0004
    102e:	0080                	addi	s0,sp,64
    1030:	0000                	unimp
    1032:	7a00                	ld	s0,48(a2)
    1034:	0004                	.insn	2, 0x0004
    1036:	0080                	addi	s0,sp,64
    1038:	0000                	unimp
    103a:	0100                	addi	s0,sp,128
    103c:	6800                	ld	s0,16(s0)
    103e:	047e                	slli	s0,s0,0x1f
    1040:	8000                	.insn	2, 0x8000
    1042:	0000                	unimp
    1044:	0000                	unimp
    1046:	049e                	slli	s1,s1,0x7
    1048:	8000                	.insn	2, 0x8000
    104a:	0000                	unimp
    104c:	0000                	unimp
    104e:	0001                	nop
    1050:	a868                	fsd	fa0,208(s0)
    1052:	0004                	.insn	2, 0x0004
    1054:	0080                	addi	s0,sp,64
    1056:	0000                	unimp
    1058:	b400                	fsd	fs0,40(s0)
    105a:	0004                	.insn	2, 0x0004
    105c:	0080                	addi	s0,sp,64
    105e:	0000                	unimp
    1060:	0100                	addi	s0,sp,128
    1062:	6800                	ld	s0,16(s0)
	...
    1074:	0238                	addi	a4,sp,264
    1076:	8000                	.insn	2, 0x8000
    1078:	0000                	unimp
    107a:	0000                	unimp
    107c:	0244                	addi	s1,sp,260
    107e:	8000                	.insn	2, 0x8000
    1080:	0000                	unimp
    1082:	0000                	unimp
    1084:	0002                	c.slli64	zero
    1086:	9f30                	.insn	2, 0x9f30
    1088:	02e4                	addi	s1,sp,332
    108a:	8000                	.insn	2, 0x8000
    108c:	0000                	unimp
    108e:	0000                	unimp
    1090:	02ec                	addi	a1,sp,332
    1092:	8000                	.insn	2, 0x8000
    1094:	0000                	unimp
    1096:	0000                	unimp
    1098:	0002                	c.slli64	zero
    109a:	9f31                	addw	a4,a4,a2
	...
    10ac:	0238                	addi	a4,sp,264
    10ae:	8000                	.insn	2, 0x8000
    10b0:	0000                	unimp
    10b2:	0000                	unimp
    10b4:	0244                	addi	s1,sp,260
    10b6:	8000                	.insn	2, 0x8000
    10b8:	0000                	unimp
    10ba:	0000                	unimp
    10bc:	20080003          	lb	zero,512(a6)
    10c0:	449f 0002 0080      	.insn	6, 0x00800002449f
    10c6:	0000                	unimp
    10c8:	5e00                	lw	s0,56(a2)
    10ca:	0002                	c.slli64	zero
    10cc:	0080                	addi	s0,sp,64
    10ce:	0000                	unimp
    10d0:	0100                	addi	s0,sp,128
    10d2:	6900                	ld	s0,16(a0)
    10d4:	027a                	slli	tp,tp,0x1e
    10d6:	8000                	.insn	2, 0x8000
    10d8:	0000                	unimp
    10da:	0000                	unimp
    10dc:	0282                	c.slli64	t0
    10de:	8000                	.insn	2, 0x8000
    10e0:	0000                	unimp
    10e2:	0000                	unimp
    10e4:	30080003          	lb	zero,768(a6)
    10e8:	829f 0002 0080      	.insn	6, 0x00800002829f
    10ee:	0000                	unimp
    10f0:	4e00                	lw	s0,24(a2)
    10f2:	00800003          	lb	zero,8(zero) # 8 <_start-0x7ffffff8>
    10f6:	0000                	unimp
    10f8:	0100                	addi	s0,sp,128
    10fa:	6900                	ld	s0,16(a0)
    10fc:	038e                	slli	t2,t2,0x3
    10fe:	8000                	.insn	2, 0x8000
    1100:	0000                	unimp
    1102:	0000                	unimp
    1104:	03ee                	slli	t2,t2,0x1b
    1106:	8000                	.insn	2, 0x8000
    1108:	0000                	unimp
    110a:	0000                	unimp
    110c:	0001                	nop
    110e:	1e69                	addi	t3,t3,-6
    1110:	0004                	.insn	2, 0x0004
    1112:	0080                	addi	s0,sp,64
    1114:	0000                	unimp
    1116:	6800                	ld	s0,16(s0)
    1118:	0004                	.insn	2, 0x0004
    111a:	0080                	addi	s0,sp,64
    111c:	0000                	unimp
    111e:	0100                	addi	s0,sp,128
    1120:	6900                	ld	s0,16(a0)
    1122:	047e                	slli	s0,s0,0x1f
    1124:	8000                	.insn	2, 0x8000
    1126:	0000                	unimp
    1128:	0000                	unimp
    112a:	04c6                	slli	s1,s1,0x11
    112c:	8000                	.insn	2, 0x8000
    112e:	0000                	unimp
    1130:	0000                	unimp
    1132:	0001                	nop
    1134:	0069                	c.nop	26
	...
    1142:	0000                	unimp
    1144:	1600                	addi	s0,sp,800
    1146:	00800003          	lb	zero,8(zero) # 8 <_start-0x7ffffff8>
    114a:	0000                	unimp
    114c:	2200                	fld	fs0,0(a2)
    114e:	00800003          	lb	zero,8(zero) # 8 <_start-0x7ffffff8>
    1152:	0000                	unimp
    1154:	0a00                	addi	s0,sp,272
    1156:	f200                	sd	s0,32(a2)
    1158:	08fc                	addi	a5,sp,92
    115a:	0000                	unimp
    115c:	0000                	unimp
    115e:	0000                	unimp
    1160:	bc00                	fsd	fs0,56(s0)
    1162:	00800003          	lb	zero,8(zero) # 8 <_start-0x7ffffff8>
    1166:	0000                	unimp
    1168:	d000                	sw	s0,32(s0)
    116a:	00800003          	lb	zero,8(zero) # 8 <_start-0x7ffffff8>
    116e:	0000                	unimp
    1170:	0a00                	addi	s0,sp,272
    1172:	f200                	sd	s0,32(a2)
    1174:	08fc                	addi	a5,sp,92
	...
    118a:	0000                	unimp
    118c:	1600                	addi	s0,sp,800
    118e:	00800003          	lb	zero,8(zero) # 8 <_start-0x7ffffff8>
    1192:	0000                	unimp
    1194:	1c00                	addi	s0,sp,560
    1196:	00800003          	lb	zero,8(zero) # 8 <_start-0x7ffffff8>
    119a:	0000                	unimp
    119c:	0200                	addi	s0,sp,256
    119e:	3100                	fld	fs0,32(a0)
    11a0:	bc9f 0003 0080      	.insn	6, 0x00800003bc9f
    11a6:	0000                	unimp
    11a8:	d000                	sw	s0,32(s0)
    11aa:	00800003          	lb	zero,8(zero) # 8 <_start-0x7ffffff8>
    11ae:	0000                	unimp
    11b0:	0100                	addi	s0,sp,128
    11b2:	5c00                	lw	s0,56(s0)
	...
    11c4:	032a                	slli	t1,t1,0xa
    11c6:	8000                	.insn	2, 0x8000
    11c8:	0000                	unimp
    11ca:	0000                	unimp
    11cc:	038e                	slli	t2,t2,0x3
    11ce:	8000                	.insn	2, 0x8000
    11d0:	0000                	unimp
    11d2:	0000                	unimp
    11d4:	0001                	nop
    11d6:	9e62                	add	t3,t3,s8
    11d8:	0004                	.insn	2, 0x0004
    11da:	0080                	addi	s0,sp,64
    11dc:	0000                	unimp
    11de:	a200                	fsd	fs0,0(a2)
    11e0:	0004                	.insn	2, 0x0004
    11e2:	0080                	addi	s0,sp,64
    11e4:	0000                	unimp
    11e6:	0100                	addi	s0,sp,128
    11e8:	6200                	ld	s0,0(a2)
	...
    11fa:	032a                	slli	t1,t1,0xa
    11fc:	8000                	.insn	2, 0x8000
    11fe:	0000                	unimp
    1200:	0000                	unimp
    1202:	038e                	slli	t2,t2,0x3
    1204:	8000                	.insn	2, 0x8000
    1206:	0000                	unimp
    1208:	0000                	unimp
    120a:	0001                	nop
    120c:	9e59                	.insn	2, 0x9e59
    120e:	0004                	.insn	2, 0x0004
    1210:	0080                	addi	s0,sp,64
    1212:	0000                	unimp
    1214:	a200                	fsd	fs0,0(a2)
    1216:	0004                	.insn	2, 0x0004
    1218:	0080                	addi	s0,sp,64
    121a:	0000                	unimp
    121c:	0100                	addi	s0,sp,128
    121e:	5900                	lw	s0,48(a0)
	...
    1230:	032a                	slli	t1,t1,0xa
    1232:	8000                	.insn	2, 0x8000
    1234:	0000                	unimp
    1236:	0000                	unimp
    1238:	0356                	slli	t1,t1,0x15
    123a:	8000                	.insn	2, 0x8000
    123c:	0000                	unimp
    123e:	0000                	unimp
    1240:	0001                	nop
    1242:	9e5f 0004 0080      	.insn	6, 0x008000049e5f
    1248:	0000                	unimp
    124a:	a200                	fsd	fs0,0(a2)
    124c:	0004                	.insn	2, 0x0004
    124e:	0080                	addi	s0,sp,64
    1250:	0000                	unimp
    1252:	0100                	addi	s0,sp,128
    1254:	5f00                	lw	s0,56(a4)
	...
    1266:	032a                	slli	t1,t1,0xa
    1268:	8000                	.insn	2, 0x8000
    126a:	0000                	unimp
    126c:	0000                	unimp
    126e:	034e                	slli	t1,t1,0x13
    1270:	8000                	.insn	2, 0x8000
    1272:	0000                	unimp
    1274:	0000                	unimp
    1276:	0001                	nop
    1278:	00034e6b          	.insn	4, 0x00034e6b
    127c:	0080                	addi	s0,sp,64
    127e:	0000                	unimp
    1280:	5c00                	lw	s0,56(s0)
    1282:	00800003          	lb	zero,8(zero) # 8 <_start-0x7ffffff8>
    1286:	0000                	unimp
    1288:	0100                	addi	s0,sp,128
    128a:	6900                	ld	s0,16(a0)
    128c:	035e                	slli	t1,t1,0x17
    128e:	8000                	.insn	2, 0x8000
    1290:	0000                	unimp
    1292:	0000                	unimp
    1294:	0362                	slli	t1,t1,0x18
    1296:	8000                	.insn	2, 0x8000
    1298:	0000                	unimp
    129a:	0000                	unimp
    129c:	0001                	nop
    129e:	9e69                	.insn	2, 0x9e69
    12a0:	0004                	.insn	2, 0x0004
    12a2:	0080                	addi	s0,sp,64
    12a4:	0000                	unimp
    12a6:	a200                	fsd	fs0,0(a2)
    12a8:	0004                	.insn	2, 0x0004
    12aa:	0080                	addi	s0,sp,64
    12ac:	0000                	unimp
    12ae:	0100                	addi	s0,sp,128
    12b0:	6b00                	ld	s0,16(a4)
	...
    12c2:	032a                	slli	t1,t1,0xa
    12c4:	8000                	.insn	2, 0x8000
    12c6:	0000                	unimp
    12c8:	0000                	unimp
    12ca:	0368                	addi	a0,sp,396
    12cc:	8000                	.insn	2, 0x8000
    12ce:	0000                	unimp
    12d0:	0000                	unimp
    12d2:	0001                	nop
    12d4:	00049e63          	bnez	s1,12f0 <_start-0x7fffed10>
    12d8:	0080                	addi	s0,sp,64
    12da:	0000                	unimp
    12dc:	a200                	fsd	fs0,0(a2)
    12de:	0004                	.insn	2, 0x0004
    12e0:	0080                	addi	s0,sp,64
    12e2:	0000                	unimp
    12e4:	0100                	addi	s0,sp,128
    12e6:	6300                	ld	s0,0(a4)
	...
    12f8:	032a                	slli	t1,t1,0xa
    12fa:	8000                	.insn	2, 0x8000
    12fc:	0000                	unimp
    12fe:	0000                	unimp
    1300:	0334                	addi	a3,sp,392
    1302:	8000                	.insn	2, 0x8000
    1304:	0000                	unimp
    1306:	0000                	unimp
    1308:	0002                	c.slli64	zero
    130a:	9f31                	addw	a4,a4,a2
    130c:	033e                	slli	t1,t1,0xf
    130e:	8000                	.insn	2, 0x8000
    1310:	0000                	unimp
    1312:	0000                	unimp
    1314:	034a                	slli	t1,t1,0x12
    1316:	8000                	.insn	2, 0x8000
    1318:	0000                	unimp
    131a:	0000                	unimp
    131c:	0001                	nop
    131e:	9e5e                	add	t3,t3,s7
    1320:	0004                	.insn	2, 0x0004
    1322:	0080                	addi	s0,sp,64
    1324:	0000                	unimp
    1326:	a200                	fsd	fs0,0(a2)
    1328:	0004                	.insn	2, 0x0004
    132a:	0080                	addi	s0,sp,64
    132c:	0000                	unimp
    132e:	0200                	addi	s0,sp,256
    1330:	3100                	fld	fs0,32(a0)
    1332:	009f 0000 0000      	.insn	6, 0x009f
	...
    1340:	0000                	unimp
    1342:	9000                	.insn	2, 0x9000
    1344:	00800003          	lb	zero,8(zero) # 8 <_start-0x7ffffff8>
    1348:	0000                	unimp
    134a:	a200                	fsd	fs0,0(a2)
    134c:	00800003          	lb	zero,8(zero) # 8 <_start-0x7ffffff8>
    1350:	0000                	unimp
    1352:	0a00                	addi	s0,sp,272
    1354:	f200                	sd	s0,32(a2)
    1356:	08fc                	addi	a5,sp,92
    1358:	0000                	unimp
    135a:	0000                	unimp
    135c:	0000                	unimp
    135e:	a200                	fsd	fs0,0(a2)
    1360:	0004                	.insn	2, 0x0004
    1362:	0080                	addi	s0,sp,64
    1364:	0000                	unimp
    1366:	a800                	fsd	fs0,16(s0)
    1368:	0004                	.insn	2, 0x0004
    136a:	0080                	addi	s0,sp,64
    136c:	0000                	unimp
    136e:	0a00                	addi	s0,sp,272
    1370:	f200                	sd	s0,32(a2)
    1372:	08fc                	addi	a5,sp,92
	...
    1388:	0000                	unimp
    138a:	9000                	.insn	2, 0x9000
    138c:	00800003          	lb	zero,8(zero) # 8 <_start-0x7ffffff8>
    1390:	0000                	unimp
    1392:	a200                	fsd	fs0,0(a2)
    1394:	00800003          	lb	zero,8(zero) # 8 <_start-0x7ffffff8>
    1398:	0000                	unimp
    139a:	0100                	addi	s0,sp,128
    139c:	5c00                	lw	s0,56(s0)
    139e:	04a2                	slli	s1,s1,0x8
    13a0:	8000                	.insn	2, 0x8000
    13a2:	0000                	unimp
    13a4:	0000                	unimp
    13a6:	04a8                	addi	a0,sp,584
    13a8:	8000                	.insn	2, 0x8000
    13aa:	0000                	unimp
    13ac:	0000                	unimp
    13ae:	0001                	nop
    13b0:	005c                	addi	a5,sp,4
	...
    13be:	0000                	unimp
    13c0:	4200                	lw	s0,0(a2)
    13c2:	0004                	.insn	2, 0x0004
    13c4:	0080                	addi	s0,sp,64
    13c6:	0000                	unimp
    13c8:	6200                	ld	s0,0(a2)
    13ca:	0004                	.insn	2, 0x0004
    13cc:	0080                	addi	s0,sp,64
    13ce:	0000                	unimp
    13d0:	0a00                	addi	s0,sp,272
    13d2:	0300                	addi	s0,sp,384
    13d4:	1068                	addi	a0,sp,44
    13d6:	8000                	.insn	2, 0x8000
    13d8:	0000                	unimp
    13da:	0000                	unimp
    13dc:	009f 0000 0000      	.insn	6, 0x009f
	...
    13ea:	0000                	unimp
    13ec:	4200                	lw	s0,0(a2)
    13ee:	0004                	.insn	2, 0x0004
    13f0:	0080                	addi	s0,sp,64
    13f2:	0000                	unimp
    13f4:	4e00                	lw	s0,24(a2)
    13f6:	0004                	.insn	2, 0x0004
    13f8:	0080                	addi	s0,sp,64
    13fa:	0000                	unimp
    13fc:	0300                	addi	s0,sp,384
    13fe:	8800                	.insn	2, 0x8800
    1400:	044e9f7f 00008000 	.insn	12, 0x045a000000008000044e9f7f
    1408:	045a0000 
    140c:	8000                	.insn	2, 0x8000
    140e:	0000                	unimp
    1410:	0000                	unimp
    1412:	0010                	.insn	2, 0x0010
    1414:	007f 8820 0800 2420 	.insn	10, 0x2008242008008820007f
    141c:	2008 
    141e:	2226                	fld	ft4,72(sp)
    1420:	008a                	slli	ra,ra,0x2
    1422:	9f22                	add	t5,t5,s0
	...
    1434:	0442                	slli	s0,s0,0x10
    1436:	8000                	.insn	2, 0x8000
    1438:	0000                	unimp
    143a:	0000                	unimp
    143c:	044e                	slli	s0,s0,0x13
    143e:	8000                	.insn	2, 0x8000
    1440:	0000                	unimp
    1442:	0000                	unimp
    1444:	000a                	c.slli	zero,0x2
    1446:	00106803          	lwu	a6,1(zero) # 1 <_start-0x7fffffff>
    144a:	0080                	addi	s0,sp,64
    144c:	0000                	unimp
    144e:	9f00                	.insn	2, 0x9f00
    1450:	044e                	slli	s0,s0,0x13
    1452:	8000                	.insn	2, 0x8000
    1454:	0000                	unimp
    1456:	0000                	unimp
    1458:	045e                	slli	s0,s0,0x17
    145a:	8000                	.insn	2, 0x8000
    145c:	0000                	unimp
    145e:	0000                	unimp
    1460:	0001                	nop
    1462:	005f 0000 0000      	.insn	6, 0x005f
	...
    1470:	0000                	unimp
    1472:	0400                	addi	s0,sp,512
    1474:	0006                	c.slli	zero,0x1
    1476:	0080                	addi	s0,sp,64
    1478:	0000                	unimp
    147a:	0600                	addi	s0,sp,768
    147c:	0006                	c.slli	zero,0x1
    147e:	0080                	addi	s0,sp,64
    1480:	0000                	unimp
    1482:	0200                	addi	s0,sp,256
    1484:	7200                	ld	s0,32(a2)
    1486:	0600                	addi	s0,sp,768
    1488:	0006                	c.slli	zero,0x1
    148a:	0080                	addi	s0,sp,64
    148c:	0000                	unimp
    148e:	6200                	ld	s0,0(a2)
    1490:	0006                	c.slli	zero,0x1
    1492:	0080                	addi	s0,sp,64
    1494:	0000                	unimp
    1496:	0200                	addi	s0,sp,256
    1498:	7200                	ld	s0,32(a2)
    149a:	6220                	ld	s0,64(a2)
    149c:	0006                	c.slli	zero,0x1
    149e:	0080                	addi	s0,sp,64
    14a0:	0000                	unimp
    14a2:	6400                	ld	s0,8(s0)
    14a4:	0006                	c.slli	zero,0x1
    14a6:	0080                	addi	s0,sp,64
    14a8:	0000                	unimp
    14aa:	0200                	addi	s0,sp,256
    14ac:	7200                	ld	s0,32(a2)
	...
    14be:	0400                	addi	s0,sp,512
    14c0:	0006                	c.slli	zero,0x1
    14c2:	0080                	addi	s0,sp,64
    14c4:	0000                	unimp
    14c6:	2c00                	fld	fs0,24(s0)
    14c8:	0006                	c.slli	zero,0x1
    14ca:	0080                	addi	s0,sp,64
    14cc:	0000                	unimp
    14ce:	0100                	addi	s0,sp,128
    14d0:	5a00                	lw	s0,48(a2)
    14d2:	062c                	addi	a1,sp,776
    14d4:	8000                	.insn	2, 0x8000
    14d6:	0000                	unimp
    14d8:	0000                	unimp
    14da:	0664                	addi	s1,sp,780
    14dc:	8000                	.insn	2, 0x8000
    14de:	0000                	unimp
    14e0:	0000                	unimp
    14e2:	0001                	nop
    14e4:	005a                	c.slli	zero,0x16
	...
    14f2:	0000                	unimp
    14f4:	0400                	addi	s0,sp,512
    14f6:	0006                	c.slli	zero,0x1
    14f8:	0080                	addi	s0,sp,64
    14fa:	0000                	unimp
    14fc:	1000                	addi	s0,sp,32
    14fe:	0006                	c.slli	zero,0x1
    1500:	0080                	addi	s0,sp,64
    1502:	0000                	unimp
    1504:	0200                	addi	s0,sp,256
    1506:	3000                	fld	fs0,32(s0)
    1508:	109f 0006 0080      	.insn	6, 0x00800006109f
    150e:	0000                	unimp
    1510:	1200                	addi	s0,sp,288
    1512:	0006                	c.slli	zero,0x1
    1514:	0080                	addi	s0,sp,64
    1516:	0000                	unimp
    1518:	0800                	addi	s0,sp,16
    151a:	9100                	.insn	2, 0x9100
    151c:	1c007f77          	.insn	4, 0x1c007f77
    1520:	129f0123          	sb	s1,290(t5)
    1524:	0006                	c.slli	zero,0x1
    1526:	0080                	addi	s0,sp,64
    1528:	0000                	unimp
    152a:	2c00                	fld	fs0,24(s0)
    152c:	0006                	c.slli	zero,0x1
    152e:	0080                	addi	s0,sp,64
    1530:	0000                	unimp
    1532:	0600                	addi	s0,sp,768
    1534:	9100                	.insn	2, 0x9100
    1536:	1c007f77          	.insn	4, 0x1c007f77
    153a:	2c9f 0006 0080      	.insn	6, 0x008000062c9f
    1540:	0000                	unimp
    1542:	4a00                	lw	s0,16(a2)
    1544:	0006                	c.slli	zero,0x1
    1546:	0080                	addi	s0,sp,64
    1548:	0000                	unimp
    154a:	0800                	addi	s0,sp,16
    154c:	9100                	.insn	2, 0x9100
    154e:	1c007f77          	.insn	4, 0x1c007f77
    1552:	009f0123          	sb	s1,2(t5)
	...
    1562:	0000                	unimp
    1564:	3c00                	fld	fs0,56(s0)
    1566:	0006                	c.slli	zero,0x1
    1568:	0080                	addi	s0,sp,64
    156a:	0000                	unimp
    156c:	4a00                	lw	s0,16(a2)
    156e:	0006                	c.slli	zero,0x1
    1570:	0080                	addi	s0,sp,64
    1572:	0000                	unimp
    1574:	0100                	addi	s0,sp,128
    1576:	5c00                	lw	s0,56(s0)
    1578:	064a                	slli	a2,a2,0x12
    157a:	8000                	.insn	2, 0x8000
    157c:	0000                	unimp
    157e:	0000                	unimp
    1580:	0662                	slli	a2,a2,0x18
    1582:	8000                	.insn	2, 0x8000
    1584:	0000                	unimp
    1586:	0000                	unimp
    1588:	68910003          	lb	zero,1673(sp)
    158c:	629f 0006 0080      	.insn	6, 0x00800006629f
    1592:	0000                	unimp
    1594:	6400                	ld	s0,8(s0)
    1596:	0006                	c.slli	zero,0x1
    1598:	0080                	addi	s0,sp,64
    159a:	0000                	unimp
    159c:	0300                	addi	s0,sp,384
    159e:	7200                	ld	s0,32(a2)
    15a0:	9f68                	.insn	2, 0x9f68
	...
    15b2:	063c                	addi	a5,sp,776
    15b4:	8000                	.insn	2, 0x8000
    15b6:	0000                	unimp
    15b8:	0000                	unimp
    15ba:	064a                	slli	a2,a2,0x12
    15bc:	8000                	.insn	2, 0x8000
    15be:	0000                	unimp
    15c0:	0000                	unimp
    15c2:	0001                	nop
    15c4:	4a5c                	lw	a5,20(a2)
    15c6:	0006                	c.slli	zero,0x1
    15c8:	0080                	addi	s0,sp,64
    15ca:	0000                	unimp
    15cc:	6000                	ld	s0,0(s0)
    15ce:	0006                	c.slli	zero,0x1
    15d0:	0080                	addi	s0,sp,64
    15d2:	0000                	unimp
    15d4:	0100                	addi	s0,sp,128
    15d6:	5d00                	lw	s0,56(a0)
	...
    15e8:	064c                	addi	a1,sp,772
    15ea:	8000                	.insn	2, 0x8000
    15ec:	0000                	unimp
    15ee:	0000                	unimp
    15f0:	065a                	slli	a2,a2,0x16
    15f2:	8000                	.insn	2, 0x8000
    15f4:	0000                	unimp
    15f6:	0000                	unimp
    15f8:	0001                	nop
    15fa:	0000005b          	.insn	4, 0x005b
	...
    160a:	4c00                	lw	s0,24(s0)
    160c:	0006                	c.slli	zero,0x1
    160e:	0080                	addi	s0,sp,64
    1610:	0000                	unimp
    1612:	6000                	ld	s0,0(s0)
    1614:	0006                	c.slli	zero,0x1
    1616:	0080                	addi	s0,sp,64
    1618:	0000                	unimp
    161a:	0400                	addi	s0,sp,512
    161c:	4000                	lw	s0,0(s0)
    161e:	2448                	fld	fa0,136(s0)
    1620:	009f 0000 0000      	.insn	6, 0x009f
	...
    162e:	0000                	unimp
    1630:	4c00                	lw	s0,24(s0)
    1632:	0006                	c.slli	zero,0x1
    1634:	0080                	addi	s0,sp,64
    1636:	0000                	unimp
    1638:	6000                	ld	s0,0(s0)
    163a:	0006                	c.slli	zero,0x1
    163c:	0080                	addi	s0,sp,64
    163e:	0000                	unimp
    1640:	0600                	addi	s0,sp,768
    1642:	0c00                	addi	s0,sp,528
    1644:	0005                	c.nop	1
    1646:	1000                	addi	s0,sp,32
    1648:	009f 0000 0000      	.insn	6, 0x009f
	...
    1656:	0000                	unimp
    1658:	d000                	sw	s0,32(s0)
    165a:	0001                	nop
    165c:	0080                	addi	s0,sp,64
    165e:	0000                	unimp
    1660:	d800                	sw	s0,48(s0)
    1662:	0001                	nop
    1664:	0080                	addi	s0,sp,64
    1666:	0000                	unimp
    1668:	0100                	addi	s0,sp,128
    166a:	5a00                	lw	s0,48(a2)
    166c:	01d8                	addi	a4,sp,196
    166e:	8000                	.insn	2, 0x8000
    1670:	0000                	unimp
    1672:	0000                	unimp
    1674:	01f0                	addi	a2,sp,204
    1676:	8000                	.insn	2, 0x8000
    1678:	0000                	unimp
    167a:	0000                	unimp
    167c:	0004                	.insn	2, 0x0004
    167e:	9f5a01f3          	.insn	4, 0x9f5a01f3
	...
    1692:	01d8                	addi	a4,sp,196
    1694:	8000                	.insn	2, 0x8000
    1696:	0000                	unimp
    1698:	0000                	unimp
    169a:	01ec                	addi	a1,sp,204
    169c:	8000                	.insn	2, 0x8000
    169e:	0000                	unimp
    16a0:	0000                	unimp
    16a2:	0001                	nop
    16a4:	005a                	c.slli	zero,0x16
	...
    16b2:	0000                	unimp
    16b4:	6000                	ld	s0,0(s0)
    16b6:	00800007          	.insn	4, 0x00800007
    16ba:	0000                	unimp
    16bc:	6200                	ld	s0,0(a2)
    16be:	00800007          	.insn	4, 0x00800007
    16c2:	0000                	unimp
    16c4:	0200                	addi	s0,sp,256
    16c6:	7200                	ld	s0,32(a2)
    16c8:	6200                	ld	s0,0(a2)
    16ca:	00800007          	.insn	4, 0x00800007
    16ce:	0000                	unimp
    16d0:	1800                	addi	s0,sp,48
    16d2:	0008                	.insn	2, 0x0008
    16d4:	0080                	addi	s0,sp,64
    16d6:	0000                	unimp
    16d8:	0300                	addi	s0,sp,384
    16da:	7200                	ld	s0,32(a2)
    16dc:	01b0                	addi	a2,sp,200
	...
    16ee:	0760                	addi	s0,sp,908
    16f0:	8000                	.insn	2, 0x8000
    16f2:	0000                	unimp
    16f4:	0000                	unimp
    16f6:	077c                	addi	a5,sp,908
    16f8:	8000                	.insn	2, 0x8000
    16fa:	0000                	unimp
    16fc:	0000                	unimp
    16fe:	0001                	nop
    1700:	7c5a                	ld	s8,432(sp)
    1702:	00800007          	.insn	4, 0x00800007
    1706:	0000                	unimp
    1708:	ca00                	sw	s0,16(a2)
    170a:	00800007          	.insn	4, 0x00800007
    170e:	0000                	unimp
    1710:	0100                	addi	s0,sp,128
    1712:	5900                	lw	s0,48(a0)
    1714:	07ca                	slli	a5,a5,0x12
    1716:	8000                	.insn	2, 0x8000
    1718:	0000                	unimp
    171a:	0000                	unimp
    171c:	0818                	addi	a4,sp,16
    171e:	8000                	.insn	2, 0x8000
    1720:	0000                	unimp
    1722:	0000                	unimp
    1724:	0004                	.insn	2, 0x0004
    1726:	9f5a01f3          	.insn	4, 0x9f5a01f3
	...
    173a:	0760                	addi	s0,sp,908
    173c:	8000                	.insn	2, 0x8000
    173e:	0000                	unimp
    1740:	0000                	unimp
    1742:	077e                	slli	a4,a4,0x1f
    1744:	8000                	.insn	2, 0x8000
    1746:	0000                	unimp
    1748:	0000                	unimp
    174a:	0001                	nop
    174c:	00077e5b          	.insn	4, 0x00077e5b
    1750:	0080                	addi	s0,sp,64
    1752:	0000                	unimp
    1754:	bc00                	fsd	fs0,56(s0)
    1756:	00800007          	.insn	4, 0x00800007
    175a:	0000                	unimp
    175c:	0100                	addi	s0,sp,128
    175e:	6200                	ld	s0,0(a2)
    1760:	07bc                	addi	a5,sp,968
    1762:	8000                	.insn	2, 0x8000
    1764:	0000                	unimp
    1766:	0000                	unimp
    1768:	0818                	addi	a4,sp,16
    176a:	8000                	.insn	2, 0x8000
    176c:	0000                	unimp
    176e:	0000                	unimp
    1770:	0004                	.insn	2, 0x0004
    1772:	9f5b01f3          	.insn	4, 0x9f5b01f3
	...
    1786:	07ca                	slli	a5,a5,0x12
    1788:	8000                	.insn	2, 0x8000
    178a:	0000                	unimp
    178c:	0000                	unimp
    178e:	07d2                	slli	a5,a5,0x14
    1790:	8000                	.insn	2, 0x8000
    1792:	0000                	unimp
    1794:	0000                	unimp
    1796:	0001                	nop
    1798:	d858                	sw	a4,52(s0)
    179a:	00800007          	.insn	4, 0x00800007
    179e:	0000                	unimp
    17a0:	da00                	sw	s0,48(a2)
    17a2:	00800007          	.insn	4, 0x00800007
    17a6:	0000                	unimp
    17a8:	0100                	addi	s0,sp,128
    17aa:	5800                	lw	s0,48(s0)
    17ac:	07da                	slli	a5,a5,0x16
    17ae:	8000                	.insn	2, 0x8000
    17b0:	0000                	unimp
    17b2:	0000                	unimp
    17b4:	07fa                	slli	a5,a5,0x1e
    17b6:	8000                	.insn	2, 0x8000
    17b8:	0000                	unimp
    17ba:	0000                	unimp
    17bc:	0001                	nop
    17be:	0007fa63          	bgeu	a5,zero,17d2 <_start-0x7fffe82e>
    17c2:	0080                	addi	s0,sp,64
    17c4:	0000                	unimp
    17c6:	1400                	addi	s0,sp,544
    17c8:	0008                	.insn	2, 0x0008
    17ca:	0080                	addi	s0,sp,64
    17cc:	0000                	unimp
    17ce:	0100                	addi	s0,sp,128
    17d0:	5800                	lw	s0,48(s0)
    17d2:	0814                	addi	a3,sp,16
    17d4:	8000                	.insn	2, 0x8000
    17d6:	0000                	unimp
    17d8:	0000                	unimp
    17da:	0818                	addi	a4,sp,16
    17dc:	8000                	.insn	2, 0x8000
    17de:	0000                	unimp
    17e0:	0000                	unimp
    17e2:	0001                	nop
    17e4:	00000063          	beqz	zero,17e4 <_start-0x7fffe81c>
	...
    17f4:	ca00                	sw	s0,16(a2)
    17f6:	00800007          	.insn	4, 0x00800007
    17fa:	0000                	unimp
    17fc:	cc00                	sw	s0,24(s0)
    17fe:	00800007          	.insn	4, 0x00800007
    1802:	0000                	unimp
    1804:	0200                	addi	s0,sp,256
    1806:	3000                	fld	fs0,32(s0)
    1808:	cc9f 0007 0080      	.insn	6, 0x00800007cc9f
    180e:	0000                	unimp
    1810:	d200                	sw	s0,32(a2)
    1812:	00800007          	.insn	4, 0x00800007
    1816:	0000                	unimp
    1818:	0200                	addi	s0,sp,256
    181a:	3100                	fld	fs0,32(a0)
    181c:	d89f 0007 0080      	.insn	6, 0x00800007d89f
    1822:	0000                	unimp
    1824:	ee00                	sd	s0,24(a2)
    1826:	00800007          	.insn	4, 0x00800007
    182a:	0000                	unimp
    182c:	0200                	addi	s0,sp,256
    182e:	3100                	fld	fs0,32(a0)
    1830:	ee9f 0007 0080      	.insn	6, 0x00800007ee9f
    1836:	0000                	unimp
    1838:	fa00                	sd	s0,48(a2)
    183a:	00800007          	.insn	4, 0x00800007
    183e:	0000                	unimp
    1840:	0200                	addi	s0,sp,256
    1842:	3200                	fld	fs0,32(a2)
    1844:	fa9f 0007 0080      	.insn	6, 0x00800007fa9f
    184a:	0000                	unimp
    184c:	1400                	addi	s0,sp,544
    184e:	0008                	.insn	2, 0x0008
    1850:	0080                	addi	s0,sp,64
    1852:	0000                	unimp
    1854:	0200                	addi	s0,sp,256
    1856:	3000                	fld	fs0,32(s0)
    1858:	149f 0008 0080      	.insn	6, 0x00800008149f
    185e:	0000                	unimp
    1860:	1800                	addi	s0,sp,48
    1862:	0008                	.insn	2, 0x0008
    1864:	0080                	addi	s0,sp,64
    1866:	0000                	unimp
    1868:	0200                	addi	s0,sp,256
    186a:	3100                	fld	fs0,32(a0)
    186c:	009f 0000 0000      	.insn	6, 0x009f
	...
    187a:	0000                	unimp
    187c:	7200                	ld	s0,32(a2)
    187e:	00800007          	.insn	4, 0x00800007
    1882:	0000                	unimp
    1884:	9e00                	.insn	2, 0x9e00
    1886:	00800007          	.insn	4, 0x00800007
    188a:	0000                	unimp
    188c:	0100                	addi	s0,sp,128
    188e:	6400                	ld	s0,8(s0)
	...
    18a0:	0794                	addi	a3,sp,960
    18a2:	8000                	.insn	2, 0x8000
    18a4:	0000                	unimp
    18a6:	0000                	unimp
    18a8:	079d                	addi	a5,a5,7
    18aa:	8000                	.insn	2, 0x8000
    18ac:	0000                	unimp
    18ae:	0000                	unimp
    18b0:	0001                	nop
    18b2:	005c                	addi	a5,sp,4
	...
    18c0:	0000                	unimp
    18c2:	d200                	sw	s0,32(a2)
    18c4:	00800007          	.insn	4, 0x00800007
    18c8:	0000                	unimp
    18ca:	d800                	sw	s0,48(s0)
    18cc:	00800007          	.insn	4, 0x00800007
    18d0:	0000                	unimp
    18d2:	0100                	addi	s0,sp,128
    18d4:	5900                	lw	s0,48(a0)
	...
    18e6:	07f2                	slli	a5,a5,0x1c
    18e8:	8000                	.insn	2, 0x8000
    18ea:	0000                	unimp
    18ec:	0000                	unimp
    18ee:	07f8                	addi	a4,sp,972
    18f0:	8000                	.insn	2, 0x8000
    18f2:	0000                	unimp
    18f4:	0000                	unimp
    18f6:	0001                	nop
    18f8:	0058                	addi	a4,sp,4
	...
    1906:	0000                	unimp
    1908:	ee00                	sd	s0,24(a2)
    190a:	0009                	c.nop	2
    190c:	0080                	addi	s0,sp,64
    190e:	0000                	unimp
    1910:	f000                	sd	s0,32(s0)
    1912:	0009                	c.nop	2
    1914:	0080                	addi	s0,sp,64
    1916:	0000                	unimp
    1918:	0200                	addi	s0,sp,256
    191a:	7200                	ld	s0,32(a2)
    191c:	f000                	sd	s0,32(s0)
    191e:	0009                	c.nop	2
    1920:	0080                	addi	s0,sp,64
    1922:	0000                	unimp
    1924:	0400                	addi	s0,sp,512
    1926:	000a                	c.slli	zero,0x2
    1928:	0080                	addi	s0,sp,64
    192a:	0000                	unimp
    192c:	0200                	addi	s0,sp,256
    192e:	7200                	ld	s0,32(a2)
    1930:	0410                	addi	a2,sp,512
    1932:	000a                	c.slli	zero,0x2
    1934:	0080                	addi	s0,sp,64
    1936:	0000                	unimp
    1938:	0600                	addi	s0,sp,768
    193a:	000a                	c.slli	zero,0x2
    193c:	0080                	addi	s0,sp,64
    193e:	0000                	unimp
    1940:	0200                	addi	s0,sp,256
    1942:	7200                	ld	s0,32(a2)
	...
    1954:	ee00                	sd	s0,24(a2)
    1956:	0009                	c.nop	2
    1958:	0080                	addi	s0,sp,64
    195a:	0000                	unimp
    195c:	f800                	sd	s0,48(s0)
    195e:	0009                	c.nop	2
    1960:	0080                	addi	s0,sp,64
    1962:	0000                	unimp
    1964:	0100                	addi	s0,sp,128
    1966:	5a00                	lw	s0,48(a2)
    1968:	09f8                	addi	a4,sp,220
    196a:	8000                	.insn	2, 0x8000
    196c:	0000                	unimp
    196e:	0000                	unimp
    1970:	0a06                	slli	s4,s4,0x1
    1972:	8000                	.insn	2, 0x8000
    1974:	0000                	unimp
    1976:	0000                	unimp
    1978:	0004                	.insn	2, 0x0004
    197a:	9f5a01f3          	.insn	4, 0x9f5a01f3
	...
    198e:	09ee                	slli	s3,s3,0x1b
    1990:	8000                	.insn	2, 0x8000
    1992:	0000                	unimp
    1994:	0000                	unimp
    1996:	09fd                	addi	s3,s3,31
    1998:	8000                	.insn	2, 0x8000
    199a:	0000                	unimp
    199c:	0000                	unimp
    199e:	0001                	nop
    19a0:	0009fd5b          	.insn	4, 0x0009fd5b
    19a4:	0080                	addi	s0,sp,64
    19a6:	0000                	unimp
    19a8:	0600                	addi	s0,sp,768
    19aa:	000a                	c.slli	zero,0x2
    19ac:	0080                	addi	s0,sp,64
    19ae:	0000                	unimp
    19b0:	0400                	addi	s0,sp,512
    19b2:	f300                	sd	s0,32(a4)
    19b4:	5b01                	li	s6,-32
    19b6:	009f 0000 0000      	.insn	6, 0x009f
	...
    19c4:	0000                	unimp
    19c6:	ee00                	sd	s0,24(a2)
    19c8:	0009                	c.nop	2
    19ca:	0080                	addi	s0,sp,64
    19cc:	0000                	unimp
    19ce:	fe00                	sd	s0,56(a2)
    19d0:	0009                	c.nop	2
    19d2:	0080                	addi	s0,sp,64
    19d4:	0000                	unimp
    19d6:	0a00                	addi	s0,sp,272
    19d8:	0300                	addi	s0,sp,384
    19da:	1090                	addi	a2,sp,96
    19dc:	8000                	.insn	2, 0x8000
    19de:	0000                	unimp
    19e0:	0000                	unimp
    19e2:	009f 0000 0000      	.insn	6, 0x009f
	...
    19f0:	0000                	unimp
    19f2:	d400                	sw	s0,40(s0)
    19f4:	0005                	c.nop	1
    19f6:	0080                	addi	s0,sp,64
    19f8:	0000                	unimp
    19fa:	e400                	sd	s0,8(s0)
    19fc:	0005                	c.nop	1
    19fe:	0080                	addi	s0,sp,64
    1a00:	0000                	unimp
    1a02:	0100                	addi	s0,sp,128
    1a04:	5a00                	lw	s0,48(a2)
    1a06:	05e4                	addi	s1,sp,716
    1a08:	8000                	.insn	2, 0x8000
    1a0a:	0000                	unimp
    1a0c:	0000                	unimp
    1a0e:	05fe                	slli	a1,a1,0x1f
    1a10:	8000                	.insn	2, 0x8000
    1a12:	0000                	unimp
    1a14:	0000                	unimp
    1a16:	0004                	.insn	2, 0x0004
    1a18:	9f5a01f3          	.insn	4, 0x9f5a01f3
	...
    1a2c:	05d4                	addi	a3,sp,708
    1a2e:	8000                	.insn	2, 0x8000
    1a30:	0000                	unimp
    1a32:	0000                	unimp
    1a34:	05e4                	addi	s1,sp,716
    1a36:	8000                	.insn	2, 0x8000
    1a38:	0000                	unimp
    1a3a:	0000                	unimp
    1a3c:	0001                	nop
    1a3e:	e45a                	sd	s6,8(sp)
    1a40:	0005                	c.nop	1
    1a42:	0080                	addi	s0,sp,64
    1a44:	0000                	unimp
    1a46:	fa00                	sd	s0,48(a2)
    1a48:	0005                	c.nop	1
    1a4a:	0080                	addi	s0,sp,64
    1a4c:	0000                	unimp
    1a4e:	0400                	addi	s0,sp,512
    1a50:	f300                	sd	s0,32(a4)
    1a52:	5a01                	li	s4,-32
    1a54:	009f 0000 0000      	.insn	6, 0x009f
	...
    1a62:	0000                	unimp
    1a64:	d400                	sw	s0,40(s0)
    1a66:	0005                	c.nop	1
    1a68:	0080                	addi	s0,sp,64
    1a6a:	0000                	unimp
    1a6c:	fa00                	sd	s0,48(a2)
    1a6e:	0005                	c.nop	1
    1a70:	0080                	addi	s0,sp,64
    1a72:	0000                	unimp
    1a74:	0100                	addi	s0,sp,128
    1a76:	5a00                	lw	s0,48(a2)
	...
    1a88:	05e6                	slli	a1,a1,0x19
    1a8a:	8000                	.insn	2, 0x8000
    1a8c:	0000                	unimp
    1a8e:	0000                	unimp
    1a90:	05f4                	addi	a3,sp,716
    1a92:	8000                	.insn	2, 0x8000
    1a94:	0000                	unimp
    1a96:	0000                	unimp
    1a98:	0001                	nop
    1a9a:	005d                	c.nop	23
	...
    1aa8:	0000                	unimp
    1aaa:	e600                	sd	s0,8(a2)
    1aac:	0005                	c.nop	1
    1aae:	0080                	addi	s0,sp,64
    1ab0:	0000                	unimp
    1ab2:	fa00                	sd	s0,48(a2)
    1ab4:	0005                	c.nop	1
    1ab6:	0080                	addi	s0,sp,64
    1ab8:	0000                	unimp
    1aba:	0400                	addi	s0,sp,512
    1abc:	4000                	lw	s0,0(s0)
    1abe:	2448                	fld	fa0,136(s0)
    1ac0:	009f 0000 0000      	.insn	6, 0x009f
	...
    1ace:	0000                	unimp
    1ad0:	e600                	sd	s0,8(a2)
    1ad2:	0005                	c.nop	1
    1ad4:	0080                	addi	s0,sp,64
    1ad6:	0000                	unimp
    1ad8:	fa00                	sd	s0,48(a2)
    1ada:	0005                	c.nop	1
    1adc:	0080                	addi	s0,sp,64
    1ade:	0000                	unimp
    1ae0:	0600                	addi	s0,sp,768
    1ae2:	0c00                	addi	s0,sp,528
    1ae4:	0005                	c.nop	1
    1ae6:	1000                	addi	s0,sp,32
    1ae8:	009f 0000 0000      	.insn	6, 0x009f
	...
    1af6:	0000                	unimp
    1af8:	3a00                	fld	fs0,48(a2)
    1afa:	0005                	c.nop	1
    1afc:	0080                	addi	s0,sp,64
    1afe:	0000                	unimp
    1b00:	4400                	lw	s0,8(s0)
    1b02:	0005                	c.nop	1
    1b04:	0080                	addi	s0,sp,64
    1b06:	0000                	unimp
    1b08:	0200                	addi	s0,sp,256
    1b0a:	3000                	fld	fs0,32(s0)
    1b0c:	449f 0005 0080      	.insn	6, 0x00800005449f
    1b12:	0000                	unimp
    1b14:	4a00                	lw	s0,16(a2)
    1b16:	0005                	c.nop	1
    1b18:	0080                	addi	s0,sp,64
    1b1a:	0000                	unimp
    1b1c:	0200                	addi	s0,sp,256
    1b1e:	3100                	fld	fs0,32(a0)
    1b20:	4a9f 0005 0080      	.insn	6, 0x008000054a9f
    1b26:	0000                	unimp
    1b28:	4e00                	lw	s0,24(a2)
    1b2a:	0005                	c.nop	1
    1b2c:	0080                	addi	s0,sp,64
    1b2e:	0000                	unimp
    1b30:	0200                	addi	s0,sp,256
    1b32:	3200                	fld	fs0,32(a2)
    1b34:	4e9f 0005 0080      	.insn	6, 0x008000054e9f
    1b3a:	0000                	unimp
    1b3c:	5c00                	lw	s0,56(s0)
    1b3e:	0005                	c.nop	1
    1b40:	0080                	addi	s0,sp,64
    1b42:	0000                	unimp
    1b44:	0200                	addi	s0,sp,256
    1b46:	3000                	fld	fs0,32(s0)
    1b48:	5c9f 0005 0080      	.insn	6, 0x008000055c9f
    1b4e:	0000                	unimp
    1b50:	7000                	ld	s0,32(s0)
    1b52:	0005                	c.nop	1
    1b54:	0080                	addi	s0,sp,64
    1b56:	0000                	unimp
    1b58:	0200                	addi	s0,sp,256
    1b5a:	3100                	fld	fs0,32(a0)
    1b5c:	709f 0005 0080      	.insn	6, 0x00800005709f
    1b62:	0000                	unimp
    1b64:	7400                	ld	s0,40(s0)
    1b66:	0005                	c.nop	1
    1b68:	0080                	addi	s0,sp,64
    1b6a:	0000                	unimp
    1b6c:	0200                	addi	s0,sp,256
    1b6e:	3200                	fld	fs0,32(a2)
    1b70:	009f 0000 0000      	.insn	6, 0x009f
	...
    1b7e:	0000                	unimp
    1b80:	3e00                	fld	fs0,56(a2)
    1b82:	0005                	c.nop	1
    1b84:	0080                	addi	s0,sp,64
    1b86:	0000                	unimp
    1b88:	4a00                	lw	s0,16(a2)
    1b8a:	0005                	c.nop	1
    1b8c:	0080                	addi	s0,sp,64
    1b8e:	0000                	unimp
    1b90:	0100                	addi	s0,sp,128
    1b92:	5e00                	lw	s0,56(a2)
    1b94:	054a                	slli	a0,a0,0x12
    1b96:	8000                	.insn	2, 0x8000
    1b98:	0000                	unimp
    1b9a:	0000                	unimp
    1b9c:	054e                	slli	a0,a0,0x13
    1b9e:	8000                	.insn	2, 0x8000
    1ba0:	0000                	unimp
    1ba2:	0000                	unimp
    1ba4:	0009                	c.nop	2
    1ba6:	0012a803          	lw	a6,1(t0)
    1baa:	0080                	addi	s0,sp,64
    1bac:	0000                	unimp
    1bae:	4e00                	lw	s0,24(a2)
    1bb0:	0005                	c.nop	1
    1bb2:	0080                	addi	s0,sp,64
    1bb4:	0000                	unimp
    1bb6:	6200                	ld	s0,0(a2)
    1bb8:	0005                	c.nop	1
    1bba:	0080                	addi	s0,sp,64
    1bbc:	0000                	unimp
    1bbe:	0100                	addi	s0,sp,128
    1bc0:	5e00                	lw	s0,56(a2)
    1bc2:	0562                	slli	a0,a0,0x18
    1bc4:	8000                	.insn	2, 0x8000
    1bc6:	0000                	unimp
    1bc8:	0000                	unimp
    1bca:	0574                	addi	a3,sp,652
    1bcc:	8000                	.insn	2, 0x8000
    1bce:	0000                	unimp
    1bd0:	0000                	unimp
    1bd2:	0009                	c.nop	2
    1bd4:	0012a803          	lw	a6,1(t0)
    1bd8:	0080                	addi	s0,sp,64
	...
    1bea:	0000                	unimp
    1bec:	3e00                	fld	fs0,56(a2)
    1bee:	0005                	c.nop	1
    1bf0:	0080                	addi	s0,sp,64
    1bf2:	0000                	unimp
    1bf4:	4a00                	lw	s0,16(a2)
    1bf6:	0005                	c.nop	1
    1bf8:	0080                	addi	s0,sp,64
    1bfa:	0000                	unimp
    1bfc:	0100                	addi	s0,sp,128
    1bfe:	5e00                	lw	s0,56(a2)
    1c00:	054a                	slli	a0,a0,0x12
    1c02:	8000                	.insn	2, 0x8000
    1c04:	0000                	unimp
    1c06:	0000                	unimp
    1c08:	054e                	slli	a0,a0,0x13
    1c0a:	8000                	.insn	2, 0x8000
    1c0c:	0000                	unimp
    1c0e:	0000                	unimp
    1c10:	0009                	c.nop	2
    1c12:	0012a803          	lw	a6,1(t0)
    1c16:	0080                	addi	s0,sp,64
    1c18:	0000                	unimp
    1c1a:	4e00                	lw	s0,24(a2)
    1c1c:	0005                	c.nop	1
    1c1e:	0080                	addi	s0,sp,64
    1c20:	0000                	unimp
    1c22:	5c00                	lw	s0,56(s0)
    1c24:	0005                	c.nop	1
    1c26:	0080                	addi	s0,sp,64
    1c28:	0000                	unimp
    1c2a:	0100                	addi	s0,sp,128
    1c2c:	5e00                	lw	s0,56(a2)
	...
    1c3e:	054a                	slli	a0,a0,0x12
    1c40:	8000                	.insn	2, 0x8000
    1c42:	0000                	unimp
    1c44:	0000                	unimp
    1c46:	054e                	slli	a0,a0,0x13
    1c48:	8000                	.insn	2, 0x8000
    1c4a:	0000                	unimp
    1c4c:	0000                	unimp
    1c4e:	0001                	nop
    1c50:	625e                	ld	tp,464(sp)
    1c52:	0005                	c.nop	1
    1c54:	0080                	addi	s0,sp,64
    1c56:	0000                	unimp
    1c58:	7400                	ld	s0,40(s0)
    1c5a:	0005                	c.nop	1
    1c5c:	0080                	addi	s0,sp,64
    1c5e:	0000                	unimp
    1c60:	0100                	addi	s0,sp,128
    1c62:	5e00                	lw	s0,56(a2)
	...
    1c74:	054a                	slli	a0,a0,0x12
    1c76:	8000                	.insn	2, 0x8000
    1c78:	0000                	unimp
    1c7a:	0000                	unimp
    1c7c:	054e                	slli	a0,a0,0x13
    1c7e:	8000                	.insn	2, 0x8000
    1c80:	0000                	unimp
    1c82:	0000                	unimp
    1c84:	0001                	nop
    1c86:	625e                	ld	tp,464(sp)
    1c88:	0005                	c.nop	1
    1c8a:	0080                	addi	s0,sp,64
    1c8c:	0000                	unimp
    1c8e:	7000                	ld	s0,32(s0)
    1c90:	0005                	c.nop	1
    1c92:	0080                	addi	s0,sp,64
    1c94:	0000                	unimp
    1c96:	0100                	addi	s0,sp,128
    1c98:	5e00                	lw	s0,56(a2)
	...
    1caa:	0512                	slli	a0,a0,0x4
    1cac:	8000                	.insn	2, 0x8000
    1cae:	0000                	unimp
    1cb0:	0000                	unimp
    1cb2:	0524                	addi	s1,sp,648
    1cb4:	8000                	.insn	2, 0x8000
    1cb6:	0000                	unimp
    1cb8:	0000                	unimp
    1cba:	0001                	nop
    1cbc:	245a                	fld	fs0,400(sp)
    1cbe:	0005                	c.nop	1
    1cc0:	0080                	addi	s0,sp,64
    1cc2:	0000                	unimp
    1cc4:	3800                	fld	fs0,48(s0)
    1cc6:	0005                	c.nop	1
    1cc8:	0080                	addi	s0,sp,64
    1cca:	0000                	unimp
    1ccc:	0100                	addi	s0,sp,128
    1cce:	5a00                	lw	s0,48(a2)
	...
    1ce0:	0524                	addi	s1,sp,648
    1ce2:	8000                	.insn	2, 0x8000
    1ce4:	0000                	unimp
    1ce6:	0000                	unimp
    1ce8:	0532                	slli	a0,a0,0xc
    1cea:	8000                	.insn	2, 0x8000
    1cec:	0000                	unimp
    1cee:	0000                	unimp
    1cf0:	0001                	nop
    1cf2:	005d                	c.nop	23
	...
    1d00:	0000                	unimp
    1d02:	2400                	fld	fs0,8(s0)
    1d04:	0005                	c.nop	1
    1d06:	0080                	addi	s0,sp,64
    1d08:	0000                	unimp
    1d0a:	3800                	fld	fs0,48(s0)
    1d0c:	0005                	c.nop	1
    1d0e:	0080                	addi	s0,sp,64
    1d10:	0000                	unimp
    1d12:	0400                	addi	s0,sp,512
    1d14:	4000                	lw	s0,0(s0)
    1d16:	2448                	fld	fa0,136(s0)
    1d18:	009f 0000 0000      	.insn	6, 0x009f
	...
    1d26:	0000                	unimp
    1d28:	2400                	fld	fs0,8(s0)
    1d2a:	0005                	c.nop	1
    1d2c:	0080                	addi	s0,sp,64
    1d2e:	0000                	unimp
    1d30:	3800                	fld	fs0,48(s0)
    1d32:	0005                	c.nop	1
    1d34:	0080                	addi	s0,sp,64
    1d36:	0000                	unimp
    1d38:	0600                	addi	s0,sp,768
    1d3a:	0c00                	addi	s0,sp,528
    1d3c:	0005                	c.nop	1
    1d3e:	1000                	addi	s0,sp,32
    1d40:	009f 0000 0000      	.insn	6, 0x009f
	...
    1d4e:	0000                	unimp
    1d50:	9600                	.insn	2, 0x9600
    1d52:	0005                	c.nop	1
    1d54:	0080                	addi	s0,sp,64
    1d56:	0000                	unimp
    1d58:	9800                	.insn	2, 0x9800
    1d5a:	0005                	c.nop	1
    1d5c:	0080                	addi	s0,sp,64
    1d5e:	0000                	unimp
    1d60:	0200                	addi	s0,sp,256
    1d62:	7200                	ld	s0,32(a2)
    1d64:	9800                	.insn	2, 0x9800
    1d66:	0005                	c.nop	1
    1d68:	0080                	addi	s0,sp,64
    1d6a:	0000                	unimp
    1d6c:	9e00                	.insn	2, 0x9e00
    1d6e:	0005                	c.nop	1
    1d70:	0080                	addi	s0,sp,64
    1d72:	0000                	unimp
    1d74:	0200                	addi	s0,sp,256
    1d76:	7200                	ld	s0,32(a2)
    1d78:	0010                	.insn	2, 0x0010
	...
    1d86:	0000                	unimp
    1d88:	9600                	.insn	2, 0x9600
    1d8a:	0005                	c.nop	1
    1d8c:	0080                	addi	s0,sp,64
    1d8e:	0000                	unimp
    1d90:	9d00                	.insn	2, 0x9d00
    1d92:	0005                	c.nop	1
    1d94:	0080                	addi	s0,sp,64
    1d96:	0000                	unimp
    1d98:	0100                	addi	s0,sp,128
    1d9a:	5a00                	lw	s0,48(a2)
    1d9c:	059d                	addi	a1,a1,7
    1d9e:	8000                	.insn	2, 0x8000
    1da0:	0000                	unimp
    1da2:	0000                	unimp
    1da4:	059e                	slli	a1,a1,0x7
    1da6:	8000                	.insn	2, 0x8000
    1da8:	0000                	unimp
    1daa:	0000                	unimp
    1dac:	0004                	.insn	2, 0x0004
    1dae:	9f5a01f3          	.insn	4, 0x9f5a01f3
	...
    1dc2:	05ac                	addi	a1,sp,712
    1dc4:	8000                	.insn	2, 0x8000
    1dc6:	0000                	unimp
    1dc8:	0000                	unimp
    1dca:	05bc                	addi	a5,sp,712
    1dcc:	8000                	.insn	2, 0x8000
    1dce:	0000                	unimp
    1dd0:	0000                	unimp
    1dd2:	0001                	nop
    1dd4:	bc5a                	fsd	fs6,56(sp)
    1dd6:	0005                	c.nop	1
    1dd8:	0080                	addi	s0,sp,64
    1dda:	0000                	unimp
    1ddc:	d400                	sw	s0,40(s0)
    1dde:	0005                	c.nop	1
    1de0:	0080                	addi	s0,sp,64
    1de2:	0000                	unimp
    1de4:	0400                	addi	s0,sp,512
    1de6:	f300                	sd	s0,32(a4)
    1de8:	5a01                	li	s4,-32
    1dea:	009f 0000 0000      	.insn	6, 0x009f
	...
    1df8:	0000                	unimp
    1dfa:	be00                	fsd	fs0,56(a2)
    1dfc:	0005                	c.nop	1
    1dfe:	0080                	addi	s0,sp,64
    1e00:	0000                	unimp
    1e02:	cc00                	sw	s0,24(s0)
    1e04:	0005                	c.nop	1
    1e06:	0080                	addi	s0,sp,64
    1e08:	0000                	unimp
    1e0a:	0100                	addi	s0,sp,128
    1e0c:	5d00                	lw	s0,56(a0)
	...
    1e1e:	05be                	slli	a1,a1,0xf
    1e20:	8000                	.insn	2, 0x8000
    1e22:	0000                	unimp
    1e24:	0000                	unimp
    1e26:	05d2                	slli	a1,a1,0x14
    1e28:	8000                	.insn	2, 0x8000
    1e2a:	0000                	unimp
    1e2c:	0000                	unimp
    1e2e:	0004                	.insn	2, 0x0004
    1e30:	4840                	lw	s0,20(s0)
    1e32:	9f24                	.insn	2, 0x9f24
	...
    1e44:	05be                	slli	a1,a1,0xf
    1e46:	8000                	.insn	2, 0x8000
    1e48:	0000                	unimp
    1e4a:	0000                	unimp
    1e4c:	05d2                	slli	a1,a1,0x14
    1e4e:	8000                	.insn	2, 0x8000
    1e50:	0000                	unimp
    1e52:	0000                	unimp
    1e54:	0006                	c.slli	zero,0x1
    1e56:	050c                	addi	a1,sp,640
    1e58:	0000                	unimp
    1e5a:	9f10                	.insn	2, 0x9f10
	...
    1e6c:	06d6                	slli	a3,a3,0x15
    1e6e:	8000                	.insn	2, 0x8000
    1e70:	0000                	unimp
    1e72:	0000                	unimp
    1e74:	06ec                	addi	a1,sp,844
    1e76:	8000                	.insn	2, 0x8000
    1e78:	0000                	unimp
    1e7a:	0000                	unimp
    1e7c:	0001                	nop
    1e7e:	0006ec5b          	.insn	4, 0x0006ec5b
    1e82:	0080                	addi	s0,sp,64
    1e84:	0000                	unimp
    1e86:	fe00                	sd	s0,56(a2)
    1e88:	0006                	c.slli	zero,0x1
    1e8a:	0080                	addi	s0,sp,64
    1e8c:	0000                	unimp
    1e8e:	0400                	addi	s0,sp,512
    1e90:	f300                	sd	s0,32(a4)
    1e92:	5b01                	li	s6,-32
    1e94:	fe9f 0006 0080      	.insn	6, 0x00800006fe9f
    1e9a:	0000                	unimp
    1e9c:	0400                	addi	s0,sp,512
    1e9e:	00800007          	.insn	4, 0x00800007
    1ea2:	0000                	unimp
    1ea4:	0100                	addi	s0,sp,128
    1ea6:	5b00                	lw	s0,48(a4)
    1ea8:	0704                	addi	s1,sp,896
    1eaa:	8000                	.insn	2, 0x8000
    1eac:	0000                	unimp
    1eae:	0000                	unimp
    1eb0:	0714                	addi	a3,sp,896
    1eb2:	8000                	.insn	2, 0x8000
    1eb4:	0000                	unimp
    1eb6:	0000                	unimp
    1eb8:	0004                	.insn	2, 0x0004
    1eba:	9f5b01f3          	.insn	4, 0x9f5b01f3
    1ebe:	0714                	addi	a3,sp,896
    1ec0:	8000                	.insn	2, 0x8000
    1ec2:	0000                	unimp
    1ec4:	0000                	unimp
    1ec6:	0716                	slli	a4,a4,0x5
    1ec8:	8000                	.insn	2, 0x8000
    1eca:	0000                	unimp
    1ecc:	0000                	unimp
    1ece:	0001                	nop
    1ed0:	0000005b          	.insn	4, 0x005b
	...
    1ee0:	d600                	sw	s0,40(a2)
    1ee2:	0006                	c.slli	zero,0x1
    1ee4:	0080                	addi	s0,sp,64
    1ee6:	0000                	unimp
    1ee8:	e600                	sd	s0,8(a2)
    1eea:	0006                	c.slli	zero,0x1
    1eec:	0080                	addi	s0,sp,64
    1eee:	0000                	unimp
    1ef0:	0100                	addi	s0,sp,128
    1ef2:	5c00                	lw	s0,56(s0)
    1ef4:	06e6                	slli	a3,a3,0x19
    1ef6:	8000                	.insn	2, 0x8000
    1ef8:	0000                	unimp
    1efa:	0000                	unimp
    1efc:	06fe                	slli	a3,a3,0x1f
    1efe:	8000                	.insn	2, 0x8000
    1f00:	0000                	unimp
    1f02:	0000                	unimp
    1f04:	0004                	.insn	2, 0x0004
    1f06:	9f5c01f3          	.insn	4, 0x9f5c01f3
    1f0a:	06fe                	slli	a3,a3,0x1f
    1f0c:	8000                	.insn	2, 0x8000
    1f0e:	0000                	unimp
    1f10:	0000                	unimp
    1f12:	0714                	addi	a3,sp,896
    1f14:	8000                	.insn	2, 0x8000
    1f16:	0000                	unimp
    1f18:	0000                	unimp
    1f1a:	0001                	nop
    1f1c:	145c                	addi	a5,sp,548
    1f1e:	00800007          	.insn	4, 0x00800007
    1f22:	0000                	unimp
    1f24:	1600                	addi	s0,sp,800
    1f26:	00800007          	.insn	4, 0x00800007
    1f2a:	0000                	unimp
    1f2c:	0400                	addi	s0,sp,512
    1f2e:	f300                	sd	s0,32(a4)
    1f30:	5c01                	li	s8,-32
    1f32:	009f 0000 0000      	.insn	6, 0x009f
	...
    1f40:	0000                	unimp
    1f42:	e400                	sd	s0,8(s0)
    1f44:	0006                	c.slli	zero,0x1
    1f46:	0080                	addi	s0,sp,64
    1f48:	0000                	unimp
    1f4a:	fc00                	sd	s0,56(s0)
    1f4c:	0006                	c.slli	zero,0x1
    1f4e:	0080                	addi	s0,sp,64
    1f50:	0000                	unimp
    1f52:	0100                	addi	s0,sp,128
    1f54:	5b00                	lw	s0,48(a4)
    1f56:	0714                	addi	a3,sp,896
    1f58:	8000                	.insn	2, 0x8000
    1f5a:	0000                	unimp
    1f5c:	0000                	unimp
    1f5e:	0716                	slli	a4,a4,0x5
    1f60:	8000                	.insn	2, 0x8000
    1f62:	0000                	unimp
    1f64:	0000                	unimp
    1f66:	0001                	nop
    1f68:	0000005b          	.insn	4, 0x005b
	...
    1f78:	e400                	sd	s0,8(s0)
    1f7a:	0006                	c.slli	zero,0x1
    1f7c:	0080                	addi	s0,sp,64
    1f7e:	0000                	unimp
    1f80:	ec00                	sd	s0,24(s0)
    1f82:	0006                	c.slli	zero,0x1
    1f84:	0080                	addi	s0,sp,64
    1f86:	0000                	unimp
    1f88:	0100                	addi	s0,sp,128
    1f8a:	5a00                	lw	s0,48(a2)
    1f8c:	06ec                	addi	a1,sp,844
    1f8e:	8000                	.insn	2, 0x8000
    1f90:	0000                	unimp
    1f92:	0000                	unimp
    1f94:	06fc                	addi	a5,sp,844
    1f96:	8000                	.insn	2, 0x8000
    1f98:	0000                	unimp
    1f9a:	0000                	unimp
    1f9c:	0001                	nop
    1f9e:	145f 0007 0080      	.insn	6, 0x00800007145f
    1fa4:	0000                	unimp
    1fa6:	1600                	addi	s0,sp,800
    1fa8:	00800007          	.insn	4, 0x00800007
    1fac:	0000                	unimp
    1fae:	0100                	addi	s0,sp,128
    1fb0:	5a00                	lw	s0,48(a2)
	...
    1fc2:	06fe                	slli	a3,a3,0x1f
    1fc4:	8000                	.insn	2, 0x8000
    1fc6:	0000                	unimp
    1fc8:	0000                	unimp
    1fca:	0714                	addi	a3,sp,896
    1fcc:	8000                	.insn	2, 0x8000
    1fce:	0000                	unimp
    1fd0:	0000                	unimp
    1fd2:	0001                	nop
    1fd4:	0000005b          	.insn	4, 0x005b
	...
    1fe4:	fe00                	sd	s0,56(a2)
    1fe6:	0006                	c.slli	zero,0x1
    1fe8:	0080                	addi	s0,sp,64
    1fea:	0000                	unimp
    1fec:	0400                	addi	s0,sp,512
    1fee:	00800007          	.insn	4, 0x00800007
    1ff2:	0000                	unimp
    1ff4:	0100                	addi	s0,sp,128
    1ff6:	5a00                	lw	s0,48(a2)
    1ff8:	0704                	addi	s1,sp,896
    1ffa:	8000                	.insn	2, 0x8000
    1ffc:	0000                	unimp
    1ffe:	0000                	unimp
    2000:	0708                	addi	a0,sp,896
    2002:	8000                	.insn	2, 0x8000
    2004:	0000                	unimp
    2006:	0000                	unimp
    2008:	0001                	nop
    200a:	085f 0007 0080      	.insn	6, 0x00800007085f
    2010:	0000                	unimp
    2012:	0a00                	addi	s0,sp,272
    2014:	00800007          	.insn	4, 0x00800007
    2018:	0000                	unimp
    201a:	0300                	addi	s0,sp,384
    201c:	7f00                	ld	s0,56(a4)
    201e:	9f78                	.insn	2, 0x9f78
    2020:	070a                	slli	a4,a4,0x2
    2022:	8000                	.insn	2, 0x8000
    2024:	0000                	unimp
    2026:	0000                	unimp
    2028:	0714                	addi	a3,sp,896
    202a:	8000                	.insn	2, 0x8000
    202c:	0000                	unimp
    202e:	0000                	unimp
    2030:	0001                	nop
    2032:	005f 0000 0000      	.insn	6, 0x005f
	...
    2040:	0000                	unimp
    2042:	1600                	addi	s0,sp,800
    2044:	00800007          	.insn	4, 0x00800007
    2048:	0000                	unimp
    204a:	1e00                	addi	s0,sp,816
    204c:	00800007          	.insn	4, 0x00800007
    2050:	0000                	unimp
    2052:	0100                	addi	s0,sp,128
    2054:	5c00                	lw	s0,56(s0)
    2056:	071e                	slli	a4,a4,0x7
    2058:	8000                	.insn	2, 0x8000
    205a:	0000                	unimp
    205c:	0000                	unimp
    205e:	0760                	addi	s0,sp,908
    2060:	8000                	.insn	2, 0x8000
    2062:	0000                	unimp
    2064:	0000                	unimp
    2066:	0004                	.insn	2, 0x0004
    2068:	9f5c01f3          	.insn	4, 0x9f5c01f3
	...
    207c:	0720                	addi	s0,sp,904
    207e:	8000                	.insn	2, 0x8000
    2080:	0000                	unimp
    2082:	0000                	unimp
    2084:	072a                	slli	a4,a4,0xa
    2086:	8000                	.insn	2, 0x8000
    2088:	0000                	unimp
    208a:	0000                	unimp
    208c:	0001                	nop
    208e:	2a5a                	fld	fs4,400(sp)
    2090:	00800007          	.insn	4, 0x00800007
    2094:	0000                	unimp
    2096:	3400                	fld	fs0,40(s0)
    2098:	00800007          	.insn	4, 0x00800007
    209c:	0000                	unimp
    209e:	0100                	addi	s0,sp,128
    20a0:	5f00                	lw	s0,56(a4)
    20a2:	075e                	slli	a4,a4,0x17
    20a4:	8000                	.insn	2, 0x8000
    20a6:	0000                	unimp
    20a8:	0000                	unimp
    20aa:	0760                	addi	s0,sp,908
    20ac:	8000                	.insn	2, 0x8000
    20ae:	0000                	unimp
    20b0:	0000                	unimp
    20b2:	0001                	nop
    20b4:	005a                	c.slli	zero,0x16
	...
    20c2:	0000                	unimp
    20c4:	3600                	fld	fs0,40(a2)
    20c6:	00800007          	.insn	4, 0x00800007
    20ca:	0000                	unimp
    20cc:	5e00                	lw	s0,56(a2)
    20ce:	00800007          	.insn	4, 0x00800007
    20d2:	0000                	unimp
    20d4:	0100                	addi	s0,sp,128
    20d6:	5a00                	lw	s0,48(a2)
	...
    20e8:	0736                	slli	a4,a4,0xd
    20ea:	8000                	.insn	2, 0x8000
    20ec:	0000                	unimp
    20ee:	0000                	unimp
    20f0:	075e                	slli	a4,a4,0x17
    20f2:	8000                	.insn	2, 0x8000
    20f4:	0000                	unimp
    20f6:	0000                	unimp
    20f8:	0001                	nop
    20fa:	0000005b          	.insn	4, 0x005b
	...
    210a:	3600                	fld	fs0,40(a2)
    210c:	00800007          	.insn	4, 0x00800007
    2110:	0000                	unimp
    2112:	5e00                	lw	s0,56(a2)
    2114:	00800007          	.insn	4, 0x00800007
    2118:	0000                	unimp
    211a:	0400                	addi	s0,sp,512
    211c:	f300                	sd	s0,32(a4)
    211e:	5c01                	li	s8,-32
    2120:	009f 0000 0000      	.insn	6, 0x009f
	...
    212e:	0000                	unimp
    2130:	3600                	fld	fs0,40(a2)
    2132:	00800007          	.insn	4, 0x00800007
    2136:	0000                	unimp
    2138:	4c00                	lw	s0,24(s0)
    213a:	00800007          	.insn	4, 0x00800007
    213e:	0000                	unimp
    2140:	1200                	addi	s0,sp,288
    2142:	7b00                	ld	s0,48(a4)
    2144:	0800                	addi	s0,sp,16
    2146:	ff0c1aff 1affffff 	.insn	12, 0x0101010c1affffffff0c1aff
    214e:	0101010c 
    2152:	1e01                	addi	t3,t3,-32
    2154:	4c9f 0007 0080      	.insn	6, 0x008000074c9f
    215a:	0000                	unimp
    215c:	5e00                	lw	s0,56(a2)
    215e:	00800007          	.insn	4, 0x00800007
    2162:	0000                	unimp
    2164:	0100                	addi	s0,sp,128
    2166:	5e00                	lw	s0,56(a2)
	...
    2178:	074c                	addi	a1,sp,900
    217a:	8000                	.insn	2, 0x8000
    217c:	0000                	unimp
    217e:	0000                	unimp
    2180:	0752                	slli	a4,a4,0x14
    2182:	8000                	.insn	2, 0x8000
    2184:	0000                	unimp
    2186:	0000                	unimp
    2188:	0001                	nop
    218a:	525a                	lw	tp,180(sp)
    218c:	00800007          	.insn	4, 0x00800007
    2190:	0000                	unimp
    2192:	5e00                	lw	s0,56(a2)
    2194:	00800007          	.insn	4, 0x00800007
    2198:	0000                	unimp
    219a:	0100                	addi	s0,sp,128
    219c:	5f00                	lw	s0,56(a4)
	...
    21ae:	0832                	slli	a6,a6,0xc
    21b0:	8000                	.insn	2, 0x8000
    21b2:	0000                	unimp
    21b4:	0000                	unimp
    21b6:	084c                	addi	a1,sp,20
    21b8:	8000                	.insn	2, 0x8000
    21ba:	0000                	unimp
    21bc:	0000                	unimp
    21be:	0001                	nop
    21c0:	4c5a                	lw	s8,148(sp)
    21c2:	0008                	.insn	2, 0x0008
    21c4:	0080                	addi	s0,sp,64
    21c6:	0000                	unimp
    21c8:	4e00                	lw	s0,24(a2)
    21ca:	0008                	.insn	2, 0x0008
    21cc:	0080                	addi	s0,sp,64
    21ce:	0000                	unimp
    21d0:	0400                	addi	s0,sp,512
    21d2:	f300                	sd	s0,32(a4)
    21d4:	5a01                	li	s4,-32
    21d6:	4e9f 0008 0080      	.insn	6, 0x008000084e9f
    21dc:	0000                	unimp
    21de:	5000                	lw	s0,32(s0)
    21e0:	0008                	.insn	2, 0x0008
    21e2:	0080                	addi	s0,sp,64
    21e4:	0000                	unimp
    21e6:	0100                	addi	s0,sp,128
    21e8:	5a00                	lw	s0,48(a2)
    21ea:	0850                	addi	a2,sp,20
    21ec:	8000                	.insn	2, 0x8000
    21ee:	0000                	unimp
    21f0:	0000                	unimp
    21f2:	0852                	slli	a6,a6,0x14
    21f4:	8000                	.insn	2, 0x8000
    21f6:	0000                	unimp
    21f8:	0000                	unimp
    21fa:	0001                	nop
    21fc:	005f 0000 0000      	.insn	6, 0x005f
	...
    220a:	0000                	unimp
    220c:	3200                	fld	fs0,32(a2)
    220e:	0008                	.insn	2, 0x0008
    2210:	0080                	addi	s0,sp,64
    2212:	0000                	unimp
    2214:	3200                	fld	fs0,32(a2)
    2216:	0008                	.insn	2, 0x0008
    2218:	0080                	addi	s0,sp,64
    221a:	0000                	unimp
    221c:	0100                	addi	s0,sp,128
    221e:	5b00                	lw	s0,48(a4)
    2220:	0832                	slli	a6,a6,0xc
    2222:	8000                	.insn	2, 0x8000
    2224:	0000                	unimp
    2226:	0000                	unimp
    2228:	083c                	addi	a5,sp,24
    222a:	8000                	.insn	2, 0x8000
    222c:	0000                	unimp
    222e:	0000                	unimp
    2230:	7f7b0003          	lb	zero,2039(s6)
    2234:	3c9f 0008 0080      	.insn	6, 0x008000083c9f
    223a:	0000                	unimp
    223c:	4800                	lw	s0,16(s0)
    223e:	0008                	.insn	2, 0x0008
    2240:	0080                	addi	s0,sp,64
    2242:	0000                	unimp
    2244:	0a00                	addi	s0,sp,272
    2246:	7f00                	ld	s0,56(a4)
    2248:	2000                	fld	fs0,0(s0)
    224a:	007a                	c.slli	zero,0x1e
    224c:	7b22                	ld	s6,40(sp)
    224e:	2200                	fld	fs0,0(a2)
    2250:	4e9f 0008 0080      	.insn	6, 0x008000084e9f
    2256:	0000                	unimp
    2258:	5200                	lw	s0,32(a2)
    225a:	0008                	.insn	2, 0x0008
    225c:	0080                	addi	s0,sp,64
    225e:	0000                	unimp
    2260:	0300                	addi	s0,sp,384
    2262:	7b00                	ld	s0,48(a4)
    2264:	00009f7f 00000000 	.insn	12, 0x9f7f
    226c:	00000000 
    2270:	0000                	unimp
    2272:	0000                	unimp
    2274:	0000                	unimp
    2276:	0832                	slli	a6,a6,0xc
    2278:	8000                	.insn	2, 0x8000
    227a:	0000                	unimp
    227c:	0000                	unimp
    227e:	083c                	addi	a5,sp,24
    2280:	8000                	.insn	2, 0x8000
    2282:	0000                	unimp
    2284:	0000                	unimp
    2286:	0001                	nop
    2288:	3c5a                	fld	fs8,432(sp)
    228a:	0008                	.insn	2, 0x0008
    228c:	0080                	addi	s0,sp,64
    228e:	0000                	unimp
    2290:	4e00                	lw	s0,24(a2)
    2292:	0008                	.insn	2, 0x0008
    2294:	0080                	addi	s0,sp,64
    2296:	0000                	unimp
    2298:	0100                	addi	s0,sp,128
    229a:	5f00                	lw	s0,56(a4)
    229c:	084e                	slli	a6,a6,0x13
    229e:	8000                	.insn	2, 0x8000
    22a0:	0000                	unimp
    22a2:	0000                	unimp
    22a4:	0850                	addi	a2,sp,20
    22a6:	8000                	.insn	2, 0x8000
    22a8:	0000                	unimp
    22aa:	0000                	unimp
    22ac:	0001                	nop
    22ae:	505a                	.insn	2, 0x505a
    22b0:	0008                	.insn	2, 0x0008
    22b2:	0080                	addi	s0,sp,64
    22b4:	0000                	unimp
    22b6:	5200                	lw	s0,32(a2)
    22b8:	0008                	.insn	2, 0x0008
    22ba:	0080                	addi	s0,sp,64
    22bc:	0000                	unimp
    22be:	0100                	addi	s0,sp,128
    22c0:	5f00                	lw	s0,56(a4)
	...

Disassembly of section .debug_aranges:

0000000000000000 <.debug_aranges>:
   0:	002c                	addi	a1,sp,8
   2:	0000                	unimp
   4:	0002                	c.slli64	zero
   6:	0000                	unimp
   8:	0000                	unimp
   a:	0008                	.insn	2, 0x0008
   c:	0000                	unimp
   e:	0000                	unimp
  10:	08f0                	addi	a2,sp,92
  12:	8000                	.insn	2, 0x8000
  14:	0000                	unimp
  16:	0000                	unimp
  18:	00fe                	slli	ra,ra,0x1f
	...
  2e:	0000                	unimp
  30:	002c                	addi	a1,sp,8
  32:	0000                	unimp
  34:	0002                	c.slli64	zero
  36:	02f8                	addi	a4,sp,332
  38:	0000                	unimp
  3a:	0008                	.insn	2, 0x0008
  3c:	0000                	unimp
  3e:	0000                	unimp
  40:	01c2                	slli	gp,gp,0x10
  42:	8000                	.insn	2, 0x8000
  44:	0000                	unimp
  46:	0000                	unimp
  48:	000e                	c.slli	zero,0x3
	...
  5e:	0000                	unimp
  60:	002c                	addi	a1,sp,8
  62:	0000                	unimp
  64:	0002                	c.slli64	zero
  66:	0326                	slli	t1,t1,0x9
  68:	0000                	unimp
  6a:	0008                	.insn	2, 0x0008
  6c:	0000                	unimp
  6e:	0000                	unimp
  70:	0000                	unimp
  72:	8000                	.insn	2, 0x8000
  74:	0000                	unimp
  76:	0000                	unimp
  78:	01c0                	addi	s0,sp,196
	...
  8e:	0000                	unimp
  90:	003c                	addi	a5,sp,8
  92:	0000                	unimp
  94:	0002                	c.slli64	zero
  96:	0354                	addi	a3,sp,388
  98:	0000                	unimp
  9a:	0008                	.insn	2, 0x0008
  9c:	0000                	unimp
  9e:	0000                	unimp
  a0:	01d0                	addi	a2,sp,196
  a2:	8000                	.insn	2, 0x8000
  a4:	0000                	unimp
  a6:	0000                	unimp
  a8:	0720                	addi	s0,sp,904
  aa:	0000                	unimp
  ac:	0000                	unimp
  ae:	0000                	unimp
  b0:	09ee                	slli	s3,s3,0x1b
  b2:	8000                	.insn	2, 0x8000
  b4:	0000                	unimp
  b6:	0000                	unimp
  b8:	0018                	.insn	2, 0x0018
	...

Disassembly of section .debug_ranges:

0000000000000000 <.debug_ranges>:
   0:	0996                	slli	s3,s3,0x5
   2:	8000                	.insn	2, 0x8000
   4:	0000                	unimp
   6:	0000                	unimp
   8:	0996                	slli	s3,s3,0x5
   a:	8000                	.insn	2, 0x8000
   c:	0000                	unimp
   e:	0000                	unimp
  10:	0998                	addi	a4,sp,208
  12:	8000                	.insn	2, 0x8000
  14:	0000                	unimp
  16:	0000                	unimp
  18:	09b6                	slli	s3,s3,0xd
  1a:	8000                	.insn	2, 0x8000
	...
  30:	09b6                	slli	s3,s3,0xd
  32:	8000                	.insn	2, 0x8000
  34:	0000                	unimp
  36:	0000                	unimp
  38:	09dc                	addi	a5,sp,212
  3a:	8000                	.insn	2, 0x8000
  3c:	0000                	unimp
  3e:	0000                	unimp
  40:	09ea                	slli	s3,s3,0x1a
  42:	8000                	.insn	2, 0x8000
  44:	0000                	unimp
  46:	0000                	unimp
  48:	09ee                	slli	s3,s3,0x1b
  4a:	8000                	.insn	2, 0x8000
	...
  60:	09ba                	slli	s3,s3,0xe
  62:	8000                	.insn	2, 0x8000
  64:	0000                	unimp
  66:	0000                	unimp
  68:	09ba                	slli	s3,s3,0xe
  6a:	8000                	.insn	2, 0x8000
  6c:	0000                	unimp
  6e:	0000                	unimp
  70:	09ba                	slli	s3,s3,0xe
  72:	8000                	.insn	2, 0x8000
  74:	0000                	unimp
  76:	0000                	unimp
  78:	09c6                	slli	s3,s3,0x11
  7a:	8000                	.insn	2, 0x8000
  7c:	0000                	unimp
  7e:	0000                	unimp
  80:	09c8                	addi	a0,sp,212
  82:	8000                	.insn	2, 0x8000
  84:	0000                	unimp
  86:	0000                	unimp
  88:	09d4                	addi	a3,sp,212
  8a:	8000                	.insn	2, 0x8000
  8c:	0000                	unimp
  8e:	0000                	unimp
  90:	09ea                	slli	s3,s3,0x1a
  92:	8000                	.insn	2, 0x8000
  94:	0000                	unimp
  96:	0000                	unimp
  98:	09ee                	slli	s3,s3,0x1b
  9a:	8000                	.insn	2, 0x8000
	...
  b0:	08f0                	addi	a2,sp,92
  b2:	8000                	.insn	2, 0x8000
  b4:	0000                	unimp
  b6:	0000                	unimp
  b8:	09ee                	slli	s3,s3,0x1b
  ba:	8000                	.insn	2, 0x8000
	...
  d0:	01d0                	addi	a2,sp,196
  d2:	8000                	.insn	2, 0x8000
  d4:	0000                	unimp
  d6:	0000                	unimp
  d8:	01d4                	addi	a3,sp,196
  da:	8000                	.insn	2, 0x8000
  dc:	0000                	unimp
  de:	0000                	unimp
  e0:	01d8                	addi	a4,sp,196
  e2:	8000                	.insn	2, 0x8000
  e4:	0000                	unimp
  e6:	0000                	unimp
  e8:	01ec                	addi	a1,sp,204
  ea:	8000                	.insn	2, 0x8000
	...
 100:	0316                	slli	t1,t1,0x5
 102:	8000                	.insn	2, 0x8000
 104:	0000                	unimp
 106:	0000                	unimp
 108:	031a                	slli	t1,t1,0x6
 10a:	8000                	.insn	2, 0x8000
 10c:	0000                	unimp
 10e:	0000                	unimp
 110:	031c                	addi	a5,sp,384
 112:	8000                	.insn	2, 0x8000
 114:	0000                	unimp
 116:	0000                	unimp
 118:	0322                	slli	t1,t1,0x8
 11a:	8000                	.insn	2, 0x8000
 11c:	0000                	unimp
 11e:	0000                	unimp
 120:	03bc                	addi	a5,sp,456
 122:	8000                	.insn	2, 0x8000
 124:	0000                	unimp
 126:	0000                	unimp
 128:	03be                	slli	t2,t2,0xf
 12a:	8000                	.insn	2, 0x8000
 12c:	0000                	unimp
 12e:	0000                	unimp
 130:	03c2                	slli	t2,t2,0x10
 132:	8000                	.insn	2, 0x8000
 134:	0000                	unimp
 136:	0000                	unimp
 138:	03d2                	slli	t2,t2,0x14
 13a:	8000                	.insn	2, 0x8000
	...
 150:	0322                	slli	t1,t1,0x8
 152:	8000                	.insn	2, 0x8000
 154:	0000                	unimp
 156:	0000                	unimp
 158:	0326                	slli	t1,t1,0x9
 15a:	8000                	.insn	2, 0x8000
 15c:	0000                	unimp
 15e:	0000                	unimp
 160:	032a                	slli	t1,t1,0xa
 162:	8000                	.insn	2, 0x8000
 164:	0000                	unimp
 166:	0000                	unimp
 168:	038a                	slli	t2,t2,0x2
 16a:	8000                	.insn	2, 0x8000
 16c:	0000                	unimp
 16e:	0000                	unimp
 170:	049e                	slli	s1,s1,0x7
 172:	8000                	.insn	2, 0x8000
 174:	0000                	unimp
 176:	0000                	unimp
 178:	04a2                	slli	s1,s1,0x8
 17a:	8000                	.insn	2, 0x8000
	...
 190:	0390                	addi	a2,sp,448
 192:	8000                	.insn	2, 0x8000
 194:	0000                	unimp
 196:	0000                	unimp
 198:	0392                	slli	t2,t2,0x4
 19a:	8000                	.insn	2, 0x8000
 19c:	0000                	unimp
 19e:	0000                	unimp
 1a0:	0396                	slli	t2,t2,0x5
 1a2:	8000                	.insn	2, 0x8000
 1a4:	0000                	unimp
 1a6:	0000                	unimp
 1a8:	03a2                	slli	t2,t2,0x8
 1aa:	8000                	.insn	2, 0x8000
 1ac:	0000                	unimp
 1ae:	0000                	unimp
 1b0:	04a2                	slli	s1,s1,0x8
 1b2:	8000                	.insn	2, 0x8000
 1b4:	0000                	unimp
 1b6:	0000                	unimp
 1b8:	04aa                	slli	s1,s1,0xa
 1ba:	8000                	.insn	2, 0x8000
	...
 1d0:	0442                	slli	s0,s0,0x10
 1d2:	8000                	.insn	2, 0x8000
 1d4:	0000                	unimp
 1d6:	0000                	unimp
 1d8:	045e                	slli	s0,s0,0x17
 1da:	8000                	.insn	2, 0x8000
 1dc:	0000                	unimp
 1de:	0000                	unimp
 1e0:	0462                	slli	s0,s0,0x18
 1e2:	8000                	.insn	2, 0x8000
 1e4:	0000                	unimp
 1e6:	0000                	unimp
 1e8:	0462                	slli	s0,s0,0x18
 1ea:	8000                	.insn	2, 0x8000
	...
 200:	0518                	addi	a4,sp,640
 202:	8000                	.insn	2, 0x8000
 204:	0000                	unimp
 206:	0000                	unimp
 208:	0522                	slli	a0,a0,0x8
 20a:	8000                	.insn	2, 0x8000
 20c:	0000                	unimp
 20e:	0000                	unimp
 210:	0524                	addi	s1,sp,648
 212:	8000                	.insn	2, 0x8000
 214:	0000                	unimp
 216:	0000                	unimp
 218:	0532                	slli	a0,a0,0xc
 21a:	8000                	.insn	2, 0x8000
	...
 230:	053a                	slli	a0,a0,0xe
 232:	8000                	.insn	2, 0x8000
 234:	0000                	unimp
 236:	0000                	unimp
 238:	0546                	slli	a0,a0,0x11
 23a:	8000                	.insn	2, 0x8000
 23c:	0000                	unimp
 23e:	0000                	unimp
 240:	054e                	slli	a0,a0,0x13
 242:	8000                	.insn	2, 0x8000
 244:	0000                	unimp
 246:	0000                	unimp
 248:	055e                	slli	a0,a0,0x17
 24a:	8000                	.insn	2, 0x8000
	...
 260:	0546                	slli	a0,a0,0x11
 262:	8000                	.insn	2, 0x8000
 264:	0000                	unimp
 266:	0000                	unimp
 268:	054c                	addi	a1,sp,644
 26a:	8000                	.insn	2, 0x8000
 26c:	0000                	unimp
 26e:	0000                	unimp
 270:	055e                	slli	a0,a0,0x17
 272:	8000                	.insn	2, 0x8000
 274:	0000                	unimp
 276:	0000                	unimp
 278:	0572                	slli	a0,a0,0x1c
 27a:	8000                	.insn	2, 0x8000
	...
 290:	0546                	slli	a0,a0,0x11
 292:	8000                	.insn	2, 0x8000
 294:	0000                	unimp
 296:	0000                	unimp
 298:	054a                	slli	a0,a0,0x12
 29a:	8000                	.insn	2, 0x8000
 29c:	0000                	unimp
 29e:	0000                	unimp
 2a0:	055e                	slli	a0,a0,0x17
 2a2:	8000                	.insn	2, 0x8000
 2a4:	0000                	unimp
 2a6:	0000                	unimp
 2a8:	0562                	slli	a0,a0,0x18
 2aa:	8000                	.insn	2, 0x8000
	...
 2c0:	05b2                	slli	a1,a1,0xc
 2c2:	8000                	.insn	2, 0x8000
 2c4:	0000                	unimp
 2c6:	0000                	unimp
 2c8:	05bc                	addi	a5,sp,712
 2ca:	8000                	.insn	2, 0x8000
 2cc:	0000                	unimp
 2ce:	0000                	unimp
 2d0:	05be                	slli	a1,a1,0xf
 2d2:	8000                	.insn	2, 0x8000
 2d4:	0000                	unimp
 2d6:	0000                	unimp
 2d8:	05cc                	addi	a1,sp,708
 2da:	8000                	.insn	2, 0x8000
	...
 2f0:	05da                	slli	a1,a1,0x16
 2f2:	8000                	.insn	2, 0x8000
 2f4:	0000                	unimp
 2f6:	0000                	unimp
 2f8:	05e4                	addi	s1,sp,716
 2fa:	8000                	.insn	2, 0x8000
 2fc:	0000                	unimp
 2fe:	0000                	unimp
 300:	05e6                	slli	a1,a1,0x19
 302:	8000                	.insn	2, 0x8000
 304:	0000                	unimp
 306:	0000                	unimp
 308:	05f4                	addi	a3,sp,716
 30a:	8000                	.insn	2, 0x8000
	...
 320:	09ee                	slli	s3,s3,0x1b
 322:	8000                	.insn	2, 0x8000
 324:	0000                	unimp
 326:	0000                	unimp
 328:	09ee                	slli	s3,s3,0x1b
 32a:	8000                	.insn	2, 0x8000
 32c:	0000                	unimp
 32e:	0000                	unimp
 330:	09f0                	addi	a2,sp,220
 332:	8000                	.insn	2, 0x8000
 334:	0000                	unimp
 336:	0000                	unimp
 338:	09f8                	addi	a4,sp,220
 33a:	8000                	.insn	2, 0x8000
 33c:	0000                	unimp
 33e:	0000                	unimp
 340:	09fa                	slli	s3,s3,0x1e
 342:	8000                	.insn	2, 0x8000
 344:	0000                	unimp
 346:	0000                	unimp
 348:	09fe                	slli	s3,s3,0x1f
 34a:	8000                	.insn	2, 0x8000
	...
 360:	0634                	addi	a3,sp,776
 362:	8000                	.insn	2, 0x8000
 364:	0000                	unimp
 366:	0000                	unimp
 368:	0638                	addi	a4,sp,776
 36a:	8000                	.insn	2, 0x8000
 36c:	0000                	unimp
 36e:	0000                	unimp
 370:	063c                	addi	a5,sp,776
 372:	8000                	.insn	2, 0x8000
 374:	0000                	unimp
 376:	0000                	unimp
 378:	0660                	addi	s0,sp,780
 37a:	8000                	.insn	2, 0x8000
	...
 390:	063e                	slli	a2,a2,0xf
 392:	8000                	.insn	2, 0x8000
 394:	0000                	unimp
 396:	0000                	unimp
 398:	0642                	slli	a2,a2,0x10
 39a:	8000                	.insn	2, 0x8000
 39c:	0000                	unimp
 39e:	0000                	unimp
 3a0:	0644                	addi	s1,sp,772
 3a2:	8000                	.insn	2, 0x8000
 3a4:	0000                	unimp
 3a6:	0000                	unimp
 3a8:	064a                	slli	a2,a2,0x12
 3aa:	8000                	.insn	2, 0x8000
 3ac:	0000                	unimp
 3ae:	0000                	unimp
 3b0:	064c                	addi	a1,sp,772
 3b2:	8000                	.insn	2, 0x8000
 3b4:	0000                	unimp
 3b6:	0000                	unimp
 3b8:	065a                	slli	a2,a2,0x16
 3ba:	8000                	.insn	2, 0x8000
	...
 3d0:	06de                	slli	a3,a3,0x17
 3d2:	8000                	.insn	2, 0x8000
 3d4:	0000                	unimp
 3d6:	0000                	unimp
 3d8:	06e2                	slli	a3,a3,0x18
 3da:	8000                	.insn	2, 0x8000
 3dc:	0000                	unimp
 3de:	0000                	unimp
 3e0:	06e4                	addi	s1,sp,844
 3e2:	8000                	.insn	2, 0x8000
 3e4:	0000                	unimp
 3e6:	0000                	unimp
 3e8:	06fc                	addi	a5,sp,844
 3ea:	8000                	.insn	2, 0x8000
	...
 400:	071c                	addi	a5,sp,896
 402:	8000                	.insn	2, 0x8000
 404:	0000                	unimp
 406:	0000                	unimp
 408:	071e                	slli	a4,a4,0x7
 40a:	8000                	.insn	2, 0x8000
 40c:	0000                	unimp
 40e:	0000                	unimp
 410:	0720                	addi	s0,sp,904
 412:	8000                	.insn	2, 0x8000
 414:	0000                	unimp
 416:	0000                	unimp
 418:	0734                	addi	a3,sp,904
 41a:	8000                	.insn	2, 0x8000
	...
 430:	0760                	addi	s0,sp,908
 432:	8000                	.insn	2, 0x8000
 434:	0000                	unimp
 436:	0000                	unimp
 438:	0760                	addi	s0,sp,908
 43a:	8000                	.insn	2, 0x8000
 43c:	0000                	unimp
 43e:	0000                	unimp
 440:	0762                	slli	a4,a4,0x18
 442:	8000                	.insn	2, 0x8000
 444:	0000                	unimp
 446:	0000                	unimp
 448:	0766                	slli	a4,a4,0x19
 44a:	8000                	.insn	2, 0x8000
 44c:	0000                	unimp
 44e:	0000                	unimp
 450:	0768                	addi	a0,sp,908
 452:	8000                	.insn	2, 0x8000
 454:	0000                	unimp
 456:	0000                	unimp
 458:	076c                	addi	a1,sp,908
 45a:	8000                	.insn	2, 0x8000
 45c:	0000                	unimp
 45e:	0000                	unimp
 460:	076e                	slli	a4,a4,0x1b
 462:	8000                	.insn	2, 0x8000
 464:	0000                	unimp
 466:	0000                	unimp
 468:	0772                	slli	a4,a4,0x1c
 46a:	8000                	.insn	2, 0x8000
 46c:	0000                	unimp
 46e:	0000                	unimp
 470:	077a                	slli	a4,a4,0x1e
 472:	8000                	.insn	2, 0x8000
 474:	0000                	unimp
 476:	0000                	unimp
 478:	0780                	addi	s0,sp,960
 47a:	8000                	.insn	2, 0x8000
 47c:	0000                	unimp
 47e:	0000                	unimp
 480:	0786                	slli	a5,a5,0x1
 482:	8000                	.insn	2, 0x8000
 484:	0000                	unimp
 486:	0000                	unimp
 488:	079e                	slli	a5,a5,0x7
 48a:	8000                	.insn	2, 0x8000
	...
 4a0:	07b8                	addi	a4,sp,968
 4a2:	8000                	.insn	2, 0x8000
 4a4:	0000                	unimp
 4a6:	0000                	unimp
 4a8:	07c0                	addi	s0,sp,964
 4aa:	8000                	.insn	2, 0x8000
 4ac:	0000                	unimp
 4ae:	0000                	unimp
 4b0:	07ca                	slli	a5,a5,0x12
 4b2:	8000                	.insn	2, 0x8000
 4b4:	0000                	unimp
 4b6:	0000                	unimp
 4b8:	07d2                	slli	a5,a5,0x14
 4ba:	8000                	.insn	2, 0x8000
 4bc:	0000                	unimp
 4be:	0000                	unimp
 4c0:	07da                	slli	a5,a5,0x16
 4c2:	8000                	.insn	2, 0x8000
 4c4:	0000                	unimp
 4c6:	0000                	unimp
 4c8:	07ee                	slli	a5,a5,0x1b
 4ca:	8000                	.insn	2, 0x8000
 4cc:	0000                	unimp
 4ce:	0000                	unimp
 4d0:	07fa                	slli	a5,a5,0x1e
 4d2:	8000                	.insn	2, 0x8000
 4d4:	0000                	unimp
 4d6:	0000                	unimp
 4d8:	0818                	addi	a4,sp,16
 4da:	8000                	.insn	2, 0x8000
	...
 4f0:	01d0                	addi	a2,sp,196
 4f2:	8000                	.insn	2, 0x8000
 4f4:	0000                	unimp
 4f6:	0000                	unimp
 4f8:	08f0                	addi	a2,sp,92
 4fa:	8000                	.insn	2, 0x8000
 4fc:	0000                	unimp
 4fe:	0000                	unimp
 500:	09ee                	slli	s3,s3,0x1b
 502:	8000                	.insn	2, 0x8000
 504:	0000                	unimp
 506:	0000                	unimp
 508:	0a06                	slli	s4,s4,0x1
 50a:	8000                	.insn	2, 0x8000
	...

Disassembly of section .debug_line:

0000000000000000 <.debug_line>:
       0:	0306                	slli	t1,t1,0x1
       2:	0000                	unimp
       4:	0002                	c.slli64	zero
       6:	000000db          	.insn	4, 0x00db
       a:	0101                	addi	sp,sp,0
       c:	000a0efb          	.insn	4, 0x000a0efb
      10:	0101                	addi	sp,sp,0
      12:	0101                	addi	sp,sp,0
      14:	0000                	unimp
      16:	0100                	addi	s0,sp,128
      18:	2e2e                	fld	ft8,200(sp)
      1a:	6d6f632f          	.insn	4, 0x6d6f632f
      1e:	6f6d                	lui	t5,0x1b
      20:	006e                	c.slli	zero,0x1b
      22:	74706f2f          	.insn	4, 0x74706f2f
      26:	7369722f          	.insn	4, 0x7369722f
      2a:	722f7663          	bgeu	t5,sp,756 <_start-0x7ffff8aa>
      2e:	7369                	lui	t1,0xffffa
      30:	34367663          	bgeu	a2,gp,37c <_start-0x7ffffc84>
      34:	752d                	lui	a0,0xfffeb
      36:	6b6e                	ld	s6,216(sp)
      38:	6f6e                	ld	t5,216(sp)
      3a:	652d6e77          	.insn	4, 0x652d6e77
      3e:	666c                	ld	a1,200(a2)
      40:	636e692f          	.insn	4, 0x636e692f
      44:	756c                	ld	a1,232(a0)
      46:	6564                	ld	s1,200(a0)
      48:	63616d2f          	.insn	4, 0x63616d2f
      4c:	6968                	ld	a0,208(a0)
      4e:	656e                	ld	a0,216(sp)
      50:	2f00                	fld	fs0,24(a4)
      52:	2f74706f          	j	47b48 <_start-0x7ffb84b8>
      56:	6972                	ld	s2,280(sp)
      58:	2f766373          	csrrsi	t1,0x2f7,12
      5c:	6972                	ld	s2,280(sp)
      5e:	36766373          	csrrsi	t1,0x367,12
      62:	2d34                	fld	fa3,88(a0)
      64:	6e75                	lui	t3,0x1d
      66:	776f6e6b          	.insn	4, 0x776f6e6b
      6a:	2d6e                	fld	fs10,216(sp)
      6c:	6c65                	lui	s8,0x19
      6e:	2f66                	fld	ft10,88(sp)
      70:	6e69                	lui	t3,0x1a
      72:	64756c63          	bltu	a0,t2,6ca <_start-0x7ffff936>
      76:	2f65                	addiw	t5,t5,25 # 1b019 <_start-0x7ffe4fe7>
      78:	00737973          	csrrci	s2,0x7,6
      7c:	74706f2f          	.insn	4, 0x74706f2f
      80:	7369722f          	.insn	4, 0x7369722f
      84:	722f7663          	bgeu	t5,sp,7b0 <_start-0x7ffff850>
      88:	7369                	lui	t1,0xffffa
      8a:	34367663          	bgeu	a2,gp,3d6 <_start-0x7ffffc2a>
      8e:	752d                	lui	a0,0xfffeb
      90:	6b6e                	ld	s6,216(sp)
      92:	6f6e                	ld	t5,216(sp)
      94:	652d6e77          	.insn	4, 0x652d6e77
      98:	666c                	ld	a1,200(a2)
      9a:	636e692f          	.insn	4, 0x636e692f
      9e:	756c                	ld	a1,232(a0)
      a0:	6564                	ld	s1,200(a0)
      a2:	0000                	unimp
      a4:	6966                	ld	s2,88(sp)
      a6:	3172                	fld	ft2,312(sp)
      a8:	632e                	ld	t1,200(sp)
      aa:	0000                	unimp
      ac:	0000                	unimp
      ae:	7475                	lui	s0,0xffffd
      b0:	6c69                	lui	s8,0x1a
      b2:	682e                	ld	a6,200(sp)
      b4:	0100                	addi	s0,sp,128
      b6:	0000                	unimp
      b8:	645f 6665 7561      	.insn	6, 0x75616665645f
      be:	746c                	ld	a1,232(s0)
      c0:	745f 7079 7365      	.insn	6, 0x73657079745f
      c6:	682e                	ld	a6,200(sp)
      c8:	0200                	addi	s0,sp,256
      ca:	0000                	unimp
      cc:	735f 6474 6e69      	.insn	6, 0x6e696474735f
      d2:	2e74                	fld	fa3,216(a2)
      d4:	0068                	addi	a0,sp,12
      d6:	73000003          	lb	zero,1840(zero) # 730 <_start-0x7ffff8d0>
      da:	6474                	ld	a3,200(s0)
      dc:	6f69                	lui	t5,0x1a
      de:	682e                	ld	a6,200(sp)
      e0:	0400                	addi	s0,sp,512
      e2:	0000                	unimp
      e4:	0500                	addi	s0,sp,640
      e6:	0010                	.insn	2, 0x0010
      e8:	0209                	addi	tp,tp,2 # 2 <_start-0x7ffffffe>
      ea:	08f0                	addi	a2,sp,92
      ec:	8000                	.insn	2, 0x8000
      ee:	0000                	unimp
      f0:	0000                	unimp
      f2:	05010903          	lb	s2,80(sp)
      f6:	0305                	addi	t1,t1,1 # ffffffffffffa001 <__global_pointer$+0xffffffff7fff87b9>
      f8:	0901                	addi	s2,s2,0
      fa:	0000                	unimp
      fc:	0501                	addi	a0,a0,0 # fffffffffffeb000 <__global_pointer$+0xffffffff7ffe97b8>
      fe:	060d                	addi	a2,a2,3
     100:	00090003          	lb	zero,0(s2)
     104:	0100                	addi	s0,sp,128
     106:	0905                	addi	s2,s2,1
     108:	28091603          	lh	a2,640(s2)
     10c:	0100                	addi	s0,sp,128
     10e:	1005                	c.nop	-31
     110:	10096903          	lwu	s2,256(s2)
     114:	0100                	addi	s0,sp,128
     116:	0905                	addi	s2,s2,1
     118:	02091903          	lh	s2,32(s2)
     11c:	0100                	addi	s0,sp,128
     11e:	1005                	c.nop	-31
     120:	02096703          	lwu	a4,32(s2)
     124:	0100                	addi	s0,sp,128
     126:	0d05                	addi	s10,s10,1
     128:	02090103          	lb	sp,32(s2)
     12c:	0100                	addi	s0,sp,128
     12e:	1005                	c.nop	-31
     130:	0a097f03          	.insn	4, 0x0a097f03
     134:	0100                	addi	s0,sp,128
     136:	0d05                	addi	s10,s10,1
     138:	08090103          	lb	sp,128(s2)
     13c:	0100                	addi	s0,sp,128
     13e:	0905                	addi	s2,s2,1
     140:	04091803          	lh	a6,64(s2)
     144:	0100                	addi	s0,sp,128
     146:	0d05                	addi	s10,s10,1
     148:	04096803          	lwu	a6,64(s2)
     14c:	0100                	addi	s0,sp,128
     14e:	0505                	addi	a0,a0,1
     150:	0306                	slli	t1,t1,0x1
     152:	0916                	slli	s2,s2,0x5
     154:	0004                	.insn	2, 0x0004
     156:	0501                	addi	a0,a0,0
     158:	0609                	addi	a2,a2,2
     15a:	00090003          	lb	zero,0(s2)
     15e:	0100                	addi	s0,sp,128
     160:	0505                	addi	a0,a0,1
     162:	0306                	slli	t1,t1,0x1
     164:	0901                	addi	s2,s2,0
     166:	0004                	.insn	2, 0x0004
     168:	0301                	addi	t1,t1,0
     16a:	0901                	addi	s2,s2,0
     16c:	0000                	unimp
     16e:	0501                	addi	a0,a0,0
     170:	060d                	addi	a2,a2,3
     172:	00096803          	lwu	a6,0(s2)
     176:	0100                	addi	s0,sp,128
     178:	0905                	addi	s2,s2,1
     17a:	02091803          	lh	a6,32(s2)
     17e:	0100                	addi	s0,sp,128
     180:	0505                	addi	a0,a0,1
     182:	16091303          	lh	t1,352(s2)
     186:	0100                	addi	s0,sp,128
     188:	0905                	addi	s2,s2,1
     18a:	02096d03          	lwu	s10,32(s2)
     18e:	0100                	addi	s0,sp,128
     190:	0505                	addi	a0,a0,1
     192:	0306                	slli	t1,t1,0x1
     194:	00080913          	mv	s2,a6
     198:	0501                	addi	a0,a0,0
     19a:	0609                	addi	a2,a2,2
     19c:	00096d03          	lwu	s10,0(s2)
     1a0:	0100                	addi	s0,sp,128
     1a2:	0505                	addi	a0,a0,1
     1a4:	08091303          	lh	t1,128(s2)
     1a8:	0100                	addi	s0,sp,128
     1aa:	0306                	slli	t1,t1,0x1
     1ac:	0901                	addi	s2,s2,0
     1ae:	0004                	.insn	2, 0x0004
     1b0:	0301                	addi	t1,t1,0
     1b2:	0901                	addi	s2,s2,0
     1b4:	000e                	c.slli	zero,0x3
     1b6:	0301                	addi	t1,t1,0
     1b8:	0901                	addi	s2,s2,0
     1ba:	000a                	c.slli	zero,0x2
     1bc:	0501                	addi	a0,a0,0
     1be:	030a                	slli	t1,t1,0x2
     1c0:	0900                	addi	s0,sp,144
     1c2:	0000                	unimp
     1c4:	0501                	addi	a0,a0,0
     1c6:	0014                	.insn	2, 0x0014
     1c8:	0402                	c.slli64	s0
     1ca:	0301                	addi	t1,t1,0
     1cc:	0900                	addi	s0,sp,144
     1ce:	0000                	unimp
     1d0:	0501                	addi	a0,a0,0
     1d2:	0605                	addi	a2,a2,1
     1d4:	00097f03          	.insn	4, 0x00097f03
     1d8:	0100                	addi	s0,sp,128
     1da:	0e05                	addi	t3,t3,1 # 1a001 <_start-0x7ffe5fff>
     1dc:	02090103          	lb	sp,32(s2)
     1e0:	0100                	addi	s0,sp,128
     1e2:	1405                	addi	s0,s0,-31 # ffffffffffffcfe1 <__global_pointer$+0xffffffff7fffb799>
     1e4:	0200                	addi	s0,sp,256
     1e6:	0104                	addi	s1,sp,128
     1e8:	02090003          	lb	zero,32(s2)
     1ec:	0100                	addi	s0,sp,128
     1ee:	0905                	addi	s2,s2,1
     1f0:	0306                	slli	t1,t1,0x1
     1f2:	0901                	addi	s2,s2,0
     1f4:	0002                	c.slli64	zero
     1f6:	0501                	addi	a0,a0,0
     1f8:	001a                	c.slli	zero,0x6
     1fa:	0402                	c.slli64	s0
     1fc:	7f030603          	lb	a2,2032(t1)
     200:	0c09                	addi	s8,s8,2 # 1a002 <_start-0x7ffe5ffe>
     202:	0100                	addi	s0,sp,128
     204:	0905                	addi	s2,s2,1
     206:	02090103          	lb	sp,32(s2)
     20a:	0100                	addi	s0,sp,128
     20c:	1a05                	addi	s4,s4,-31
     20e:	0200                	addi	s0,sp,256
     210:	0304                	addi	s1,sp,384
     212:	0306                	slli	t1,t1,0x1
     214:	097f 0004 0501 0014 	.insn	10, 0x0402001405010004097f
     21c:	0402 
     21e:	0301                	addi	t1,t1,0
     220:	0900                	addi	s0,sp,144
     222:	0000                	unimp
     224:	0401                	addi	s0,s0,0
     226:	0502                	c.slli64	a0
     228:	060a                	slli	a2,a2,0x2
     22a:	08095703          	lhu	a4,128(s2)
     22e:	0100                	addi	s0,sp,128
     230:	1105                	addi	sp,sp,-31
     232:	0200                	addi	s0,sp,256
     234:	0104                	addi	s1,sp,128
     236:	02090003          	lb	zero,32(s2)
     23a:	0100                	addi	s0,sp,128
     23c:	0505                	addi	a0,a0,1
     23e:	0306                	slli	t1,t1,0x1
     240:	0902                	c.slli64	s2
     242:	0002                	c.slli64	zero
     244:	0301                	addi	t1,t1,0
     246:	00000903          	lb	s2,0(zero) # 0 <_start-0x80000000>
     24a:	0501                	addi	a0,a0,0
     24c:	0402001b          	addiw	zero,tp,64 # 40 <_start-0x7fffffc0>
     250:	0302                	c.slli64	t1
     252:	0000097b          	.insn	4, 0x097b
     256:	0501                	addi	a0,a0,0
     258:	0011                	c.nop	4
     25a:	0402                	c.slli64	s0
     25c:	0301                	addi	t1,t1,0
     25e:	0900                	addi	s0,sp,144
     260:	0000                	unimp
     262:	0501                	addi	a0,a0,0
     264:	0609                	addi	a2,a2,2
     266:	00090203          	lb	tp,0(s2)
     26a:	0100                	addi	s0,sp,128
     26c:	0805                	addi	a6,a6,1
     26e:	04090203          	lb	tp,64(s2)
     272:	0100                	addi	s0,sp,128
     274:	1705                	addi	a4,a4,-31
     276:	02097e03          	.insn	4, 0x02097e03
     27a:	0100                	addi	s0,sp,128
     27c:	1905                	addi	s2,s2,-31
     27e:	04090103          	lb	sp,64(s2)
     282:	0100                	addi	s0,sp,128
     284:	1105                	addi	sp,sp,-31
     286:	0200                	addi	s0,sp,256
     288:	0104                	addi	s1,sp,128
     28a:	02097d03          	.insn	4, 0x02097d03
     28e:	0100                	addi	s0,sp,128
     290:	1705                	addi	a4,a4,-31
     292:	02090203          	lb	tp,32(s2)
     296:	0100                	addi	s0,sp,128
     298:	0505                	addi	a0,a0,1
     29a:	0306                	slli	t1,t1,0x1
     29c:	0901                	addi	s2,s2,0
     29e:	0002                	c.slli64	zero
     2a0:	0301                	addi	t1,t1,0
     2a2:	0901                	addi	s2,s2,0
     2a4:	0000                	unimp
     2a6:	0501                	addi	a0,a0,0
     2a8:	0608                	addi	a0,sp,768
     2aa:	00090003          	lb	zero,0(s2)
     2ae:	0100                	addi	s0,sp,128
     2b0:	1b05                	addi	s6,s6,-31
     2b2:	0200                	addi	s0,sp,256
     2b4:	0104                	addi	s1,sp,128
     2b6:	04090103          	lb	sp,64(s2)
     2ba:	0100                	addi	s0,sp,128
     2bc:	0805                	addi	a6,a6,1
     2be:	02090003          	lb	zero,32(s2)
     2c2:	0100                	addi	s0,sp,128
     2c4:	1105                	addi	sp,sp,-31
     2c6:	0200                	addi	s0,sp,256
     2c8:	0104                	addi	s1,sp,128
     2ca:	04097b03          	.insn	4, 0x04097b03
     2ce:	0100                	addi	s0,sp,128
     2d0:	0a05                	addi	s4,s4,1
     2d2:	06090903          	lb	s2,96(s2)
     2d6:	0100                	addi	s0,sp,128
     2d8:	0104                	addi	s1,sp,128
     2da:	0105                	addi	sp,sp,1
     2dc:	02092503          	lw	a0,32(s2)
     2e0:	0100                	addi	s0,sp,128
     2e2:	0204                	addi	s1,sp,256
     2e4:	1305                	addi	t1,t1,-31
     2e6:	0200                	addi	s0,sp,256
     2e8:	0104                	addi	s1,sp,128
     2ea:	0306                	slli	t1,t1,0x1
     2ec:	0956                	slli	s2,s2,0x15
     2ee:	000e                	c.slli	zero,0x3
     2f0:	0501                	addi	a0,a0,0
     2f2:	0402001b          	addiw	zero,tp,64 # 40 <_start-0x7fffffc0>
     2f6:	0601                	addi	a2,a2,0
     2f8:	00090003          	lb	zero,0(s2)
     2fc:	0100                	addi	s0,sp,128
     2fe:	02090003          	lb	zero,32(s2)
     302:	0100                	addi	s0,sp,128
     304:	0209                	addi	tp,tp,2 # 2 <_start-0x7ffffffe>
     306:	0000                	unimp
     308:	0101                	addi	sp,sp,0
     30a:	0046                	c.slli	zero,0x11
     30c:	0000                	unimp
     30e:	0002                	c.slli64	zero
     310:	001a                	c.slli	zero,0x6
     312:	0000                	unimp
     314:	0101                	addi	sp,sp,0
     316:	000a0efb          	.insn	4, 0x000a0efb
     31a:	0101                	addi	sp,sp,0
     31c:	0101                	addi	sp,sp,0
     31e:	0000                	unimp
     320:	0100                	addi	s0,sp,128
     322:	6600                	ld	s0,8(a2)
     324:	7269                	lui	tp,0xffffa
     326:	2e31                	addiw	t3,t3,12
     328:	00000053          	fadd.s	ft0,ft0,ft0,rne
     32c:	0000                	unimp
     32e:	0900                	addi	s0,sp,144
     330:	c202                	sw	zero,4(sp)
     332:	0001                	nop
     334:	0080                	addi	s0,sp,64
     336:	0000                	unimp
     338:	0300                	addi	s0,sp,384
     33a:	0116                	slli	sp,sp,0x5
     33c:	04090103          	lb	sp,64(s2)
     340:	0100                	addi	s0,sp,128
     342:	04090103          	lb	sp,64(s2)
     346:	0100                	addi	s0,sp,128
     348:	04090403          	lb	s0,64(s2)
     34c:	0100                	addi	s0,sp,128
     34e:	0209                	addi	tp,tp,2 # ffffffffffffa002 <__global_pointer$+0xffffffff7fff87ba>
     350:	0000                	unimp
     352:	0101                	addi	sp,sp,0
     354:	000003f7          	.insn	4, 0x03f7
     358:	0002                	c.slli64	zero
     35a:	00000023          	sb	zero,0(zero) # 0 <_start-0x80000000>
     35e:	0101                	addi	sp,sp,0
     360:	000a0efb          	.insn	4, 0x000a0efb
     364:	0101                	addi	sp,sp,0
     366:	0101                	addi	sp,sp,0
     368:	0000                	unimp
     36a:	0100                	addi	s0,sp,128
     36c:	2e2e                	fld	ft8,200(sp)
     36e:	6d6f632f          	.insn	4, 0x6d6f632f
     372:	6f6d                	lui	t5,0x1b
     374:	006e                	c.slli	zero,0x1b
     376:	6300                	ld	s0,0(a4)
     378:	7472                	ld	s0,312(sp)
     37a:	532e                	lw	t1,232(sp)
     37c:	0100                	addi	s0,sp,128
     37e:	0000                	unimp
     380:	0000                	unimp
     382:	0209                	addi	tp,tp,2 # 2 <_start-0x7ffffffe>
     384:	0000                	unimp
     386:	8000                	.insn	2, 0x8000
     388:	0000                	unimp
     38a:	0000                	unimp
     38c:	03011103          	lh	sp,48(sp)
     390:	0901                	addi	s2,s2,0
     392:	0002                	c.slli64	zero
     394:	0301                	addi	t1,t1,0
     396:	0901                	addi	s2,s2,0
     398:	0002                	c.slli64	zero
     39a:	0301                	addi	t1,t1,0
     39c:	0901                	addi	s2,s2,0
     39e:	0002                	c.slli64	zero
     3a0:	0301                	addi	t1,t1,0
     3a2:	0901                	addi	s2,s2,0
     3a4:	0002                	c.slli64	zero
     3a6:	0301                	addi	t1,t1,0
     3a8:	0901                	addi	s2,s2,0
     3aa:	0002                	c.slli64	zero
     3ac:	0301                	addi	t1,t1,0
     3ae:	0901                	addi	s2,s2,0
     3b0:	0002                	c.slli64	zero
     3b2:	0301                	addi	t1,t1,0
     3b4:	0901                	addi	s2,s2,0
     3b6:	0002                	c.slli64	zero
     3b8:	0301                	addi	t1,t1,0
     3ba:	0901                	addi	s2,s2,0
     3bc:	0002                	c.slli64	zero
     3be:	0301                	addi	t1,t1,0
     3c0:	0901                	addi	s2,s2,0
     3c2:	0002                	c.slli64	zero
     3c4:	0301                	addi	t1,t1,0
     3c6:	0901                	addi	s2,s2,0
     3c8:	0002                	c.slli64	zero
     3ca:	0301                	addi	t1,t1,0
     3cc:	0901                	addi	s2,s2,0
     3ce:	0002                	c.slli64	zero
     3d0:	0301                	addi	t1,t1,0
     3d2:	0901                	addi	s2,s2,0
     3d4:	0002                	c.slli64	zero
     3d6:	0301                	addi	t1,t1,0
     3d8:	0901                	addi	s2,s2,0
     3da:	0002                	c.slli64	zero
     3dc:	0301                	addi	t1,t1,0
     3de:	0901                	addi	s2,s2,0
     3e0:	0002                	c.slli64	zero
     3e2:	0301                	addi	t1,t1,0
     3e4:	0901                	addi	s2,s2,0
     3e6:	0002                	c.slli64	zero
     3e8:	0301                	addi	t1,t1,0
     3ea:	0901                	addi	s2,s2,0
     3ec:	0002                	c.slli64	zero
     3ee:	0301                	addi	t1,t1,0
     3f0:	0901                	addi	s2,s2,0
     3f2:	0002                	c.slli64	zero
     3f4:	0301                	addi	t1,t1,0
     3f6:	0901                	addi	s2,s2,0
     3f8:	0002                	c.slli64	zero
     3fa:	0301                	addi	t1,t1,0
     3fc:	0901                	addi	s2,s2,0
     3fe:	0002                	c.slli64	zero
     400:	0301                	addi	t1,t1,0
     402:	0901                	addi	s2,s2,0
     404:	0002                	c.slli64	zero
     406:	0301                	addi	t1,t1,0
     408:	0901                	addi	s2,s2,0
     40a:	0002                	c.slli64	zero
     40c:	0301                	addi	t1,t1,0
     40e:	0901                	addi	s2,s2,0
     410:	0002                	c.slli64	zero
     412:	0301                	addi	t1,t1,0
     414:	0901                	addi	s2,s2,0
     416:	0002                	c.slli64	zero
     418:	0301                	addi	t1,t1,0
     41a:	0901                	addi	s2,s2,0
     41c:	0002                	c.slli64	zero
     41e:	0301                	addi	t1,t1,0
     420:	0901                	addi	s2,s2,0
     422:	0002                	c.slli64	zero
     424:	0301                	addi	t1,t1,0
     426:	0901                	addi	s2,s2,0
     428:	0002                	c.slli64	zero
     42a:	0301                	addi	t1,t1,0
     42c:	0901                	addi	s2,s2,0
     42e:	0002                	c.slli64	zero
     430:	0301                	addi	t1,t1,0
     432:	0901                	addi	s2,s2,0
     434:	0002                	c.slli64	zero
     436:	0301                	addi	t1,t1,0
     438:	0901                	addi	s2,s2,0
     43a:	0002                	c.slli64	zero
     43c:	0301                	addi	t1,t1,0
     43e:	0901                	addi	s2,s2,0
     440:	0002                	c.slli64	zero
     442:	0301                	addi	t1,t1,0
     444:	00020903          	lb	s2,0(tp) # 0 <_start-0x80000000>
     448:	0301                	addi	t1,t1,0
     44a:	0901                	addi	s2,s2,0
     44c:	0002                	c.slli64	zero
     44e:	0301                	addi	t1,t1,0
     450:	00040903          	lb	s2,0(s0)
     454:	0301                	addi	t1,t1,0
     456:	0901                	addi	s2,s2,0
     458:	0002                	c.slli64	zero
     45a:	0301                	addi	t1,t1,0
     45c:	0902                	c.slli64	s2
     45e:	0002                	c.slli64	zero
     460:	0301                	addi	t1,t1,0
     462:	0905                	addi	s2,s2,1
     464:	0004                	.insn	2, 0x0004
     466:	0301                	addi	t1,t1,0
     468:	0901                	addi	s2,s2,0
     46a:	0002                	c.slli64	zero
     46c:	0301                	addi	t1,t1,0
     46e:	0901                	addi	s2,s2,0
     470:	0008                	.insn	2, 0x0008
     472:	0301                	addi	t1,t1,0
     474:	0905                	addi	s2,s2,1
     476:	0002                	c.slli64	zero
     478:	0301                	addi	t1,t1,0
     47a:	0901                	addi	s2,s2,0
     47c:	0008                	.insn	2, 0x0008
     47e:	0301                	addi	t1,t1,0
     480:	0902                	c.slli64	s2
     482:	0004                	.insn	2, 0x0004
     484:	0301                	addi	t1,t1,0
     486:	0901                	addi	s2,s2,0
     488:	0004                	.insn	2, 0x0004
     48a:	0301                	addi	t1,t1,0
     48c:	0901                	addi	s2,s2,0
     48e:	0004                	.insn	2, 0x0004
     490:	0301                	addi	t1,t1,0
     492:	0901                	addi	s2,s2,0
     494:	0004                	.insn	2, 0x0004
     496:	0301                	addi	t1,t1,0
     498:	0901                	addi	s2,s2,0
     49a:	0004                	.insn	2, 0x0004
     49c:	0301                	addi	t1,t1,0
     49e:	0901                	addi	s2,s2,0
     4a0:	0004                	.insn	2, 0x0004
     4a2:	0301                	addi	t1,t1,0
     4a4:	0901                	addi	s2,s2,0
     4a6:	0004                	.insn	2, 0x0004
     4a8:	0301                	addi	t1,t1,0
     4aa:	0901                	addi	s2,s2,0
     4ac:	0004                	.insn	2, 0x0004
     4ae:	0301                	addi	t1,t1,0
     4b0:	0901                	addi	s2,s2,0
     4b2:	0004                	.insn	2, 0x0004
     4b4:	0301                	addi	t1,t1,0
     4b6:	0901                	addi	s2,s2,0
     4b8:	0004                	.insn	2, 0x0004
     4ba:	0301                	addi	t1,t1,0
     4bc:	0901                	addi	s2,s2,0
     4be:	0004                	.insn	2, 0x0004
     4c0:	0301                	addi	t1,t1,0
     4c2:	0901                	addi	s2,s2,0
     4c4:	0004                	.insn	2, 0x0004
     4c6:	0301                	addi	t1,t1,0
     4c8:	0901                	addi	s2,s2,0
     4ca:	0004                	.insn	2, 0x0004
     4cc:	0301                	addi	t1,t1,0
     4ce:	0901                	addi	s2,s2,0
     4d0:	0004                	.insn	2, 0x0004
     4d2:	0301                	addi	t1,t1,0
     4d4:	0901                	addi	s2,s2,0
     4d6:	0004                	.insn	2, 0x0004
     4d8:	0301                	addi	t1,t1,0
     4da:	0901                	addi	s2,s2,0
     4dc:	0004                	.insn	2, 0x0004
     4de:	0301                	addi	t1,t1,0
     4e0:	0901                	addi	s2,s2,0
     4e2:	0004                	.insn	2, 0x0004
     4e4:	0301                	addi	t1,t1,0
     4e6:	0901                	addi	s2,s2,0
     4e8:	0004                	.insn	2, 0x0004
     4ea:	0301                	addi	t1,t1,0
     4ec:	0901                	addi	s2,s2,0
     4ee:	0004                	.insn	2, 0x0004
     4f0:	0301                	addi	t1,t1,0
     4f2:	0901                	addi	s2,s2,0
     4f4:	0004                	.insn	2, 0x0004
     4f6:	0301                	addi	t1,t1,0
     4f8:	0901                	addi	s2,s2,0
     4fa:	0004                	.insn	2, 0x0004
     4fc:	0301                	addi	t1,t1,0
     4fe:	0901                	addi	s2,s2,0
     500:	0004                	.insn	2, 0x0004
     502:	0301                	addi	t1,t1,0
     504:	0901                	addi	s2,s2,0
     506:	0004                	.insn	2, 0x0004
     508:	0301                	addi	t1,t1,0
     50a:	0901                	addi	s2,s2,0
     50c:	0004                	.insn	2, 0x0004
     50e:	0301                	addi	t1,t1,0
     510:	0901                	addi	s2,s2,0
     512:	0004                	.insn	2, 0x0004
     514:	0301                	addi	t1,t1,0
     516:	0901                	addi	s2,s2,0
     518:	0004                	.insn	2, 0x0004
     51a:	0301                	addi	t1,t1,0
     51c:	0901                	addi	s2,s2,0
     51e:	0004                	.insn	2, 0x0004
     520:	0301                	addi	t1,t1,0
     522:	0901                	addi	s2,s2,0
     524:	0004                	.insn	2, 0x0004
     526:	0301                	addi	t1,t1,0
     528:	0901                	addi	s2,s2,0
     52a:	0004                	.insn	2, 0x0004
     52c:	0301                	addi	t1,t1,0
     52e:	0901                	addi	s2,s2,0
     530:	0004                	.insn	2, 0x0004
     532:	0301                	addi	t1,t1,0
     534:	0901                	addi	s2,s2,0
     536:	0004                	.insn	2, 0x0004
     538:	0301                	addi	t1,t1,0
     53a:	0901                	addi	s2,s2,0
     53c:	0004                	.insn	2, 0x0004
     53e:	0301                	addi	t1,t1,0
     540:	0901                	addi	s2,s2,0
     542:	0004                	.insn	2, 0x0004
     544:	0301                	addi	t1,t1,0
     546:	0905                	addi	s2,s2,1
     548:	0004                	.insn	2, 0x0004
     54a:	0301                	addi	t1,t1,0
     54c:	0901                	addi	s2,s2,0
     54e:	0008                	.insn	2, 0x0008
     550:	0301                	addi	t1,t1,0
     552:	0905                	addi	s2,s2,1
     554:	0004                	.insn	2, 0x0004
     556:	0301                	addi	t1,t1,0
     558:	00080903          	lb	s2,0(a6)
     55c:	0301                	addi	t1,t1,0
     55e:	0901                	addi	s2,s2,0
     560:	0004                	.insn	2, 0x0004
     562:	0301                	addi	t1,t1,0
     564:	00040903          	lb	s2,0(s0)
     568:	0301                	addi	t1,t1,0
     56a:	0902                	c.slli64	s2
     56c:	0004                	.insn	2, 0x0004
     56e:	0301                	addi	t1,t1,0
     570:	0901                	addi	s2,s2,0
     572:	0002                	c.slli64	zero
     574:	0301                	addi	t1,t1,0
     576:	0904                	addi	s1,sp,144
     578:	0004                	.insn	2, 0x0004
     57a:	0301                	addi	t1,t1,0
     57c:	0901                	addi	s2,s2,0
     57e:	0004                	.insn	2, 0x0004
     580:	0301                	addi	t1,t1,0
     582:	0901                	addi	s2,s2,0
     584:	0002                	c.slli64	zero
     586:	0301                	addi	t1,t1,0
     588:	0901                	addi	s2,s2,0
     58a:	0002                	c.slli64	zero
     58c:	0301                	addi	t1,t1,0
     58e:	0901                	addi	s2,s2,0
     590:	0004                	.insn	2, 0x0004
     592:	0301                	addi	t1,t1,0
     594:	0902                	c.slli64	s2
     596:	0002                	c.slli64	zero
     598:	0301                	addi	t1,t1,0
     59a:	0904                	addi	s1,sp,144
     59c:	0004                	.insn	2, 0x0004
     59e:	0301                	addi	t1,t1,0
     5a0:	0902                	c.slli64	s2
     5a2:	0002                	c.slli64	zero
     5a4:	0301                	addi	t1,t1,0
     5a6:	0901                	addi	s2,s2,0
     5a8:	0002                	c.slli64	zero
     5aa:	0301                	addi	t1,t1,0
     5ac:	0901                	addi	s2,s2,0
     5ae:	0002                	c.slli64	zero
     5b0:	0301                	addi	t1,t1,0
     5b2:	0901                	addi	s2,s2,0
     5b4:	0002                	c.slli64	zero
     5b6:	0301                	addi	t1,t1,0
     5b8:	0901                	addi	s2,s2,0
     5ba:	0002                	c.slli64	zero
     5bc:	0301                	addi	t1,t1,0
     5be:	0901                	addi	s2,s2,0
     5c0:	0002                	c.slli64	zero
     5c2:	0301                	addi	t1,t1,0
     5c4:	0901                	addi	s2,s2,0
     5c6:	0002                	c.slli64	zero
     5c8:	0301                	addi	t1,t1,0
     5ca:	0901                	addi	s2,s2,0
     5cc:	0002                	c.slli64	zero
     5ce:	0301                	addi	t1,t1,0
     5d0:	0901                	addi	s2,s2,0
     5d2:	0002                	c.slli64	zero
     5d4:	0301                	addi	t1,t1,0
     5d6:	0901                	addi	s2,s2,0
     5d8:	0002                	c.slli64	zero
     5da:	0301                	addi	t1,t1,0
     5dc:	0901                	addi	s2,s2,0
     5de:	0002                	c.slli64	zero
     5e0:	0301                	addi	t1,t1,0
     5e2:	0901                	addi	s2,s2,0
     5e4:	0002                	c.slli64	zero
     5e6:	0301                	addi	t1,t1,0
     5e8:	0901                	addi	s2,s2,0
     5ea:	0002                	c.slli64	zero
     5ec:	0301                	addi	t1,t1,0
     5ee:	0901                	addi	s2,s2,0
     5f0:	0002                	c.slli64	zero
     5f2:	0301                	addi	t1,t1,0
     5f4:	0901                	addi	s2,s2,0
     5f6:	0002                	c.slli64	zero
     5f8:	0301                	addi	t1,t1,0
     5fa:	0901                	addi	s2,s2,0
     5fc:	0002                	c.slli64	zero
     5fe:	0301                	addi	t1,t1,0
     600:	0901                	addi	s2,s2,0
     602:	0002                	c.slli64	zero
     604:	0301                	addi	t1,t1,0
     606:	0901                	addi	s2,s2,0
     608:	0002                	c.slli64	zero
     60a:	0301                	addi	t1,t1,0
     60c:	0901                	addi	s2,s2,0
     60e:	0002                	c.slli64	zero
     610:	0301                	addi	t1,t1,0
     612:	0901                	addi	s2,s2,0
     614:	0002                	c.slli64	zero
     616:	0301                	addi	t1,t1,0
     618:	0901                	addi	s2,s2,0
     61a:	0002                	c.slli64	zero
     61c:	0301                	addi	t1,t1,0
     61e:	0901                	addi	s2,s2,0
     620:	0002                	c.slli64	zero
     622:	0301                	addi	t1,t1,0
     624:	0901                	addi	s2,s2,0
     626:	0002                	c.slli64	zero
     628:	0301                	addi	t1,t1,0
     62a:	0901                	addi	s2,s2,0
     62c:	0002                	c.slli64	zero
     62e:	0301                	addi	t1,t1,0
     630:	0901                	addi	s2,s2,0
     632:	0002                	c.slli64	zero
     634:	0301                	addi	t1,t1,0
     636:	0901                	addi	s2,s2,0
     638:	0002                	c.slli64	zero
     63a:	0301                	addi	t1,t1,0
     63c:	0901                	addi	s2,s2,0
     63e:	0002                	c.slli64	zero
     640:	0301                	addi	t1,t1,0
     642:	0901                	addi	s2,s2,0
     644:	0002                	c.slli64	zero
     646:	0301                	addi	t1,t1,0
     648:	0901                	addi	s2,s2,0
     64a:	0002                	c.slli64	zero
     64c:	0301                	addi	t1,t1,0
     64e:	0901                	addi	s2,s2,0
     650:	0002                	c.slli64	zero
     652:	0301                	addi	t1,t1,0
     654:	0901                	addi	s2,s2,0
     656:	0002                	c.slli64	zero
     658:	0301                	addi	t1,t1,0
     65a:	0902                	c.slli64	s2
     65c:	0002                	c.slli64	zero
     65e:	0301                	addi	t1,t1,0
     660:	0901                	addi	s2,s2,0
     662:	0004                	.insn	2, 0x0004
     664:	0301                	addi	t1,t1,0
     666:	0901                	addi	s2,s2,0
     668:	0004                	.insn	2, 0x0004
     66a:	0301                	addi	t1,t1,0
     66c:	0901                	addi	s2,s2,0
     66e:	0002                	c.slli64	zero
     670:	0301                	addi	t1,t1,0
     672:	0901                	addi	s2,s2,0
     674:	0004                	.insn	2, 0x0004
     676:	0301                	addi	t1,t1,0
     678:	00040903          	lb	s2,0(s0)
     67c:	0301                	addi	t1,t1,0
     67e:	0901                	addi	s2,s2,0
     680:	0006                	c.slli	zero,0x1
     682:	0301                	addi	t1,t1,0
     684:	0902                	c.slli64	s2
     686:	0004                	.insn	2, 0x0004
     688:	0301                	addi	t1,t1,0
     68a:	0901                	addi	s2,s2,0
     68c:	0002                	c.slli64	zero
     68e:	0301                	addi	t1,t1,0
     690:	0901                	addi	s2,s2,0
     692:	0002                	c.slli64	zero
     694:	0301                	addi	t1,t1,0
     696:	0901                	addi	s2,s2,0
     698:	0002                	c.slli64	zero
     69a:	0301                	addi	t1,t1,0
     69c:	0901                	addi	s2,s2,0
     69e:	0002                	c.slli64	zero
     6a0:	0301                	addi	t1,t1,0
     6a2:	0901                	addi	s2,s2,0
     6a4:	0002                	c.slli64	zero
     6a6:	0301                	addi	t1,t1,0
     6a8:	0901                	addi	s2,s2,0
     6aa:	0002                	c.slli64	zero
     6ac:	0301                	addi	t1,t1,0
     6ae:	0901                	addi	s2,s2,0
     6b0:	0002                	c.slli64	zero
     6b2:	0301                	addi	t1,t1,0
     6b4:	0901                	addi	s2,s2,0
     6b6:	0002                	c.slli64	zero
     6b8:	0301                	addi	t1,t1,0
     6ba:	0901                	addi	s2,s2,0
     6bc:	0002                	c.slli64	zero
     6be:	0301                	addi	t1,t1,0
     6c0:	0901                	addi	s2,s2,0
     6c2:	0002                	c.slli64	zero
     6c4:	0301                	addi	t1,t1,0
     6c6:	0901                	addi	s2,s2,0
     6c8:	0002                	c.slli64	zero
     6ca:	0301                	addi	t1,t1,0
     6cc:	0901                	addi	s2,s2,0
     6ce:	0002                	c.slli64	zero
     6d0:	0301                	addi	t1,t1,0
     6d2:	0901                	addi	s2,s2,0
     6d4:	0002                	c.slli64	zero
     6d6:	0301                	addi	t1,t1,0
     6d8:	0901                	addi	s2,s2,0
     6da:	0002                	c.slli64	zero
     6dc:	0301                	addi	t1,t1,0
     6de:	0901                	addi	s2,s2,0
     6e0:	0002                	c.slli64	zero
     6e2:	0301                	addi	t1,t1,0
     6e4:	0901                	addi	s2,s2,0
     6e6:	0002                	c.slli64	zero
     6e8:	0301                	addi	t1,t1,0
     6ea:	0901                	addi	s2,s2,0
     6ec:	0002                	c.slli64	zero
     6ee:	0301                	addi	t1,t1,0
     6f0:	0901                	addi	s2,s2,0
     6f2:	0002                	c.slli64	zero
     6f4:	0301                	addi	t1,t1,0
     6f6:	0901                	addi	s2,s2,0
     6f8:	0002                	c.slli64	zero
     6fa:	0301                	addi	t1,t1,0
     6fc:	0901                	addi	s2,s2,0
     6fe:	0002                	c.slli64	zero
     700:	0301                	addi	t1,t1,0
     702:	0901                	addi	s2,s2,0
     704:	0002                	c.slli64	zero
     706:	0301                	addi	t1,t1,0
     708:	0901                	addi	s2,s2,0
     70a:	0002                	c.slli64	zero
     70c:	0301                	addi	t1,t1,0
     70e:	0901                	addi	s2,s2,0
     710:	0002                	c.slli64	zero
     712:	0301                	addi	t1,t1,0
     714:	0901                	addi	s2,s2,0
     716:	0002                	c.slli64	zero
     718:	0301                	addi	t1,t1,0
     71a:	0901                	addi	s2,s2,0
     71c:	0002                	c.slli64	zero
     71e:	0301                	addi	t1,t1,0
     720:	0901                	addi	s2,s2,0
     722:	0002                	c.slli64	zero
     724:	0301                	addi	t1,t1,0
     726:	0901                	addi	s2,s2,0
     728:	0002                	c.slli64	zero
     72a:	0301                	addi	t1,t1,0
     72c:	0901                	addi	s2,s2,0
     72e:	0002                	c.slli64	zero
     730:	0301                	addi	t1,t1,0
     732:	0901                	addi	s2,s2,0
     734:	0002                	c.slli64	zero
     736:	0301                	addi	t1,t1,0
     738:	0901                	addi	s2,s2,0
     73a:	0002                	c.slli64	zero
     73c:	0301                	addi	t1,t1,0
     73e:	0902                	c.slli64	s2
     740:	0002                	c.slli64	zero
     742:	0301                	addi	t1,t1,0
     744:	0901                	addi	s2,s2,0
     746:	0002                	c.slli64	zero
     748:	0901                	addi	s2,s2,0
     74a:	0004                	.insn	2, 0x0004
     74c:	0100                	addi	s0,sp,128
     74e:	4801                	li	a6,0
     750:	001a                	c.slli	zero,0x6
     752:	0200                	addi	s0,sp,256
     754:	3d00                	fld	fs0,56(a0)
     756:	0001                	nop
     758:	0100                	addi	s0,sp,128
     75a:	fb01                	bnez	a4,66a <_start-0x7ffff996>
     75c:	0a0e                	slli	s4,s4,0x3
     75e:	0100                	addi	s0,sp,128
     760:	0101                	addi	sp,sp,0
     762:	0001                	nop
     764:	0000                	unimp
     766:	2e01                	sext.w	t3,t3
     768:	2f2e                	fld	ft10,200(sp)
     76a:	6d6d6f63          	bltu	s10,s6,e48 <_start-0x7ffff1b8>
     76e:	2f006e6f          	jal	t3,6a5e <_start-0x7fff95a2>
     772:	2f74706f          	j	48268 <_start-0x7ffb7d98>
     776:	6972                	ld	s2,280(sp)
     778:	2f766373          	csrrsi	t1,0x2f7,12
     77c:	6972                	ld	s2,280(sp)
     77e:	36766373          	csrrsi	t1,0x367,12
     782:	2d34                	fld	fa3,88(a0)
     784:	6e75                	lui	t3,0x1d
     786:	776f6e6b          	.insn	4, 0x776f6e6b
     78a:	2d6e                	fld	fs10,216(sp)
     78c:	6c65                	lui	s8,0x19
     78e:	2f66                	fld	ft10,88(sp)
     790:	6e69                	lui	t3,0x1a
     792:	64756c63          	bltu	a0,t2,dea <_start-0x7ffff216>
     796:	2f65                	addiw	t5,t5,25 # 1b019 <_start-0x7ffe4fe7>
     798:	616d                	addi	sp,sp,240
     79a:	6e696863          	bltu	s2,t1,e8a <_start-0x7ffff176>
     79e:	0065                	c.nop	25
     7a0:	74706f2f          	.insn	4, 0x74706f2f
     7a4:	7369722f          	.insn	4, 0x7369722f
     7a8:	722f7663          	bgeu	t5,sp,ed4 <_start-0x7ffff12c>
     7ac:	7369                	lui	t1,0xffffa
     7ae:	34367663          	bgeu	a2,gp,afa <_start-0x7ffff506>
     7b2:	752d                	lui	a0,0xfffeb
     7b4:	6b6e                	ld	s6,216(sp)
     7b6:	6f6e                	ld	t5,216(sp)
     7b8:	652d6e77          	.insn	4, 0x652d6e77
     7bc:	666c                	ld	a1,200(a2)
     7be:	636e692f          	.insn	4, 0x636e692f
     7c2:	756c                	ld	a1,232(a0)
     7c4:	6564                	ld	s1,200(a0)
     7c6:	7379732f          	.insn	4, 0x7379732f
     7ca:	2f00                	fld	fs0,24(a4)
     7cc:	2f74706f          	j	482c2 <_start-0x7ffb7d3e>
     7d0:	6972                	ld	s2,280(sp)
     7d2:	2f766373          	csrrsi	t1,0x2f7,12
     7d6:	696c                	ld	a1,208(a0)
     7d8:	2f62                	fld	ft10,24(sp)
     7da:	2f636367          	.insn	4, 0x2f636367
     7de:	6972                	ld	s2,280(sp)
     7e0:	36766373          	csrrsi	t1,0x367,12
     7e4:	2d34                	fld	fa3,88(a0)
     7e6:	6e75                	lui	t3,0x1d
     7e8:	776f6e6b          	.insn	4, 0x776f6e6b
     7ec:	2d6e                	fld	fs10,216(sp)
     7ee:	6c65                	lui	s8,0x19
     7f0:	2f66                	fld	ft10,88(sp)
     7f2:	3431                	addiw	s0,s0,-20
     7f4:	322e                	fld	ft4,232(sp)
     7f6:	302e                	fld	ft0,232(sp)
     7f8:	636e692f          	.insn	4, 0x636e692f
     7fc:	756c                	ld	a1,232(a0)
     7fe:	6564                	ld	s1,200(a0)
     800:	2f00                	fld	fs0,24(a4)
     802:	2f74706f          	j	482f8 <_start-0x7ffb7d08>
     806:	6972                	ld	s2,280(sp)
     808:	2f766373          	csrrsi	t1,0x2f7,12
     80c:	6972                	ld	s2,280(sp)
     80e:	36766373          	csrrsi	t1,0x367,12
     812:	2d34                	fld	fa3,88(a0)
     814:	6e75                	lui	t3,0x1d
     816:	776f6e6b          	.insn	4, 0x776f6e6b
     81a:	2d6e                	fld	fs10,216(sp)
     81c:	6c65                	lui	s8,0x19
     81e:	2f66                	fld	ft10,88(sp)
     820:	6e69                	lui	t3,0x1a
     822:	64756c63          	bltu	a0,t2,e7a <_start-0x7ffff186>
     826:	0065                	c.nop	25
     828:	7300                	ld	s0,32(a4)
     82a:	7379                	lui	t1,0xffffe
     82c:	6c6c6163          	bltu	s8,t1,eee <_start-0x7ffff112>
     830:	00632e73          	csrrs	t3,0x6,t1
     834:	0001                	nop
     836:	5f00                	lw	s0,56(a4)
     838:	6564                	ld	s1,200(a0)
     83a:	6166                	ld	sp,88(sp)
     83c:	6c75                	lui	s8,0x1d
     83e:	5f74                	lw	a3,124(a4)
     840:	7974                	ld	a3,240(a0)
     842:	6570                	ld	a2,200(a0)
     844:	00682e73          	csrrs	t3,0x6,a6
     848:	0002                	c.slli64	zero
     84a:	5f00                	lw	s0,56(a4)
     84c:	69647473          	csrrci	s0,0x696,8
     850:	746e                	ld	s0,248(sp)
     852:	682e                	ld	a6,200(sp)
     854:	0300                	addi	s0,sp,384
     856:	0000                	unimp
     858:	64647473          	csrrci	s0,hviprio1,8
     85c:	6665                	lui	a2,0x19
     85e:	682e                	ld	a6,200(sp)
     860:	0400                	addi	s0,sp,512
     862:	0000                	unimp
     864:	61647473          	csrrci	s0,0x616,8
     868:	6772                	ld	a4,280(sp)
     86a:	682e                	ld	a6,200(sp)
     86c:	0400                	addi	s0,sp,512
     86e:	0000                	unimp
     870:	69727473          	csrrci	s0,0x697,4
     874:	676e                	ld	a4,216(sp)
     876:	682e                	ld	a6,200(sp)
     878:	0500                	addi	s0,sp,640
     87a:	0000                	unimp
     87c:	69647473          	csrrci	s0,0x696,8
     880:	00682e6f          	jal	t3,82886 <_start-0x7ff7d77a>
     884:	0005                	c.nop	1
     886:	3c00                	fld	fs0,56(s0)
     888:	7562                	ld	a0,56(sp)
     88a:	6c69                	lui	s8,0x1a
     88c:	2d74                	fld	fa3,216(a0)
     88e:	6e69                	lui	t3,0x1a
     890:	003e                	c.slli	zero,0xf
     892:	0000                	unimp
     894:	0000                	unimp
     896:	0105                	addi	sp,sp,1
     898:	0900                	addi	s0,sp,144
     89a:	d002                	sw	zero,32(sp)
     89c:	0001                	nop
     89e:	0080                	addi	s0,sp,64
     8a0:	0000                	unimp
     8a2:	0300                	addi	s0,sp,384
     8a4:	01b1                	addi	gp,gp,12 # 80001854 <__global_pointer$+0xc>
     8a6:	0501                	addi	a0,a0,0 # fffffffffffeb000 <__global_pointer$+0xffffffff7ffe97b8>
     8a8:	09030303          	lb	t1,144(t1) # ffffffffffffe090 <__global_pointer$+0xffffffff7fffc848>
     8ac:	0000                	unimp
     8ae:	0501                	addi	a0,a0,0
     8b0:	0402000b          	.insn	4, 0x0402000b
     8b4:	0601                	addi	a2,a2,0 # 19000 <_start-0x7ffe7000>
     8b6:	097eed03          	lwu	s10,151(t4)
     8ba:	0000                	unimp
     8bc:	0501                	addi	a0,a0,0
     8be:	01930303          	lb	t1,25(t1)
     8c2:	0409                	addi	s0,s0,2
     8c4:	0100                	addi	s0,sp,128
     8c6:	0306                	slli	t1,t1,0x1
     8c8:	7eea                	ld	t4,184(sp)
     8ca:	0409                	addi	s0,s0,2
     8cc:	0100                	addi	s0,sp,128
     8ce:	00090103          	lb	sp,0(s2)
     8d2:	0100                	addi	s0,sp,128
     8d4:	0205                	addi	tp,tp,1 # 1 <_start-0x7fffffff>
     8d6:	00090203          	lb	tp,0(s2)
     8da:	0100                	addi	s0,sp,128
     8dc:	0b05                	addi	s6,s6,1
     8de:	0200                	addi	s0,sp,256
     8e0:	0104                	addi	s1,sp,128
     8e2:	0306                	slli	t1,t1,0x1
     8e4:	0900                	addi	s0,sp,144
     8e6:	0000                	unimp
     8e8:	0501                	addi	a0,a0,0
     8ea:	0009                	c.nop	2
     8ec:	0402                	c.slli64	s0
     8ee:	0601                	addi	a2,a2,0
     8f0:	06090003          	lb	zero,96(s2)
     8f4:	0100                	addi	s0,sp,128
     8f6:	0b05                	addi	s6,s6,1
     8f8:	0200                	addi	s0,sp,256
     8fa:	0104                	addi	s1,sp,128
     8fc:	0306                	slli	t1,t1,0x1
     8fe:	0900                	addi	s0,sp,144
     900:	0000                	unimp
     902:	0501                	addi	a0,a0,0
     904:	0009                	c.nop	2
     906:	0402                	c.slli64	s0
     908:	0301                	addi	t1,t1,0
     90a:	0900                	addi	s0,sp,144
     90c:	0004                	.insn	2, 0x0004
     90e:	0501                	addi	a0,a0,0
     910:	0602                	c.slli64	a2
     912:	06090103          	lb	sp,96(s2)
     916:	0100                	addi	s0,sp,128
     918:	0c05                	addi	s8,s8,1 # 1a001 <_start-0x7ffe5fff>
     91a:	0306                	slli	t1,t1,0x1
     91c:	0900                	addi	s0,sp,144
     91e:	0000                	unimp
     920:	0501                	addi	a0,a0,0
     922:	a0030603          	lb	a2,-1536(t1)
     926:	0901                	addi	s2,s2,0
     928:	0004                	.insn	2, 0x0004
     92a:	0501                	addi	a0,a0,0
     92c:	0601                	addi	a2,a2,0
     92e:	00090103          	lb	sp,0(s2)
     932:	0100                	addi	s0,sp,128
     934:	0306                	slli	t1,t1,0x1
     936:	093a                	slli	s2,s2,0xe
     938:	0004                	.insn	2, 0x0004
     93a:	0501                	addi	a0,a0,0
     93c:	062a                	slli	a2,a2,0xa
     93e:	22090903          	lb	s2,544(s2)
     942:	0100                	addi	s0,sp,128
     944:	0505                	addi	a0,a0,1
     946:	04091003          	lh	zero,64(s2)
     94a:	0100                	addi	s0,sp,128
     94c:	0705                	addi	a4,a4,1
     94e:	0306                	slli	t1,t1,0x1
     950:	0971                	addi	s2,s2,28
     952:	000a                	c.slli	zero,0x2
     954:	0501                	addi	a0,a0,0
     956:	060a                	slli	a2,a2,0x2
     958:	00090003          	lb	zero,0(s2)
     95c:	0100                	addi	s0,sp,128
     95e:	0705                	addi	a4,a4,1
     960:	0306                	slli	t1,t1,0x1
     962:	0902                	c.slli64	s2
     964:	0002                	c.slli64	zero
     966:	0601                	addi	a2,a2,0
     968:	00090103          	lb	sp,0(s2)
     96c:	0100                	addi	s0,sp,128
     96e:	0a05                	addi	s4,s4,1
     970:	02097f03          	.insn	4, 0x02097f03
     974:	0100                	addi	s0,sp,128
     976:	0705                	addi	a4,a4,1
     978:	0306                	slli	t1,t1,0x1
     97a:	0901                	addi	s2,s2,0
     97c:	0002                	c.slli64	zero
     97e:	0501                	addi	a0,a0,0
     980:	032a                	slli	t1,t1,0xa
     982:	097c                	addi	a5,sp,156
     984:	0002                	c.slli64	zero
     986:	0501                	addi	a0,a0,0
     988:	0610                	addi	a2,sp,768
     98a:	00090003          	lb	zero,0(s2)
     98e:	0100                	addi	s0,sp,128
     990:	2a05                	addiw	s4,s4,1
     992:	04090003          	lb	zero,64(s2)
     996:	0100                	addi	s0,sp,128
     998:	0505                	addi	a0,a0,1
     99a:	0306                	slli	t1,t1,0x1
     99c:	0906                	slli	s2,s2,0x1
     99e:	0004                	.insn	2, 0x0004
     9a0:	0501                	addi	a0,a0,0
     9a2:	0612                	slli	a2,a2,0x4
     9a4:	00090a03          	lb	s4,0(s2)
     9a8:	0100                	addi	s0,sp,128
     9aa:	0805                	addi	a6,a6,1
     9ac:	04097603          	.insn	4, 0x04097603
     9b0:	0100                	addi	s0,sp,128
     9b2:	0505                	addi	a0,a0,1
     9b4:	0306                	slli	t1,t1,0x1
     9b6:	00040903          	lb	s2,0(s0)
     9ba:	0301                	addi	t1,t1,0
     9bc:	0901                	addi	s2,s2,0
     9be:	0000                	unimp
     9c0:	0301                	addi	t1,t1,0
     9c2:	0901                	addi	s2,s2,0
     9c4:	0000                	unimp
     9c6:	0301                	addi	t1,t1,0
     9c8:	0901                	addi	s2,s2,0
     9ca:	0000                	unimp
     9cc:	0301                	addi	t1,t1,0
     9ce:	0901                	addi	s2,s2,0
     9d0:	0000                	unimp
     9d2:	0301                	addi	t1,t1,0
     9d4:	0901                	addi	s2,s2,0
     9d6:	0000                	unimp
     9d8:	0501                	addi	a0,a0,0
     9da:	7e03060f          	.insn	4, 0x7e03060f
     9de:	0009                	c.nop	2
     9e0:	0100                	addi	s0,sp,128
     9e2:	0805                	addi	a6,a6,1
     9e4:	02097a03          	.insn	4, 0x02097a03
     9e8:	0100                	addi	s0,sp,128
     9ea:	0b05                	addi	s6,s6,1
     9ec:	02090503          	lb	a0,32(s2)
     9f0:	0100                	addi	s0,sp,128
     9f2:	0a05                	addi	s4,s4,1
     9f4:	02097f03          	.insn	4, 0x02097f03
     9f8:	0100                	addi	s0,sp,128
     9fa:	0b05                	addi	s6,s6,1
     9fc:	04090303          	lb	t1,64(s2)
     a00:	0100                	addi	s0,sp,128
     a02:	0505                	addi	a0,a0,1
     a04:	0306                	slli	t1,t1,0x1
     a06:	00020903          	lb	s2,0(tp) # 0 <_start-0x80000000>
     a0a:	0501                	addi	a0,a0,0
     a0c:	00030613          	mv	a2,t1
     a10:	0809                	addi	a6,a6,2
     a12:	0100                	addi	s0,sp,128
     a14:	0505                	addi	a0,a0,1
     a16:	04090003          	lb	zero,64(s2)
     a1a:	0100                	addi	s0,sp,128
     a1c:	0105                	addi	sp,sp,1
     a1e:	0900fb03          	.insn	4, 0x0900fb03
     a22:	000e                	c.slli	zero,0x3
     a24:	0501                	addi	a0,a0,0
     a26:	8e030607          	.insn	4, 0x8e030607
     a2a:	097f 001c 0301 0901 	.insn	10, 0x09010301001c097f
     a32:	0000 
     a34:	0501                	addi	a0,a0,0
     a36:	060c                	addi	a1,sp,768
     a38:	00097f03          	.insn	4, 0x00097f03
     a3c:	0100                	addi	s0,sp,128
     a3e:	0705                	addi	a4,a4,1
     a40:	02090103          	lb	sp,32(s2)
     a44:	0100                	addi	s0,sp,128
     a46:	1305                	addi	t1,t1,-31
     a48:	04097603          	.insn	4, 0x04097603
     a4c:	0100                	addi	s0,sp,128
     a4e:	0505                	addi	a0,a0,1
     a50:	0306                	slli	t1,t1,0x1
     a52:	0900                	addi	s0,sp,144
     a54:	0002                	c.slli64	zero
     a56:	0501                	addi	a0,a0,0
     a58:	00030613          	mv	a2,t1
     a5c:	0009                	c.nop	2
     a5e:	0100                	addi	s0,sp,128
     a60:	0505                	addi	a0,a0,1
     a62:	04090003          	lb	zero,64(s2)
     a66:	0100                	addi	s0,sp,128
     a68:	0705                	addi	a4,a4,1
     a6a:	0306                	slli	t1,t1,0x1
     a6c:	00f6                	slli	ra,ra,0x1d
     a6e:	0c09                	addi	s8,s8,2
     a70:	0100                	addi	s0,sp,128
     a72:	08090103          	lb	sp,128(s2)
     a76:	0100                	addi	s0,sp,128
     a78:	00090103          	lb	sp,0(s2)
     a7c:	0100                	addi	s0,sp,128
     a7e:	0b05                	addi	s6,s6,1
     a80:	0306                	slli	t1,t1,0x1
     a82:	097f 0000 0501 0307 	.insn	10, 0x0901030705010000097f
     a8a:	0901 
     a8c:	0002                	c.slli64	zero
     a8e:	0501                	addi	a0,a0,0
     a90:	0609                	addi	a2,a2,2
     a92:	097f9f03          	lh	t5,151(t6)
     a96:	0002                	c.slli64	zero
     a98:	0501                	addi	a0,a0,0
     a9a:	00030613          	mv	a2,t1
     a9e:	0009                	c.nop	2
     aa0:	0100                	addi	s0,sp,128
     aa2:	0905                	addi	s2,s2,1
     aa4:	0306                	slli	t1,t1,0x1
     aa6:	0901                	addi	s2,s2,0
     aa8:	0004                	.insn	2, 0x0004
     aaa:	0501                	addi	a0,a0,0
     aac:	060e                	slli	a2,a2,0x3
     aae:	00090003          	lb	zero,0(s2)
     ab2:	0100                	addi	s0,sp,128
     ab4:	0c05                	addi	s8,s8,1
     ab6:	04090103          	lb	sp,64(s2)
     aba:	0100                	addi	s0,sp,128
     abc:	1305                	addi	t1,t1,-31
     abe:	02096703          	lwu	a4,32(s2)
     ac2:	0100                	addi	s0,sp,128
     ac4:	1605                	addi	a2,a2,-31
     ac6:	02091903          	lh	s2,32(s2)
     aca:	0100                	addi	s0,sp,128
     acc:	0c05                	addi	s8,s8,1
     ace:	04097f03          	.insn	4, 0x04097f03
     ad2:	0100                	addi	s0,sp,128
     ad4:	0905                	addi	s2,s2,1
     ad6:	0306                	slli	t1,t1,0x1
     ad8:	0901                	addi	s2,s2,0
     ada:	0004                	.insn	2, 0x0004
     adc:	0501                	addi	a0,a0,0
     ade:	060c                	addi	a1,sp,768
     ae0:	00090003          	lb	zero,0(s2)
     ae4:	0100                	addi	s0,sp,128
     ae6:	1d05                	addi	s10,s10,-31
     ae8:	0306                	slli	t1,t1,0x1
     aea:	097d                	addi	s2,s2,31
     aec:	0004                	.insn	2, 0x0004
     aee:	0501                	addi	a0,a0,0
     af0:	061f 0103 0009      	.insn	6, 0x00090103061f
     af6:	0100                	addi	s0,sp,128
     af8:	0e05                	addi	t3,t3,1 # 1a001 <_start-0x7ffe5fff>
     afa:	04090103          	lb	sp,64(s2)
     afe:	0100                	addi	s0,sp,128
     b00:	1f05                	addi	t5,t5,-31
     b02:	04097f03          	.insn	4, 0x04097f03
     b06:	0100                	addi	s0,sp,128
     b08:	2405                	addiw	s0,s0,1
     b0a:	08090003          	lb	zero,128(s2)
     b0e:	0100                	addi	s0,sp,128
     b10:	1605                	addi	a2,a2,-31
     b12:	02090203          	lb	tp,32(s2)
     b16:	0100                	addi	s0,sp,128
     b18:	1d05                	addi	s10,s10,-31
     b1a:	04097d03          	.insn	4, 0x04097d03
     b1e:	0100                	addi	s0,sp,128
     b20:	0705                	addi	a4,a4,1
     b22:	0306                	slli	t1,t1,0x1
     b24:	0900                	addi	s0,sp,144
     b26:	0002                	c.slli64	zero
     b28:	0501                	addi	a0,a0,0
     b2a:	0309                	addi	t1,t1,2
     b2c:	0901                	addi	s2,s2,0
     b2e:	0000                	unimp
     b30:	0501                	addi	a0,a0,0
     b32:	00030613          	mv	a2,t1
     b36:	0009                	c.nop	2
     b38:	0100                	addi	s0,sp,128
     b3a:	0905                	addi	s2,s2,1
     b3c:	0306                	slli	t1,t1,0x1
     b3e:	0901                	addi	s2,s2,0
     b40:	0004                	.insn	2, 0x0004
     b42:	0501                	addi	a0,a0,0
     b44:	060c                	addi	a1,sp,768
     b46:	00090003          	lb	zero,0(s2)
     b4a:	0100                	addi	s0,sp,128
     b4c:	0905                	addi	s2,s2,1
     b4e:	0306                	slli	t1,t1,0x1
     b50:	0901                	addi	s2,s2,0
     b52:	0004                	.insn	2, 0x0004
     b54:	0501                	addi	a0,a0,0
     b56:	060c                	addi	a1,sp,768
     b58:	00090003          	lb	zero,0(s2)
     b5c:	0100                	addi	s0,sp,128
     b5e:	0705                	addi	a4,a4,1
     b60:	0306                	slli	t1,t1,0x1
     b62:	00040913          	mv	s2,s0
     b66:	0501                	addi	a0,a0,0
     b68:	060a                	slli	a2,a2,0x2
     b6a:	00090003          	lb	zero,0(s2)
     b6e:	0100                	addi	s0,sp,128
     b70:	0f05                	addi	t5,t5,1
     b72:	04090103          	lb	sp,64(s2)
     b76:	0100                	addi	s0,sp,128
     b78:	2605                	addiw	a2,a2,1
     b7a:	02090003          	lb	zero,32(s2)
     b7e:	0100                	addi	s0,sp,128
     b80:	0705                	addi	a4,a4,1
     b82:	0306                	slli	t1,t1,0x1
     b84:	0004097b          	.insn	4, 0x0004097b
     b88:	0301                	addi	t1,t1,0
     b8a:	0901                	addi	s2,s2,0
     b8c:	0000                	unimp
     b8e:	0501                	addi	a0,a0,0
     b90:	060e                	slli	a2,a2,0x3
     b92:	00096f03          	lwu	t5,0(s2)
     b96:	0100                	addi	s0,sp,128
     b98:	1305                	addi	t1,t1,-31
     b9a:	04096803          	lwu	a6,64(s2)
     b9e:	0100                	addi	s0,sp,128
     ba0:	0705                	addi	a4,a4,1
     ba2:	02092903          	lw	s2,32(s2)
     ba6:	0100                	addi	s0,sp,128
     ba8:	0306                	slli	t1,t1,0x1
     baa:	00c8                	addi	a0,sp,68
     bac:	0209                	addi	tp,tp,2 # 2 <_start-0x7ffffffe>
     bae:	0100                	addi	s0,sp,128
     bb0:	08090103          	lb	sp,128(s2)
     bb4:	0100                	addi	s0,sp,128
     bb6:	097fad03          	lw	s10,151(t6)
     bba:	0002                	c.slli64	zero
     bbc:	0501                	addi	a0,a0,0
     bbe:	060e                	slli	a2,a2,0x3
     bc0:	00097903          	.insn	4, 0x00097903
     bc4:	0100                	addi	s0,sp,128
     bc6:	1105                	addi	sp,sp,-31
     bc8:	04090703          	lb	a4,64(s2)
     bcc:	0100                	addi	s0,sp,128
     bce:	0705                	addi	a4,a4,1
     bd0:	0306                	slli	t1,t1,0x1
     bd2:	0901                	addi	s2,s2,0
     bd4:	0004                	.insn	2, 0x0004
     bd6:	0501                	addi	a0,a0,0
     bd8:	60030613          	addi	a2,t1,1536
     bdc:	0009                	c.nop	2
     bde:	0100                	addi	s0,sp,128
     be0:	1105                	addi	sp,sp,-31
     be2:	02091f03          	lh	t5,32(s2)
     be6:	0100                	addi	s0,sp,128
     be8:	0705                	addi	a4,a4,1
     bea:	02090103          	lb	sp,32(s2)
     bee:	0100                	addi	s0,sp,128
     bf0:	0900c203          	lbu	tp,144(ra)
     bf4:	0002                	c.slli64	zero
     bf6:	0601                	addi	a2,a2,0
     bf8:	08097e03          	.insn	4, 0x08097e03
     bfc:	0100                	addi	s0,sp,128
     bfe:	00090003          	lb	zero,0(s2)
     c02:	0100                	addi	s0,sp,128
     c04:	3305                	addiw	t1,t1,-31
     c06:	00090003          	lb	zero,0(s2)
     c0a:	0100                	addi	s0,sp,128
     c0c:	0705                	addi	a4,a4,1
     c0e:	00090103          	lb	sp,0(s2)
     c12:	0100                	addi	s0,sp,128
     c14:	00090103          	lb	sp,0(s2)
     c18:	0100                	addi	s0,sp,128
     c1a:	02090103          	lb	sp,32(s2)
     c1e:	0100                	addi	s0,sp,128
     c20:	08090503          	lb	a0,128(s2)
     c24:	0100                	addi	s0,sp,128
     c26:	00090203          	lb	tp,0(s2)
     c2a:	0100                	addi	s0,sp,128
     c2c:	0305                	addi	t1,t1,1
     c2e:	097eea03          	lwu	s4,151(t4)
     c32:	0000                	unimp
     c34:	0501                	addi	a0,a0,0
     c36:	0308                	addi	a0,sp,384
     c38:	0902                	c.slli64	s2
     c3a:	0000                	unimp
     c3c:	0501                	addi	a0,a0,0
     c3e:	8d030607          	.insn	4, 0x8d030607
     c42:	0901                	addi	s2,s2,0
     c44:	0004                	.insn	2, 0x0004
     c46:	0501                	addi	a0,a0,0
     c48:	0605                	addi	a2,a2,1
     c4a:	097ef403          	.insn	4, 0x097ef403
     c4e:	0002                	c.slli64	zero
     c50:	0501                	addi	a0,a0,0
     c52:	060c                	addi	a1,sp,768
     c54:	00090003          	lb	zero,0(s2)
     c58:	0100                	addi	s0,sp,128
     c5a:	0705                	addi	a4,a4,1
     c5c:	0306                	slli	t1,t1,0x1
     c5e:	0195                	addi	gp,gp,5 # 8000184d <__global_pointer$+0x5>
     c60:	0609                	addi	a2,a2,2
     c62:	0100                	addi	s0,sp,128
     c64:	1705                	addi	a4,a4,-31
     c66:	0306                	slli	t1,t1,0x1
     c68:	7ed9                	lui	t4,0xffff6
     c6a:	0009                	c.nop	2
     c6c:	0100                	addi	s0,sp,128
     c6e:	0705                	addi	a4,a4,1
     c70:	0901a703          	lw	a4,144(gp) # 800018d8 <__global_pointer$+0x90>
     c74:	0004                	.insn	2, 0x0004
     c76:	0501                	addi	a0,a0,0
     c78:	d4030603          	lb	a2,-704(t1)
     c7c:	097e                	slli	s2,s2,0x1f
     c7e:	0004                	.insn	2, 0x0004
     c80:	0301                	addi	t1,t1,0
     c82:	0901                	addi	s2,s2,0
     c84:	0000                	unimp
     c86:	0301                	addi	t1,t1,0
     c88:	0902                	c.slli64	s2
     c8a:	0000                	unimp
     c8c:	0501                	addi	a0,a0,0
     c8e:	0305                	addi	t1,t1,1
     c90:	0902                	c.slli64	s2
     c92:	0000                	unimp
     c94:	0501                	addi	a0,a0,0
     c96:	060d                	addi	a2,a2,3
     c98:	02090003          	lb	zero,32(s2)
     c9c:	0100                	addi	s0,sp,128
     c9e:	1105                	addi	sp,sp,-31
     ca0:	02090003          	lb	zero,32(s2)
     ca4:	0100                	addi	s0,sp,128
     ca6:	0505                	addi	a0,a0,1
     ca8:	0306                	slli	t1,t1,0x1
     caa:	0901                	addi	s2,s2,0
     cac:	0002                	c.slli64	zero
     cae:	0501                	addi	a0,a0,0
     cb0:	0608                	addi	a0,sp,768
     cb2:	00090003          	lb	zero,0(s2)
     cb6:	0100                	addi	s0,sp,128
     cb8:	0505                	addi	a0,a0,1
     cba:	0306                	slli	t1,t1,0x1
     cbc:	0902                	c.slli64	s2
     cbe:	0004                	.insn	2, 0x0004
     cc0:	0501                	addi	a0,a0,0
     cc2:	0609                	addi	a2,a2,2
     cc4:	00090003          	lb	zero,0(s2)
     cc8:	0100                	addi	s0,sp,128
     cca:	0306                	slli	t1,t1,0x1
     ccc:	0004097b          	.insn	4, 0x0004097b
     cd0:	0501                	addi	a0,a0,0
     cd2:	09000303          	lb	t1,144(zero) # 90 <_start-0x7fffff70>
     cd6:	0000                	unimp
     cd8:	0501                	addi	a0,a0,0
     cda:	0305                	addi	t1,t1,1
     cdc:	0902                	c.slli64	s2
     cde:	0000                	unimp
     ce0:	0501                	addi	a0,a0,0
     ce2:	0608                	addi	a0,sp,768
     ce4:	02090103          	lb	sp,32(s2)
     ce8:	0100                	addi	s0,sp,128
     cea:	0d05                	addi	s10,s10,1
     cec:	02097f03          	.insn	4, 0x02097f03
     cf0:	0100                	addi	s0,sp,128
     cf2:	1705                	addi	a4,a4,-31
     cf4:	02090003          	lb	zero,32(s2)
     cf8:	0100                	addi	s0,sp,128
     cfa:	1105                	addi	sp,sp,-31
     cfc:	04090003          	lb	zero,64(s2)
     d00:	0100                	addi	s0,sp,128
     d02:	0505                	addi	a0,a0,1
     d04:	0306                	slli	t1,t1,0x1
     d06:	0901                	addi	s2,s2,0
     d08:	0004                	.insn	2, 0x0004
     d0a:	0501                	addi	a0,a0,0
     d0c:	0608                	addi	a0,sp,768
     d0e:	00090003          	lb	zero,0(s2)
     d12:	0100                	addi	s0,sp,128
     d14:	1205                	addi	tp,tp,-31 # ffffffffffffffe1 <__global_pointer$+0xffffffff7fffe799>
     d16:	0306                	slli	t1,t1,0x1
     d18:	0905                	addi	s2,s2,1
     d1a:	0004                	.insn	2, 0x0004
     d1c:	0501                	addi	a0,a0,0
     d1e:	0003060f          	.insn	4, 0x0003060f
     d22:	0009                	c.nop	2
     d24:	0100                	addi	s0,sp,128
     d26:	1205                	addi	tp,tp,-31 # ffffffffffffffe1 <__global_pointer$+0xffffffff7fffe799>
     d28:	08090003          	lb	zero,128(s2)
     d2c:	0100                	addi	s0,sp,128
     d2e:	0505                	addi	a0,a0,1
     d30:	0306                	slli	t1,t1,0x1
     d32:	0901                	addi	s2,s2,0
     d34:	0004                	.insn	2, 0x0004
     d36:	0501                	addi	a0,a0,0
     d38:	7f03060f          	.insn	4, 0x7f03060f
     d3c:	0409                	addi	s0,s0,2
     d3e:	0100                	addi	s0,sp,128
     d40:	0505                	addi	a0,a0,1
     d42:	02090103          	lb	sp,32(s2)
     d46:	0100                	addi	s0,sp,128
     d48:	1205                	addi	tp,tp,-31 # ffffffffffffffe1 <__global_pointer$+0xffffffff7fffe799>
     d4a:	0306                	slli	t1,t1,0x1
     d4c:	097f 0002 0501 0310 	.insn	10, 0x0903031005010002097f
     d54:	0903 
     d56:	0004                	.insn	2, 0x0004
     d58:	0501                	addi	a0,a0,0
     d5a:	01030633          	add	a2,t1,a6
     d5e:	0a09                	addi	s4,s4,2
     d60:	0100                	addi	s0,sp,128
     d62:	0505                	addi	a0,a0,1
     d64:	0306                	slli	t1,t1,0x1
     d66:	0900                	addi	s0,sp,144
     d68:	0002                	c.slli64	zero
     d6a:	0501                	addi	a0,a0,0
     d6c:	0003060f          	.insn	4, 0x0003060f
     d70:	0009                	c.nop	2
     d72:	0100                	addi	s0,sp,128
     d74:	3305                	addiw	t1,t1,-31
     d76:	0200                	addi	s0,sp,256
     d78:	0204                	addi	s1,sp,256
     d7a:	04090003          	lb	zero,64(s2)
     d7e:	0100                	addi	s0,sp,128
     d80:	04090003          	lb	zero,64(s2)
     d84:	0100                	addi	s0,sp,128
     d86:	0200                	addi	s0,sp,256
     d88:	0104                	addi	s1,sp,128
     d8a:	04090003          	lb	zero,64(s2)
     d8e:	0100                	addi	s0,sp,128
     d90:	0505                	addi	a0,a0,1
     d92:	0200                	addi	s0,sp,256
     d94:	0404                	addi	s1,sp,512
     d96:	04090003          	lb	zero,64(s2)
     d9a:	0100                	addi	s0,sp,128
     d9c:	1005                	c.nop	-31
     d9e:	04097f03          	.insn	4, 0x04097f03
     da2:	0100                	addi	s0,sp,128
     da4:	0505                	addi	a0,a0,1
     da6:	0200                	addi	s0,sp,256
     da8:	0404                	addi	s1,sp,512
     daa:	02090103          	lb	sp,32(s2)
     dae:	0100                	addi	s0,sp,128
     db0:	1005                	c.nop	-31
     db2:	0306                	slli	t1,t1,0x1
     db4:	097f 0002 0501 060e 	.insn	10, 0xee03060e05010002097f
     dbc:	ee03 
     dbe:	0900                	addi	s0,sp,144
     dc0:	0004                	.insn	2, 0x0004
     dc2:	0501                	addi	a0,a0,0
     dc4:	0f030607          	.insn	4, 0x0f030607
     dc8:	0609                	addi	a2,a2,2
     dca:	0100                	addi	s0,sp,128
     dcc:	0305                	addi	t1,t1,1
     dce:	097f9303          	lh	t1,151(t6)
     dd2:	0000                	unimp
     dd4:	0501                	addi	a0,a0,0
     dd6:	0606                	slli	a2,a2,0x1
     dd8:	00090003          	lb	zero,0(s2)
     ddc:	0100                	addi	s0,sp,128
     dde:	1105                	addi	sp,sp,-31
     de0:	0900c103          	lbu	sp,144(ra)
     de4:	0002                	c.slli64	zero
     de6:	0501                	addi	a0,a0,0
     de8:	0306                	slli	t1,t1,0x1
     dea:	04097fbf 08050100 	.insn	8, 0x0805010004097fbf
     df2:	0306                	slli	t1,t1,0x1
     df4:	0902                	c.slli64	s2
     df6:	0004                	.insn	2, 0x0004
     df8:	0501                	addi	a0,a0,0
     dfa:	0003060b          	.insn	4, 0x0003060b
     dfe:	0009                	c.nop	2
     e00:	0100                	addi	s0,sp,128
     e02:	0505                	addi	a0,a0,1
     e04:	0306                	slli	t1,t1,0x1
     e06:	0901                	addi	s2,s2,0
     e08:	0004                	.insn	2, 0x0004
     e0a:	0501                	addi	a0,a0,0
     e0c:	060c                	addi	a1,sp,768
     e0e:	00090003          	lb	zero,0(s2)
     e12:	0100                	addi	s0,sp,128
     e14:	0705                	addi	a4,a4,1
     e16:	0306                	slli	t1,t1,0x1
     e18:	040900eb          	.insn	4, 0x040900eb
     e1c:	0100                	addi	s0,sp,128
     e1e:	0a05                	addi	s4,s4,1
     e20:	0306                	slli	t1,t1,0x1
     e22:	0900                	addi	s0,sp,144
     e24:	0000                	unimp
     e26:	0501                	addi	a0,a0,0
     e28:	0402000b          	.insn	4, 0x0402000b
     e2c:	0301                	addi	t1,t1,0
     e2e:	097f 0004 0501 0607 	.insn	10, 0x6703060705010004097f
     e36:	6703 
     e38:	0809                	addi	a6,a6,2
     e3a:	0100                	addi	s0,sp,128
     e3c:	0e05                	addi	t3,t3,1
     e3e:	0306                	slli	t1,t1,0x1
     e40:	0966                	slli	s2,s2,0x19
     e42:	0000                	unimp
     e44:	0501                	addi	a0,a0,0
     e46:	030c                	addi	a1,sp,384
     e48:	091a                	slli	s2,s2,0x6
     e4a:	0004                	.insn	2, 0x0004
     e4c:	0501                	addi	a0,a0,0
     e4e:	01030607          	.insn	4, 0x01030607
     e52:	0209                	addi	tp,tp,2 # 2 <_start-0x7ffffffe>
     e54:	0100                	addi	s0,sp,128
     e56:	1305                	addi	t1,t1,-31
     e58:	0306                	slli	t1,t1,0x1
     e5a:	094d                	addi	s2,s2,19
     e5c:	0000                	unimp
     e5e:	0501                	addi	a0,a0,0
     e60:	09330307          	.insn	4, 0x09330307
     e64:	0002                	c.slli64	zero
     e66:	0501                	addi	a0,a0,0
     e68:	0305                	addi	t1,t1,1
     e6a:	094d                	addi	s2,s2,19
     e6c:	0004                	.insn	2, 0x0004
     e6e:	0501                	addi	a0,a0,0
     e70:	ea030607          	.insn	4, 0xea030607
     e74:	0900                	addi	s0,sp,144
     e76:	0002                	c.slli64	zero
     e78:	0501                	addi	a0,a0,0
     e7a:	7eea0303          	lb	t1,2030(s4)
     e7e:	0009                	c.nop	2
     e80:	0100                	addi	s0,sp,128
     e82:	0605                	addi	a2,a2,1
     e84:	0306                	slli	t1,t1,0x1
     e86:	0900                	addi	s0,sp,144
     e88:	0000                	unimp
     e8a:	0501                	addi	a0,a0,0
     e8c:	0311                	addi	t1,t1,4
     e8e:	020900cb          	fnmsub.d	ft1,fs2,ft0,ft0,rne
     e92:	0100                	addi	s0,sp,128
     e94:	0605                	addi	a2,a2,1
     e96:	097fb503          	ld	a0,151(t6)
     e9a:	0004                	.insn	2, 0x0004
     e9c:	0501                	addi	a0,a0,0
     e9e:	0608                	addi	a0,sp,768
     ea0:	04090203          	lb	tp,64(s2)
     ea4:	0100                	addi	s0,sp,128
     ea6:	0b05                	addi	s6,s6,1
     ea8:	0306                	slli	t1,t1,0x1
     eaa:	0900                	addi	s0,sp,144
     eac:	0000                	unimp
     eae:	0501                	addi	a0,a0,0
     eb0:	0605                	addi	a2,a2,1
     eb2:	02090303          	lb	t1,32(s2)
     eb6:	0100                	addi	s0,sp,128
     eb8:	0c05                	addi	s8,s8,1
     eba:	0200                	addi	s0,sp,256
     ebc:	0104                	addi	s1,sp,128
     ebe:	0306                	slli	t1,t1,0x1
     ec0:	0900                	addi	s0,sp,144
     ec2:	0000                	unimp
     ec4:	0301                	addi	t1,t1,0
     ec6:	0900                	addi	s0,sp,144
     ec8:	0004                	.insn	2, 0x0004
     eca:	0501                	addi	a0,a0,0
     ecc:	e3030607          	.insn	4, 0xe3030607
     ed0:	0900                	addi	s0,sp,144
     ed2:	0006                	c.slli	zero,0x1
     ed4:	0501                	addi	a0,a0,0
     ed6:	060e                	slli	a2,a2,0x3
     ed8:	00090003          	lb	zero,0(s2)
     edc:	0100                	addi	s0,sp,128
     ede:	0a05                	addi	s4,s4,1
     ee0:	0200                	addi	s0,sp,256
     ee2:	0104                	addi	s1,sp,128
     ee4:	04090003          	lb	zero,64(s2)
     ee8:	0100                	addi	s0,sp,128
     eea:	0705                	addi	a4,a4,1
     eec:	0306                	slli	t1,t1,0x1
     eee:	0902                	c.slli64	s2
     ef0:	0004                	.insn	2, 0x0004
     ef2:	0501                	addi	a0,a0,0
     ef4:	060a                	slli	a2,a2,0x2
     ef6:	00090003          	lb	zero,0(s2)
     efa:	0100                	addi	s0,sp,128
     efc:	1505                	addi	a0,a0,-31
     efe:	0200                	addi	s0,sp,256
     f00:	0104                	addi	s1,sp,128
     f02:	04090003          	lb	zero,64(s2)
     f06:	0100                	addi	s0,sp,128
     f08:	2005                	.insn	2, 0x2005
     f0a:	0200                	addi	s0,sp,256
     f0c:	0104                	addi	s1,sp,128
     f0e:	0306                	slli	t1,t1,0x1
     f10:	00080903          	lb	s2,0(a6)
     f14:	0501                	addi	a0,a0,0
     f16:	0012                	c.slli	zero,0x4
     f18:	0402                	c.slli64	s0
     f1a:	0601                	addi	a2,a2,0
     f1c:	00090003          	lb	zero,0(s2)
     f20:	0100                	addi	s0,sp,128
     f22:	2005                	.insn	2, 0x2005
     f24:	0200                	addi	s0,sp,256
     f26:	0104                	addi	s1,sp,128
     f28:	04090003          	lb	zero,64(s2)
     f2c:	0100                	addi	s0,sp,128
     f2e:	3205                	addiw	tp,tp,-31 # ffffffffffffffe1 <__global_pointer$+0xffffffff7fffe799>
     f30:	0200                	addi	s0,sp,256
     f32:	0404                	addi	s1,sp,512
     f34:	02090003          	lb	zero,32(s2)
     f38:	0100                	addi	s0,sp,128
     f3a:	2005                	.insn	2, 0x2005
     f3c:	0200                	addi	s0,sp,256
     f3e:	0204                	addi	s1,sp,256
     f40:	02090003          	lb	zero,32(s2)
     f44:	0100                	addi	s0,sp,128
     f46:	3205                	addiw	tp,tp,-31 # ffffffffffffffe1 <__global_pointer$+0xffffffff7fffe799>
     f48:	0200                	addi	s0,sp,256
     f4a:	0404                	addi	s1,sp,512
     f4c:	04090003          	lb	zero,64(s2)
     f50:	0100                	addi	s0,sp,128
     f52:	0905                	addi	s2,s2,1
     f54:	0306                	slli	t1,t1,0x1
     f56:	0901                	addi	s2,s2,0
     f58:	0006                	c.slli	zero,0x1
     f5a:	0301                	addi	t1,t1,0
     f5c:	0901                	addi	s2,s2,0
     f5e:	0004                	.insn	2, 0x0004
     f60:	0501                	addi	a0,a0,0
     f62:	0012                	c.slli	zero,0x4
     f64:	0402                	c.slli64	s0
     f66:	0601                	addi	a2,a2,0
     f68:	00097e03          	.insn	4, 0x00097e03
     f6c:	0100                	addi	s0,sp,128
     f6e:	0a05                	addi	s4,s4,1
     f70:	04090203          	lb	tp,64(s2)
     f74:	0100                	addi	s0,sp,128
     f76:	4d05                	li	s10,1
     f78:	0200                	addi	s0,sp,256
     f7a:	0504                	addi	s1,sp,640
     f7c:	0306                	slli	t1,t1,0x1
     f7e:	097e                	slli	s2,s2,0x1f
     f80:	0002                	c.slli64	zero
     f82:	0501                	addi	a0,a0,0
     f84:	0020                	addi	s0,sp,8
     f86:	0402                	c.slli64	s0
     f88:	0301                	addi	t1,t1,0
     f8a:	0900                	addi	s0,sp,144
     f8c:	0002                	c.slli64	zero
     f8e:	0501                	addi	a0,a0,0
     f90:	0014                	.insn	2, 0x0014
     f92:	0402                	c.slli64	s0
     f94:	0301                	addi	t1,t1,0
     f96:	0904                	addi	s1,sp,144
     f98:	0002                	c.slli64	zero
     f9a:	0501                	addi	a0,a0,0
     f9c:	0309                	addi	t1,t1,2
     f9e:	0901                	addi	s2,s2,0
     fa0:	0004                	.insn	2, 0x0004
     fa2:	0501                	addi	a0,a0,0
     fa4:	001e                	c.slli	zero,0x7
     fa6:	0402                	c.slli64	s0
     fa8:	0602                	c.slli64	a2
     faa:	06097f03          	.insn	4, 0x06097f03
     fae:	0100                	addi	s0,sp,128
     fb0:	0905                	addi	s2,s2,1
     fb2:	02090103          	lb	sp,32(s2)
     fb6:	0100                	addi	s0,sp,128
     fb8:	1e05                	addi	t3,t3,-31
     fba:	0200                	addi	s0,sp,256
     fbc:	0204                	addi	s1,sp,256
     fbe:	0306                	slli	t1,t1,0x1
     fc0:	097f 0002 0501 0014 	.insn	10, 0x0402001405010002097f
     fc8:	0402 
     fca:	0301                	addi	t1,t1,0
     fcc:	0900                	addi	s0,sp,144
     fce:	0000                	unimp
     fd0:	0501                	addi	a0,a0,0
     fd2:	060e                	slli	a2,a2,0x3
     fd4:	04097703          	.insn	4, 0x04097703
     fd8:	0100                	addi	s0,sp,128
     fda:	0905                	addi	s2,s2,1
     fdc:	0306                	slli	t1,t1,0x1
     fde:	0901                	addi	s2,s2,0
     fe0:	0006                	c.slli	zero,0x1
     fe2:	0501                	addi	a0,a0,0
     fe4:	09010307          	.insn	4, 0x09010307
     fe8:	0000                	unimp
     fea:	0501                	addi	a0,a0,0
     fec:	7f03060b          	.insn	4, 0x7f03060b
     ff0:	0009                	c.nop	2
     ff2:	0100                	addi	s0,sp,128
     ff4:	1205                	addi	tp,tp,-31 # ffffffffffffffe1 <__global_pointer$+0xffffffff7fffe799>
     ff6:	0200                	addi	s0,sp,256
     ff8:	0104                	addi	s1,sp,128
     ffa:	08090403          	lb	s0,128(s2)
     ffe:	0100                	addi	s0,sp,128
    1000:	0a05                	addi	s4,s4,1
    1002:	04097d03          	.insn	4, 0x04097d03
    1006:	0100                	addi	s0,sp,128
    1008:	1505                	addi	a0,a0,-31
    100a:	0200                	addi	s0,sp,256
    100c:	0104                	addi	s1,sp,128
    100e:	04090003          	lb	zero,64(s2)
    1012:	0100                	addi	s0,sp,128
    1014:	0b05                	addi	s6,s6,1
    1016:	04097f03          	.insn	4, 0x04097f03
    101a:	0100                	addi	s0,sp,128
    101c:	1205                	addi	tp,tp,-31 # ffffffffffffffe1 <__global_pointer$+0xffffffff7fffe799>
    101e:	0200                	addi	s0,sp,256
    1020:	0104                	addi	s1,sp,128
    1022:	08090403          	lb	s0,128(s2)
    1026:	0100                	addi	s0,sp,128
    1028:	1505                	addi	a0,a0,-31
    102a:	0200                	addi	s0,sp,256
    102c:	0104                	addi	s1,sp,128
    102e:	04097d03          	.insn	4, 0x04097d03
    1032:	0100                	addi	s0,sp,128
    1034:	0905                	addi	s2,s2,1
    1036:	0306                	slli	t1,t1,0x1
    1038:	0901                	addi	s2,s2,0
    103a:	0004                	.insn	2, 0x0004
    103c:	0501                	addi	a0,a0,0
    103e:	018a0303          	lb	t1,24(s4)
    1042:	0009                	c.nop	2
    1044:	0100                	addi	s0,sp,128
    1046:	00090103          	lb	sp,0(s2)
    104a:	0100                	addi	s0,sp,128
    104c:	0e05                	addi	t3,t3,1
    104e:	00090003          	lb	zero,0(s2)
    1052:	0100                	addi	s0,sp,128
    1054:	0f05                	addi	t5,t5,1
    1056:	0306                	slli	t1,t1,0x1
    1058:	097f 0000 0501 030e 	.insn	10, 0x0901030e05010000097f
    1060:	0901 
    1062:	0002                	c.slli64	zero
    1064:	0501                	addi	a0,a0,0
    1066:	0605                	addi	a2,a2,1
    1068:	0a090103          	lb	sp,160(s2)
    106c:	0100                	addi	s0,sp,128
    106e:	0605                	addi	a2,a2,1
    1070:	0306                	slli	t1,t1,0x1
    1072:	0900                	addi	s0,sp,144
    1074:	0000                	unimp
    1076:	0501                	addi	a0,a0,0
    1078:	060e                	slli	a2,a2,0x3
    107a:	02097f03          	.insn	4, 0x02097f03
    107e:	0100                	addi	s0,sp,128
    1080:	0200                	addi	s0,sp,256
    1082:	0104                	addi	s1,sp,128
    1084:	0306                	slli	t1,t1,0x1
    1086:	0900                	addi	s0,sp,144
    1088:	0004                	.insn	2, 0x0004
    108a:	0501                	addi	a0,a0,0
    108c:	030c                	addi	a1,sp,384
    108e:	0902                	c.slli64	s2
    1090:	0006                	c.slli	zero,0x1
    1092:	0501                	addi	a0,a0,0
    1094:	0014                	.insn	2, 0x0014
    1096:	0402                	c.slli64	s0
    1098:	0301                	addi	t1,t1,0
    109a:	04097ef3          	csrrci	t4,uscratch,18
    109e:	0100                	addi	s0,sp,128
    10a0:	0305                	addi	t1,t1,1
    10a2:	0306                	slli	t1,t1,0x1
    10a4:	018d                	addi	gp,gp,3 # 8000184b <__global_pointer$+0x3>
    10a6:	0409                	addi	s0,s0,2
    10a8:	0100                	addi	s0,sp,128
    10aa:	3405                	addiw	s0,s0,-31
    10ac:	0200                	addi	s0,sp,256
    10ae:	0104                	addi	s1,sp,128
    10b0:	097ef303          	.insn	4, 0x097ef303
    10b4:	0000                	unimp
    10b6:	0501                	addi	a0,a0,0
    10b8:	0103060b          	.insn	4, 0x0103060b
    10bc:	0409                	addi	s0,s0,2
    10be:	0100                	addi	s0,sp,128
    10c0:	0306                	slli	t1,t1,0x1
    10c2:	0900                	addi	s0,sp,144
    10c4:	0002                	c.slli64	zero
    10c6:	0501                	addi	a0,a0,0
    10c8:	003e                	c.slli	zero,0xf
    10ca:	0402                	c.slli64	s0
    10cc:	7f030603          	lb	a2,2032(t1)
    10d0:	0409                	addi	s0,s0,2
    10d2:	0100                	addi	s0,sp,128
    10d4:	0b05                	addi	s6,s6,1
    10d6:	02090103          	lb	sp,32(s2)
    10da:	0100                	addi	s0,sp,128
    10dc:	3e05                	addiw	t3,t3,-31
    10de:	0200                	addi	s0,sp,256
    10e0:	0304                	addi	s1,sp,384
    10e2:	0306                	slli	t1,t1,0x1
    10e4:	097f 0002 0501 0034 	.insn	10, 0x0402003405010002097f
    10ec:	0402 
    10ee:	0301                	addi	t1,t1,0
    10f0:	0900                	addi	s0,sp,144
    10f2:	0000                	unimp
    10f4:	0501                	addi	a0,a0,0
    10f6:	0020                	addi	s0,sp,8
    10f8:	0402                	c.slli64	s0
    10fa:	0301                	addi	t1,t1,0
    10fc:	0902                	c.slli64	s2
    10fe:	0004                	.insn	2, 0x0004
    1100:	0501                	addi	a0,a0,0
    1102:	0012                	c.slli	zero,0x4
    1104:	0402                	c.slli64	s0
    1106:	0601                	addi	a2,a2,0
    1108:	00090003          	lb	zero,0(s2)
    110c:	0100                	addi	s0,sp,128
    110e:	2005                	.insn	2, 0x2005
    1110:	0200                	addi	s0,sp,256
    1112:	0104                	addi	s1,sp,128
    1114:	04090003          	lb	zero,64(s2)
    1118:	0100                	addi	s0,sp,128
    111a:	3205                	addiw	tp,tp,-31 # ffffffffffffffe1 <__global_pointer$+0xffffffff7fffe799>
    111c:	0200                	addi	s0,sp,256
    111e:	0404                	addi	s1,sp,512
    1120:	02090003          	lb	zero,32(s2)
    1124:	0100                	addi	s0,sp,128
    1126:	0705                	addi	a4,a4,1
    1128:	0306                	slli	t1,t1,0x1
    112a:	0962                	slli	s2,s2,0x18
    112c:	0004                	.insn	2, 0x0004
    112e:	0501                	addi	a0,a0,0
    1130:	060a                	slli	a2,a2,0x2
    1132:	00090003          	lb	zero,0(s2)
    1136:	0100                	addi	s0,sp,128
    1138:	0e05                	addi	t3,t3,1
    113a:	08097503          	.insn	4, 0x08097503
    113e:	0100                	addi	s0,sp,128
    1140:	0a05                	addi	s4,s4,1
    1142:	04090b03          	lb	s6,64(s2)
    1146:	0100                	addi	s0,sp,128
    1148:	0705                	addi	a4,a4,1
    114a:	0306                	slli	t1,t1,0x1
    114c:	0902                	c.slli64	s2
    114e:	0004                	.insn	2, 0x0004
    1150:	0501                	addi	a0,a0,0
    1152:	5b030613          	addi	a2,t1,1456
    1156:	0009                	c.nop	2
    1158:	0100                	addi	s0,sp,128
    115a:	0705                	addi	a4,a4,1
    115c:	02092503          	lw	a0,32(s2)
    1160:	0100                	addi	s0,sp,128
    1162:	0306                	slli	t1,t1,0x1
    1164:	0912                	slli	s2,s2,0x4
    1166:	0002                	c.slli64	zero
    1168:	0001                	nop
    116a:	0402                	c.slli64	s0
    116c:	0601                	addi	a2,a2,0
    116e:	00090003          	lb	zero,0(s2)
    1172:	0100                	addi	s0,sp,128
    1174:	06090003          	lb	zero,96(s2)
    1178:	0100                	addi	s0,sp,128
    117a:	0200                	addi	s0,sp,256
    117c:	0104                	addi	s1,sp,128
    117e:	02090003          	lb	zero,32(s2)
    1182:	0100                	addi	s0,sp,128
    1184:	0306                	slli	t1,t1,0x1
    1186:	0901                	addi	s2,s2,0
    1188:	0002                	c.slli64	zero
    118a:	0501                	addi	a0,a0,0
    118c:	0608                	addi	a0,sp,768
    118e:	097f8e03          	lb	t3,151(t6)
    1192:	0002                	c.slli64	zero
    1194:	0501                	addi	a0,a0,0
    1196:	0605                	addi	a2,a2,1
    1198:	04091d03          	lh	s10,64(s2)
    119c:	0100                	addi	s0,sp,128
    119e:	0c05                	addi	s8,s8,1
    11a0:	0200                	addi	s0,sp,256
    11a2:	0104                	addi	s1,sp,128
    11a4:	0306                	slli	t1,t1,0x1
    11a6:	0900                	addi	s0,sp,144
    11a8:	0000                	unimp
    11aa:	0301                	addi	t1,t1,0
    11ac:	0900                	addi	s0,sp,144
    11ae:	0004                	.insn	2, 0x0004
    11b0:	0501                	addi	a0,a0,0
    11b2:	0305                	addi	t1,t1,1
    11b4:	091d                	addi	s2,s2,7
    11b6:	0004                	.insn	2, 0x0004
    11b8:	0301                	addi	t1,t1,0
    11ba:	0900                	addi	s0,sp,144
    11bc:	0006                	c.slli	zero,0x1
    11be:	0501                	addi	a0,a0,0
    11c0:	0609                	addi	a2,a2,2
    11c2:	0900cd03          	lbu	s10,144(ra)
    11c6:	0004                	.insn	2, 0x0004
    11c8:	0301                	addi	t1,t1,0
    11ca:	0901                	addi	s2,s2,0
    11cc:	0008                	.insn	2, 0x0008
    11ce:	0501                	addi	a0,a0,0
    11d0:	0003060f          	.insn	4, 0x0003060f
    11d4:	0009                	c.nop	2
    11d6:	0100                	addi	s0,sp,128
    11d8:	0d05                	addi	s10,s10,1
    11da:	04090003          	lb	zero,64(s2)
    11de:	0100                	addi	s0,sp,128
    11e0:	0305                	addi	t1,t1,1
    11e2:	0306                	slli	t1,t1,0x1
    11e4:	00c1                	addi	ra,ra,16
    11e6:	0609                	addi	a2,a2,2
    11e8:	0100                	addi	s0,sp,128
    11ea:	0505                	addi	a0,a0,1
    11ec:	00090103          	lb	sp,0(s2)
    11f0:	0100                	addi	s0,sp,128
    11f2:	00090103          	lb	sp,0(s2)
    11f6:	0100                	addi	s0,sp,128
    11f8:	0605                	addi	a2,a2,1
    11fa:	0306                	slli	t1,t1,0x1
    11fc:	0900                	addi	s0,sp,144
    11fe:	0000                	unimp
    1200:	0501                	addi	a0,a0,0
    1202:	030c                	addi	a1,sp,384
    1204:	0900                	addi	s0,sp,144
    1206:	0002                	c.slli64	zero
    1208:	0501                	addi	a0,a0,0
    120a:	0605                	addi	a2,a2,1
    120c:	04090103          	lb	sp,64(s2)
    1210:	0100                	addi	s0,sp,128
    1212:	0c05                	addi	s8,s8,1
    1214:	0306                	slli	t1,t1,0x1
    1216:	0900                	addi	s0,sp,144
    1218:	0000                	unimp
    121a:	0501                	addi	a0,a0,0
    121c:	09010303          	lb	t1,144(sp)
    1220:	0006                	c.slli	zero,0x1
    1222:	0501                	addi	a0,a0,0
    1224:	0615                	addi	a2,a2,5
    1226:	097cef03          	lwu	t5,151(s9)
    122a:	0002                	c.slli64	zero
    122c:	0501                	addi	a0,a0,0
    122e:	09010303          	lb	t1,144(sp)
    1232:	0000                	unimp
    1234:	0501                	addi	a0,a0,0
    1236:	0302                	c.slli64	t1
    1238:	0901                	addi	s2,s2,0
    123a:	0000                	unimp
    123c:	0501                	addi	a0,a0,0
    123e:	060c                	addi	a1,sp,768
    1240:	00090003          	lb	zero,0(s2)
    1244:	0100                	addi	s0,sp,128
    1246:	0105                	addi	sp,sp,1
    1248:	0a090103          	lb	sp,160(s2)
    124c:	0100                	addi	s0,sp,128
    124e:	1705                	addi	a4,a4,-31
    1250:	0306                	slli	t1,t1,0x1
    1252:	0902                	c.slli64	s2
    1254:	0002                	c.slli64	zero
    1256:	0501                	addi	a0,a0,0
    1258:	09010303          	lb	t1,144(sp)
    125c:	0000                	unimp
    125e:	0301                	addi	t1,t1,0
    1260:	0901                	addi	s2,s2,0
    1262:	0000                	unimp
    1264:	0501                	addi	a0,a0,0
    1266:	0302                	c.slli64	t1
    1268:	0902                	c.slli64	s2
    126a:	0000                	unimp
    126c:	0501                	addi	a0,a0,0
    126e:	0402000b          	.insn	4, 0x0402000b
    1272:	0601                	addi	a2,a2,0
    1274:	00090003          	lb	zero,0(s2)
    1278:	0100                	addi	s0,sp,128
    127a:	0905                	addi	s2,s2,1
    127c:	0200                	addi	s0,sp,256
    127e:	0104                	addi	s1,sp,128
    1280:	0306                	slli	t1,t1,0x1
    1282:	0900                	addi	s0,sp,144
    1284:	000a                	c.slli	zero,0x2
    1286:	0501                	addi	a0,a0,0
    1288:	0402000b          	.insn	4, 0x0402000b
    128c:	0601                	addi	a2,a2,0
    128e:	00090003          	lb	zero,0(s2)
    1292:	0100                	addi	s0,sp,128
    1294:	0905                	addi	s2,s2,1
    1296:	0200                	addi	s0,sp,256
    1298:	0104                	addi	s1,sp,128
    129a:	04090003          	lb	zero,64(s2)
    129e:	0100                	addi	s0,sp,128
    12a0:	0205                	addi	tp,tp,1 # 1 <_start-0x7fffffff>
    12a2:	0306                	slli	t1,t1,0x1
    12a4:	0901                	addi	s2,s2,0
    12a6:	0006                	c.slli	zero,0x1
    12a8:	0501                	addi	a0,a0,0
    12aa:	060c                	addi	a1,sp,768
    12ac:	00090003          	lb	zero,0(s2)
    12b0:	0100                	addi	s0,sp,128
    12b2:	0105                	addi	sp,sp,1
    12b4:	04090103          	lb	sp,64(s2)
    12b8:	0100                	addi	s0,sp,128
    12ba:	1805                	addi	a6,a6,-31
    12bc:	0306                	slli	t1,t1,0x1
    12be:	0902                	c.slli64	s2
    12c0:	0002                	c.slli64	zero
    12c2:	0501                	addi	a0,a0,0
    12c4:	09010303          	lb	t1,144(sp)
    12c8:	0000                	unimp
    12ca:	0301                	addi	t1,t1,0
    12cc:	0901                	addi	s2,s2,0
    12ce:	0000                	unimp
    12d0:	0501                	addi	a0,a0,0
    12d2:	0302                	c.slli64	t1
    12d4:	0902                	c.slli64	s2
    12d6:	0000                	unimp
    12d8:	0501                	addi	a0,a0,0
    12da:	0402000b          	.insn	4, 0x0402000b
    12de:	0601                	addi	a2,a2,0
    12e0:	00090003          	lb	zero,0(s2)
    12e4:	0100                	addi	s0,sp,128
    12e6:	0905                	addi	s2,s2,1
    12e8:	0200                	addi	s0,sp,256
    12ea:	0104                	addi	s1,sp,128
    12ec:	0306                	slli	t1,t1,0x1
    12ee:	0900                	addi	s0,sp,144
    12f0:	000a                	c.slli	zero,0x2
    12f2:	0501                	addi	a0,a0,0
    12f4:	0402000b          	.insn	4, 0x0402000b
    12f8:	0601                	addi	a2,a2,0
    12fa:	00090003          	lb	zero,0(s2)
    12fe:	0100                	addi	s0,sp,128
    1300:	0905                	addi	s2,s2,1
    1302:	0200                	addi	s0,sp,256
    1304:	0104                	addi	s1,sp,128
    1306:	04090003          	lb	zero,64(s2)
    130a:	0100                	addi	s0,sp,128
    130c:	0205                	addi	tp,tp,1 # 1 <_start-0x7fffffff>
    130e:	0306                	slli	t1,t1,0x1
    1310:	0901                	addi	s2,s2,0
    1312:	0004                	.insn	2, 0x0004
    1314:	0501                	addi	a0,a0,0
    1316:	0609                	addi	a2,a2,2
    1318:	00090003          	lb	zero,0(s2)
    131c:	0100                	addi	s0,sp,128
    131e:	0105                	addi	sp,sp,1
    1320:	04090103          	lb	sp,64(s2)
    1324:	0100                	addi	s0,sp,128
    1326:	2205                	addiw	tp,tp,1 # 1 <_start-0x7fffffff>
    1328:	0306                	slli	t1,t1,0x1
    132a:	0902                	c.slli64	s2
    132c:	0002                	c.slli64	zero
    132e:	0501                	addi	a0,a0,0
    1330:	0305                	addi	t1,t1,1
    1332:	0901                	addi	s2,s2,0
    1334:	0000                	unimp
    1336:	0501                	addi	a0,a0,0
    1338:	030c                	addi	a1,sp,384
    133a:	0900                	addi	s0,sp,144
    133c:	0000                	unimp
    133e:	0501                	addi	a0,a0,0
    1340:	0402000b          	.insn	4, 0x0402000b
    1344:	0601                	addi	a2,a2,0
    1346:	06097303          	.insn	4, 0x06097303
    134a:	0100                	addi	s0,sp,128
    134c:	0905                	addi	s2,s2,1
    134e:	0306                	slli	t1,t1,0x1
    1350:	090e                	slli	s2,s2,0x3
    1352:	000a                	c.slli	zero,0x2
    1354:	0501                	addi	a0,a0,0
    1356:	0616                	slli	a2,a2,0x5
    1358:	00090003          	lb	zero,0(s2)
    135c:	0100                	addi	s0,sp,128
    135e:	0305                	addi	t1,t1,1
    1360:	0306                	slli	t1,t1,0x1
    1362:	0002096f          	jal	s2,21362 <_start-0x7ffdec9e>
    1366:	0301                	addi	t1,t1,0
    1368:	0901                	addi	s2,s2,0
    136a:	0000                	unimp
    136c:	0501                	addi	a0,a0,0
    136e:	0302                	c.slli64	t1
    1370:	0902                	c.slli64	s2
    1372:	0000                	unimp
    1374:	0501                	addi	a0,a0,0
    1376:	0009                	c.nop	2
    1378:	0402                	c.slli64	s0
    137a:	0301                	addi	t1,t1,0
    137c:	0900                	addi	s0,sp,144
    137e:	0000                	unimp
    1380:	0501                	addi	a0,a0,0
    1382:	0402000b          	.insn	4, 0x0402000b
    1386:	0601                	addi	a2,a2,0
    1388:	00090003          	lb	zero,0(s2)
    138c:	0100                	addi	s0,sp,128
    138e:	0905                	addi	s2,s2,1
    1390:	0200                	addi	s0,sp,256
    1392:	0104                	addi	s1,sp,128
    1394:	04090003          	lb	zero,64(s2)
    1398:	0100                	addi	s0,sp,128
    139a:	0205                	addi	tp,tp,1 # 1 <_start-0x7fffffff>
    139c:	0306                	slli	t1,t1,0x1
    139e:	0901                	addi	s2,s2,0
    13a0:	0006                	c.slli	zero,0x1
    13a2:	0501                	addi	a0,a0,0
    13a4:	060c                	addi	a1,sp,768
    13a6:	00090003          	lb	zero,0(s2)
    13aa:	0100                	addi	s0,sp,128
    13ac:	0306                	slli	t1,t1,0x1
    13ae:	090c                	addi	a1,sp,144
    13b0:	0004                	.insn	2, 0x0004
    13b2:	0501                	addi	a0,a0,0
    13b4:	0601                	addi	a2,a2,0
    13b6:	06090303          	lb	t1,96(s2)
    13ba:	0100                	addi	s0,sp,128
    13bc:	0306                	slli	t1,t1,0x1
    13be:	091d                	addi	s2,s2,7
    13c0:	0002                	c.slli64	zero
    13c2:	0501                	addi	a0,a0,0
    13c4:	09010303          	lb	t1,144(sp)
    13c8:	0000                	unimp
    13ca:	0301                	addi	t1,t1,0
    13cc:	0908                	addi	a0,sp,144
    13ce:	0000                	unimp
    13d0:	0301                	addi	t1,t1,0
    13d2:	0900                	addi	s0,sp,144
    13d4:	0000                	unimp
    13d6:	0001                	nop
    13d8:	0402                	c.slli64	s0
    13da:	0301                	addi	t1,t1,0
    13dc:	0900                	addi	s0,sp,144
    13de:	0000                	unimp
    13e0:	0001                	nop
    13e2:	0402                	c.slli64	s0
    13e4:	0302                	c.slli64	t1
    13e6:	0900                	addi	s0,sp,144
    13e8:	0000                	unimp
    13ea:	0001                	nop
    13ec:	0402                	c.slli64	s0
    13ee:	0302                	c.slli64	t1
    13f0:	0900                	addi	s0,sp,144
    13f2:	0000                	unimp
    13f4:	0001                	nop
    13f6:	0402                	c.slli64	s0
    13f8:	0302                	c.slli64	t1
    13fa:	0900                	addi	s0,sp,144
    13fc:	0000                	unimp
    13fe:	0301                	addi	t1,t1,0
    1400:	0900                	addi	s0,sp,144
    1402:	0004                	.insn	2, 0x0004
    1404:	0301                	addi	t1,t1,0
    1406:	0900                	addi	s0,sp,144
    1408:	0000                	unimp
    140a:	0001                	nop
    140c:	0402                	c.slli64	s0
    140e:	00030603          	lb	a2,0(t1)
    1412:	0009                	c.nop	2
    1414:	0100                	addi	s0,sp,128
    1416:	0200                	addi	s0,sp,256
    1418:	0204                	addi	s1,sp,256
    141a:	04090003          	lb	zero,64(s2)
    141e:	0100                	addi	s0,sp,128
    1420:	0200                	addi	s0,sp,256
    1422:	0504                	addi	s1,sp,640
    1424:	0306                	slli	t1,t1,0x1
    1426:	0900                	addi	s0,sp,144
    1428:	0002                	c.slli64	zero
    142a:	0301                	addi	t1,t1,0
    142c:	0900                	addi	s0,sp,144
    142e:	0002                	c.slli64	zero
    1430:	0301                	addi	t1,t1,0
    1432:	0901                	addi	s2,s2,0
    1434:	0000                	unimp
    1436:	0301                	addi	t1,t1,0
    1438:	0900                	addi	s0,sp,144
    143a:	0000                	unimp
    143c:	0001                	nop
    143e:	0402                	c.slli64	s0
    1440:	0301                	addi	t1,t1,0
    1442:	0900                	addi	s0,sp,144
    1444:	0000                	unimp
    1446:	0001                	nop
    1448:	0402                	c.slli64	s0
    144a:	0302                	c.slli64	t1
    144c:	0900                	addi	s0,sp,144
    144e:	0000                	unimp
    1450:	0001                	nop
    1452:	0402                	c.slli64	s0
    1454:	0302                	c.slli64	t1
    1456:	0900                	addi	s0,sp,144
    1458:	0000                	unimp
    145a:	0001                	nop
    145c:	0402                	c.slli64	s0
    145e:	0302                	c.slli64	t1
    1460:	0900                	addi	s0,sp,144
    1462:	0000                	unimp
    1464:	0301                	addi	t1,t1,0
    1466:	0900                	addi	s0,sp,144
    1468:	0004                	.insn	2, 0x0004
    146a:	0301                	addi	t1,t1,0
    146c:	0900                	addi	s0,sp,144
    146e:	0000                	unimp
    1470:	0001                	nop
    1472:	0402                	c.slli64	s0
    1474:	0305                	addi	t1,t1,1
    1476:	0900                	addi	s0,sp,144
    1478:	0000                	unimp
    147a:	0301                	addi	t1,t1,0
    147c:	0900                	addi	s0,sp,144
    147e:	0002                	c.slli64	zero
    1480:	0501                	addi	a0,a0,0
    1482:	0601                	addi	a2,a2,0
    1484:	00090303          	lb	t1,0(s2)
    1488:	0100                	addi	s0,sp,128
    148a:	0305                	addi	t1,t1,1
    148c:	0200                	addi	s0,sp,256
    148e:	0304                	addi	s1,sp,384
    1490:	0306                	slli	t1,t1,0x1
    1492:	097c                	addi	a5,sp,156
    1494:	0002                	c.slli64	zero
    1496:	0301                	addi	t1,t1,0
    1498:	0900                	addi	s0,sp,144
    149a:	000e                	c.slli	zero,0x3
    149c:	0001                	nop
    149e:	0402                	c.slli64	s0
    14a0:	0305                	addi	t1,t1,1
    14a2:	0900                	addi	s0,sp,144
    14a4:	0000                	unimp
    14a6:	0301                	addi	t1,t1,0
    14a8:	0900                	addi	s0,sp,144
    14aa:	0002                	c.slli64	zero
    14ac:	0301                	addi	t1,t1,0
    14ae:	0901                	addi	s2,s2,0
    14b0:	0000                	unimp
    14b2:	0301                	addi	t1,t1,0
    14b4:	0900                	addi	s0,sp,144
    14b6:	0000                	unimp
    14b8:	0001                	nop
    14ba:	0402                	c.slli64	s0
    14bc:	0301                	addi	t1,t1,0
    14be:	0900                	addi	s0,sp,144
    14c0:	0000                	unimp
    14c2:	0001                	nop
    14c4:	0402                	c.slli64	s0
    14c6:	0302                	c.slli64	t1
    14c8:	0900                	addi	s0,sp,144
    14ca:	0000                	unimp
    14cc:	0001                	nop
    14ce:	0402                	c.slli64	s0
    14d0:	0302                	c.slli64	t1
    14d2:	0900                	addi	s0,sp,144
    14d4:	0000                	unimp
    14d6:	0001                	nop
    14d8:	0402                	c.slli64	s0
    14da:	0302                	c.slli64	t1
    14dc:	0900                	addi	s0,sp,144
    14de:	0000                	unimp
    14e0:	0301                	addi	t1,t1,0
    14e2:	0900                	addi	s0,sp,144
    14e4:	0004                	.insn	2, 0x0004
    14e6:	0301                	addi	t1,t1,0
    14e8:	0900                	addi	s0,sp,144
    14ea:	0000                	unimp
    14ec:	0001                	nop
    14ee:	0402                	c.slli64	s0
    14f0:	09000303          	lb	t1,144(zero) # 90 <_start-0x7fffff70>
    14f4:	0000                	unimp
    14f6:	0301                	addi	t1,t1,0
    14f8:	0900                	addi	s0,sp,144
    14fa:	000e                	c.slli	zero,0x3
    14fc:	0001                	nop
    14fe:	0402                	c.slli64	s0
    1500:	0305                	addi	t1,t1,1
    1502:	0900                	addi	s0,sp,144
    1504:	0000                	unimp
    1506:	0301                	addi	t1,t1,0
    1508:	0900                	addi	s0,sp,144
    150a:	0002                	c.slli64	zero
    150c:	0501                	addi	a0,a0,0
    150e:	0601                	addi	a2,a2,0
    1510:	00090303          	lb	t1,0(s2)
    1514:	0100                	addi	s0,sp,128
    1516:	0306                	slli	t1,t1,0x1
    1518:	00020903          	lb	s2,0(tp) # 0 <_start-0x80000000>
    151c:	0501                	addi	a0,a0,0
    151e:	09010303          	lb	t1,144(sp)
    1522:	0000                	unimp
    1524:	0501                	addi	a0,a0,0
    1526:	0612                	slli	a2,a2,0x4
    1528:	00090003          	lb	zero,0(s2)
    152c:	0100                	addi	s0,sp,128
    152e:	1805                	addi	a6,a6,-31
    1530:	04090003          	lb	zero,64(s2)
    1534:	0100                	addi	s0,sp,128
    1536:	0a05                	addi	s4,s4,1
    1538:	04090003          	lb	zero,64(s2)
    153c:	0100                	addi	s0,sp,128
    153e:	0305                	addi	t1,t1,1
    1540:	0306                	slli	t1,t1,0x1
    1542:	0901                	addi	s2,s2,0
    1544:	0008                	.insn	2, 0x0008
    1546:	0501                	addi	a0,a0,0
    1548:	0309                	addi	t1,t1,2
    154a:	0900                	addi	s0,sp,144
    154c:	0000                	unimp
    154e:	0501                	addi	a0,a0,0
    1550:	09000303          	lb	t1,144(zero) # 90 <_start-0x7fffff70>
    1554:	0000                	unimp
    1556:	0501                	addi	a0,a0,0
    1558:	0309                	addi	t1,t1,2
    155a:	0900                	addi	s0,sp,144
    155c:	0000                	unimp
    155e:	0501                	addi	a0,a0,0
    1560:	0301                	addi	t1,t1,0
    1562:	0904                	addi	s1,sp,144
    1564:	0002                	c.slli64	zero
    1566:	0501                	addi	a0,a0,0
    1568:	09010303          	lb	t1,144(sp)
    156c:	0000                	unimp
    156e:	0301                	addi	t1,t1,0
    1570:	097a                	slli	s2,s2,0x1e
    1572:	0000                	unimp
    1574:	0501                	addi	a0,a0,0
    1576:	060a                	slli	a2,a2,0x2
    1578:	00090003          	lb	zero,0(s2)
    157c:	0100                	addi	s0,sp,128
    157e:	0305                	addi	t1,t1,1
    1580:	0306                	slli	t1,t1,0x1
    1582:	0901                	addi	s2,s2,0
    1584:	000e                	c.slli	zero,0x3
    1586:	0501                	addi	a0,a0,0
    1588:	0309                	addi	t1,t1,2
    158a:	0900                	addi	s0,sp,144
    158c:	0000                	unimp
    158e:	0501                	addi	a0,a0,0
    1590:	09000303          	lb	t1,144(zero) # 90 <_start-0x7fffff70>
    1594:	0000                	unimp
    1596:	0501                	addi	a0,a0,0
    1598:	0309                	addi	t1,t1,2
    159a:	0900                	addi	s0,sp,144
    159c:	0000                	unimp
    159e:	0501                	addi	a0,a0,0
    15a0:	0301                	addi	t1,t1,0
    15a2:	0909                	addi	s2,s2,2
    15a4:	0002                	c.slli64	zero
    15a6:	0501                	addi	a0,a0,0
    15a8:	09010303          	lb	t1,144(sp)
    15ac:	0000                	unimp
    15ae:	0501                	addi	a0,a0,0
    15b0:	0601                	addi	a2,a2,0
    15b2:	00097f03          	.insn	4, 0x00097f03
    15b6:	0100                	addi	s0,sp,128
    15b8:	0305                	addi	t1,t1,1
    15ba:	04090103          	lb	sp,64(s2)
    15be:	0100                	addi	s0,sp,128
    15c0:	0105                	addi	sp,sp,1
    15c2:	0306                	slli	t1,t1,0x1
    15c4:	0904                	addi	s1,sp,144
    15c6:	0004                	.insn	2, 0x0004
    15c8:	0501                	addi	a0,a0,0
    15ca:	09010303          	lb	t1,144(sp)
    15ce:	0000                	unimp
    15d0:	0301                	addi	t1,t1,0
    15d2:	0000097b          	.insn	4, 0x097b
    15d6:	0301                	addi	t1,t1,0
    15d8:	0975                	addi	s2,s2,29
    15da:	0000                	unimp
    15dc:	0501                	addi	a0,a0,0
    15de:	060a                	slli	a2,a2,0x2
    15e0:	00090003          	lb	zero,0(s2)
    15e4:	0100                	addi	s0,sp,128
    15e6:	0305                	addi	t1,t1,1
    15e8:	0306                	slli	t1,t1,0x1
    15ea:	0901                	addi	s2,s2,0
    15ec:	000c                	.insn	2, 0x000c
    15ee:	0501                	addi	a0,a0,0
    15f0:	0309                	addi	t1,t1,2
    15f2:	0900                	addi	s0,sp,144
    15f4:	0000                	unimp
    15f6:	0501                	addi	a0,a0,0
    15f8:	09000303          	lb	t1,144(zero) # 90 <_start-0x7fffff70>
    15fc:	0000                	unimp
    15fe:	0501                	addi	a0,a0,0
    1600:	0309                	addi	t1,t1,2
    1602:	0900                	addi	s0,sp,144
    1604:	0000                	unimp
    1606:	0501                	addi	a0,a0,0
    1608:	0301                	addi	t1,t1,0
    160a:	00020913          	mv	s2,tp
    160e:	0501                	addi	a0,a0,0
    1610:	09040303          	lb	t1,144(s0)
    1614:	0000                	unimp
    1616:	0501                	addi	a0,a0,0
    1618:	0305                	addi	t1,t1,1
    161a:	00097fb7          	lui	t6,0x97
    161e:	0100                	addi	s0,sp,128
    1620:	0c05                	addi	s8,s8,1
    1622:	00090003          	lb	zero,0(s2)
    1626:	0100                	addi	s0,sp,128
    1628:	0b05                	addi	s6,s6,1
    162a:	0200                	addi	s0,sp,256
    162c:	0104                	addi	s1,sp,128
    162e:	0306                	slli	t1,t1,0x1
    1630:	00060973          	.insn	4, 0x00060973
    1634:	0501                	addi	a0,a0,0
    1636:	0609                	addi	a2,a2,2
    1638:	0a090e03          	lb	t3,160(s2)
    163c:	0100                	addi	s0,sp,128
    163e:	1605                	addi	a2,a2,-31
    1640:	0306                	slli	t1,t1,0x1
    1642:	0900                	addi	s0,sp,144
    1644:	0000                	unimp
    1646:	0501                	addi	a0,a0,0
    1648:	6f030603          	lb	a2,1776(t1)
    164c:	0209                	addi	tp,tp,2 # 2 <_start-0x7ffffffe>
    164e:	0100                	addi	s0,sp,128
    1650:	00090103          	lb	sp,0(s2)
    1654:	0100                	addi	s0,sp,128
    1656:	0205                	addi	tp,tp,1 # 1 <_start-0x7fffffff>
    1658:	00090203          	lb	tp,0(s2)
    165c:	0100                	addi	s0,sp,128
    165e:	0905                	addi	s2,s2,1
    1660:	0200                	addi	s0,sp,256
    1662:	0104                	addi	s1,sp,128
    1664:	00090003          	lb	zero,0(s2)
    1668:	0100                	addi	s0,sp,128
    166a:	0b05                	addi	s6,s6,1
    166c:	0200                	addi	s0,sp,256
    166e:	0104                	addi	s1,sp,128
    1670:	0306                	slli	t1,t1,0x1
    1672:	0900                	addi	s0,sp,144
    1674:	0000                	unimp
    1676:	0501                	addi	a0,a0,0
    1678:	0009                	c.nop	2
    167a:	0402                	c.slli64	s0
    167c:	0301                	addi	t1,t1,0
    167e:	0900                	addi	s0,sp,144
    1680:	0004                	.insn	2, 0x0004
    1682:	0501                	addi	a0,a0,0
    1684:	0602                	c.slli64	a2
    1686:	06090103          	lb	sp,96(s2)
    168a:	0100                	addi	s0,sp,128
    168c:	0c05                	addi	s8,s8,1
    168e:	0306                	slli	t1,t1,0x1
    1690:	0900                	addi	s0,sp,144
    1692:	0000                	unimp
    1694:	0601                	addi	a2,a2,0
    1696:	04090c03          	lb	s8,64(s2)
    169a:	0100                	addi	s0,sp,128
    169c:	0105                	addi	sp,sp,1
    169e:	0306                	slli	t1,t1,0x1
    16a0:	00ca                	slli	ra,ra,0x12
    16a2:	0609                	addi	a2,a2,2
    16a4:	0100                	addi	s0,sp,128
    16a6:	0306                	slli	t1,t1,0x1
    16a8:	0906                	slli	s2,s2,0x1
    16aa:	0002                	c.slli64	zero
    16ac:	0501                	addi	a0,a0,0
    16ae:	09010303          	lb	t1,144(sp)
    16b2:	0000                	unimp
    16b4:	0301                	addi	t1,t1,0
    16b6:	0978                	addi	a4,sp,156
    16b8:	0000                	unimp
    16ba:	0501                	addi	a0,a0,0
    16bc:	0305                	addi	t1,t1,1
    16be:	00097fb7          	lui	t6,0x97
    16c2:	0100                	addi	s0,sp,128
    16c4:	0c05                	addi	s8,s8,1
    16c6:	00090003          	lb	zero,0(s2)
    16ca:	0100                	addi	s0,sp,128
    16cc:	0b05                	addi	s6,s6,1
    16ce:	0200                	addi	s0,sp,256
    16d0:	0104                	addi	s1,sp,128
    16d2:	0306                	slli	t1,t1,0x1
    16d4:	00060973          	.insn	4, 0x00060973
    16d8:	0501                	addi	a0,a0,0
    16da:	0609                	addi	a2,a2,2
    16dc:	0a090e03          	lb	t3,160(s2)
    16e0:	0100                	addi	s0,sp,128
    16e2:	1605                	addi	a2,a2,-31
    16e4:	0306                	slli	t1,t1,0x1
    16e6:	0900                	addi	s0,sp,144
    16e8:	0000                	unimp
    16ea:	0501                	addi	a0,a0,0
    16ec:	6f030603          	lb	a2,1776(t1)
    16f0:	0209                	addi	tp,tp,2 # 2 <_start-0x7ffffffe>
    16f2:	0100                	addi	s0,sp,128
    16f4:	00090103          	lb	sp,0(s2)
    16f8:	0100                	addi	s0,sp,128
    16fa:	0205                	addi	tp,tp,1 # 1 <_start-0x7fffffff>
    16fc:	00090203          	lb	tp,0(s2)
    1700:	0100                	addi	s0,sp,128
    1702:	0905                	addi	s2,s2,1
    1704:	0200                	addi	s0,sp,256
    1706:	0104                	addi	s1,sp,128
    1708:	00090003          	lb	zero,0(s2)
    170c:	0100                	addi	s0,sp,128
    170e:	0b05                	addi	s6,s6,1
    1710:	0200                	addi	s0,sp,256
    1712:	0104                	addi	s1,sp,128
    1714:	0306                	slli	t1,t1,0x1
    1716:	0900                	addi	s0,sp,144
    1718:	0000                	unimp
    171a:	0501                	addi	a0,a0,0
    171c:	0009                	c.nop	2
    171e:	0402                	c.slli64	s0
    1720:	0301                	addi	t1,t1,0
    1722:	0900                	addi	s0,sp,144
    1724:	0004                	.insn	2, 0x0004
    1726:	0501                	addi	a0,a0,0
    1728:	0602                	c.slli64	a2
    172a:	06090103          	lb	sp,96(s2)
    172e:	0100                	addi	s0,sp,128
    1730:	0c05                	addi	s8,s8,1
    1732:	0306                	slli	t1,t1,0x1
    1734:	0900                	addi	s0,sp,144
    1736:	0000                	unimp
    1738:	0601                	addi	a2,a2,0
    173a:	04090c03          	lb	s8,64(s2)
    173e:	0100                	addi	s0,sp,128
    1740:	0305                	addi	t1,t1,1
    1742:	0900d203          	lhu	tp,144(ra)
    1746:	0006                	c.slli	zero,0x1
    1748:	0501                	addi	a0,a0,0
    174a:	0601                	addi	a2,a2,0
    174c:	00090103          	lb	sp,0(s2)
    1750:	0100                	addi	s0,sp,128
    1752:	0306                	slli	t1,t1,0x1
    1754:	00040903          	lb	s2,0(s0)
    1758:	0501                	addi	a0,a0,0
    175a:	09030303          	lb	t1,144(t1)
    175e:	0000                	unimp
    1760:	0501                	addi	a0,a0,0
    1762:	000e                	c.slli	zero,0x3
    1764:	0402                	c.slli64	s0
    1766:	0301                	addi	t1,t1,0
    1768:	0900                	addi	s0,sp,144
    176a:	0000                	unimp
    176c:	0501                	addi	a0,a0,0
    176e:	0601                	addi	a2,a2,0
    1770:	02090103          	lb	sp,32(s2)
    1774:	0100                	addi	s0,sp,128
    1776:	0e05                	addi	t3,t3,1
    1778:	0200                	addi	s0,sp,256
    177a:	0104                	addi	s1,sp,128
    177c:	0306                	slli	t1,t1,0x1
    177e:	097f 0002 0001 0402 	.insn	10, 0x0301040200010002097f
    1786:	0301 
    1788:	0900                	addi	s0,sp,144
    178a:	0000                	unimp
    178c:	0501                	addi	a0,a0,0
    178e:	0301                	addi	t1,t1,0
    1790:	0002093f 03030501 	.insn	8, 0x030305010002093f
    1798:	0901                	addi	s2,s2,0
    179a:	0000                	unimp
    179c:	0301                	addi	t1,t1,0
    179e:	0901                	addi	s2,s2,0
    17a0:	0000                	unimp
    17a2:	0301                	addi	t1,t1,0
    17a4:	0901                	addi	s2,s2,0
    17a6:	0000                	unimp
    17a8:	0501                	addi	a0,a0,0
    17aa:	0011                	c.nop	4
    17ac:	0402                	c.slli64	s0
    17ae:	0301                	addi	t1,t1,0
    17b0:	0900                	addi	s0,sp,144
    17b2:	0000                	unimp
    17b4:	0501                	addi	a0,a0,0
    17b6:	0601                	addi	a2,a2,0
    17b8:	00097d03          	.insn	4, 0x00097d03
    17bc:	0100                	addi	s0,sp,128
    17be:	1b05                	addi	s6,s6,-31
    17c0:	08090503          	lb	a0,128(s2)
    17c4:	0100                	addi	s0,sp,128
    17c6:	1105                	addi	sp,sp,-31
    17c8:	0200                	addi	s0,sp,256
    17ca:	0104                	addi	s1,sp,128
    17cc:	04097e03          	.insn	4, 0x04097e03
    17d0:	0100                	addi	s0,sp,128
    17d2:	0505                	addi	a0,a0,1
    17d4:	0306                	slli	t1,t1,0x1
    17d6:	0902                	c.slli64	s2
    17d8:	0002                	c.slli64	zero
    17da:	0501                	addi	a0,a0,0
    17dc:	0614                	addi	a3,sp,768
    17de:	00090003          	lb	zero,0(s2)
    17e2:	0100                	addi	s0,sp,128
    17e4:	1b05                	addi	s6,s6,-31
    17e6:	0200                	addi	s0,sp,256
    17e8:	0204                	addi	s1,sp,256
    17ea:	06090003          	lb	zero,96(s2)
    17ee:	0100                	addi	s0,sp,128
    17f0:	04090003          	lb	zero,64(s2)
    17f4:	0100                	addi	s0,sp,128
    17f6:	0200                	addi	s0,sp,256
    17f8:	0104                	addi	s1,sp,128
    17fa:	04090003          	lb	zero,64(s2)
    17fe:	0100                	addi	s0,sp,128
    1800:	0200                	addi	s0,sp,256
    1802:	0404                	addi	s1,sp,512
    1804:	04090003          	lb	zero,64(s2)
    1808:	0100                	addi	s0,sp,128
    180a:	0f05                	addi	t5,t5,1
    180c:	0200                	addi	s0,sp,256
    180e:	0404                	addi	s1,sp,512
    1810:	02090003          	lb	zero,32(s2)
    1814:	0100                	addi	s0,sp,128
    1816:	0505                	addi	a0,a0,1
    1818:	0306                	slli	t1,t1,0x1
    181a:	0901                	addi	s2,s2,0
    181c:	0004                	.insn	2, 0x0004
    181e:	0501                	addi	a0,a0,0
    1820:	00030607          	.insn	4, 0x00030607
    1824:	0009                	c.nop	2
    1826:	0100                	addi	s0,sp,128
    1828:	1805                	addi	a6,a6,-31
    182a:	0200                	addi	s0,sp,256
    182c:	0204                	addi	s1,sp,256
    182e:	0306                	slli	t1,t1,0x1
    1830:	097d                	addi	s2,s2,31
    1832:	0002                	c.slli64	zero
    1834:	0501                	addi	a0,a0,0
    1836:	0011                	c.nop	4
    1838:	0402                	c.slli64	s0
    183a:	0301                	addi	t1,t1,0
    183c:	0900                	addi	s0,sp,144
    183e:	0000                	unimp
    1840:	0501                	addi	a0,a0,0
    1842:	09050303          	lb	t1,144(a0)
    1846:	0008                	.insn	2, 0x0008
    1848:	0501                	addi	a0,a0,0
    184a:	060c                	addi	a1,sp,768
    184c:	097ee003          	lwu	zero,151(t4) # ffffffffffff6097 <__global_pointer$+0xffffffff7fff484f>
    1850:	0000                	unimp
    1852:	0501                	addi	a0,a0,0
    1854:	01a0030b          	.insn	4, 0x01a0030b
    1858:	0409                	addi	s0,s0,2
    185a:	0100                	addi	s0,sp,128
    185c:	0305                	addi	t1,t1,1
    185e:	0306                	slli	t1,t1,0x1
    1860:	0902                	c.slli64	s2
    1862:	0004                	.insn	2, 0x0004
    1864:	0301                	addi	t1,t1,0
    1866:	00097fa7          	.insn	4, 0x00097fa7
    186a:	0100                	addi	s0,sp,128
    186c:	0505                	addi	a0,a0,1
    186e:	097fb703          	ld	a4,151(t6) # 97097 <_start-0x7ff68f69>
    1872:	0000                	unimp
    1874:	0501                	addi	a0,a0,0
    1876:	030c                	addi	a1,sp,384
    1878:	0900                	addi	s0,sp,144
    187a:	0000                	unimp
    187c:	0501                	addi	a0,a0,0
    187e:	0402000b          	.insn	4, 0x0402000b
    1882:	0601                	addi	a2,a2,0
    1884:	02097303          	.insn	4, 0x02097303
    1888:	0100                	addi	s0,sp,128
    188a:	0c05                	addi	s8,s8,1
    188c:	04090d03          	lb	s10,64(s2)
    1890:	0100                	addi	s0,sp,128
    1892:	0b05                	addi	s6,s6,1
    1894:	0200                	addi	s0,sp,256
    1896:	0104                	addi	s1,sp,128
    1898:	02097303          	.insn	4, 0x02097303
    189c:	0100                	addi	s0,sp,128
    189e:	0905                	addi	s2,s2,1
    18a0:	0306                	slli	t1,t1,0x1
    18a2:	090e                	slli	s2,s2,0x3
    18a4:	0006                	c.slli	zero,0x1
    18a6:	0501                	addi	a0,a0,0
    18a8:	0616                	slli	a2,a2,0x5
    18aa:	00090003          	lb	zero,0(s2)
    18ae:	0100                	addi	s0,sp,128
    18b0:	0305                	addi	t1,t1,1
    18b2:	0306                	slli	t1,t1,0x1
    18b4:	0002096f          	jal	s2,218b4 <_start-0x7ffde74c>
    18b8:	0301                	addi	t1,t1,0
    18ba:	0901                	addi	s2,s2,0
    18bc:	0000                	unimp
    18be:	0501                	addi	a0,a0,0
    18c0:	0302                	c.slli64	t1
    18c2:	0902                	c.slli64	s2
    18c4:	0000                	unimp
    18c6:	0501                	addi	a0,a0,0
    18c8:	0009                	c.nop	2
    18ca:	0402                	c.slli64	s0
    18cc:	0301                	addi	t1,t1,0
    18ce:	0900                	addi	s0,sp,144
    18d0:	0000                	unimp
    18d2:	0501                	addi	a0,a0,0
    18d4:	0402000b          	.insn	4, 0x0402000b
    18d8:	0601                	addi	a2,a2,0
    18da:	00090003          	lb	zero,0(s2)
    18de:	0100                	addi	s0,sp,128
    18e0:	0905                	addi	s2,s2,1
    18e2:	0200                	addi	s0,sp,256
    18e4:	0104                	addi	s1,sp,128
    18e6:	04090003          	lb	zero,64(s2)
    18ea:	0100                	addi	s0,sp,128
    18ec:	0205                	addi	tp,tp,1 # 1 <_start-0x7fffffff>
    18ee:	0306                	slli	t1,t1,0x1
    18f0:	0901                	addi	s2,s2,0
    18f2:	0006                	c.slli	zero,0x1
    18f4:	0501                	addi	a0,a0,0
    18f6:	060c                	addi	a1,sp,768
    18f8:	00090003          	lb	zero,0(s2)
    18fc:	0100                	addi	s0,sp,128
    18fe:	0306                	slli	t1,t1,0x1
    1900:	090c                	addi	a1,sp,144
    1902:	0004                	.insn	2, 0x0004
    1904:	0501                	addi	a0,a0,0
    1906:	0601                	addi	a2,a2,0
    1908:	0901a303          	lw	t1,144(gp) # 800018d8 <__global_pointer$+0x90>
    190c:	0006                	c.slli	zero,0x1
    190e:	0601                	addi	a2,a2,0
    1910:	0901c303          	lbu	t1,144(gp) # 800018d8 <__global_pointer$+0x90>
    1914:	0004                	.insn	2, 0x0004
    1916:	0501                	addi	a0,a0,0
    1918:	09010303          	lb	t1,144(sp)
    191c:	0000                	unimp
    191e:	0301                	addi	t1,t1,0
    1920:	0901                	addi	s2,s2,0
    1922:	0000                	unimp
    1924:	0501                	addi	a0,a0,0
    1926:	0601                	addi	a2,a2,0
    1928:	00097e03          	.insn	4, 0x00097e03
    192c:	0100                	addi	s0,sp,128
    192e:	0305                	addi	t1,t1,1
    1930:	02090203          	lb	tp,32(s2)
    1934:	0100                	addi	s0,sp,128
    1936:	0105                	addi	sp,sp,1
    1938:	04097e03          	.insn	4, 0x04097e03
    193c:	0100                	addi	s0,sp,128
    193e:	0305                	addi	t1,t1,1
    1940:	06090403          	lb	s0,96(s2)
    1944:	0100                	addi	s0,sp,128
    1946:	0105                	addi	sp,sp,1
    1948:	0e097c03          	.insn	4, 0x0e097c03
    194c:	0100                	addi	s0,sp,128
    194e:	02090003          	lb	zero,32(s2)
    1952:	0100                	addi	s0,sp,128
    1954:	0305                	addi	t1,t1,1
    1956:	08090203          	lb	tp,128(s2)
    195a:	0100                	addi	s0,sp,128
    195c:	0306                	slli	t1,t1,0x1
    195e:	0902                	c.slli64	s2
    1960:	0002                	c.slli64	zero
    1962:	0301                	addi	t1,t1,0
    1964:	0902                	c.slli64	s2
    1966:	0004                	.insn	2, 0x0004
    1968:	0301                	addi	t1,t1,0
    196a:	0901                	addi	s2,s2,0
    196c:	0000                	unimp
    196e:	0501                	addi	a0,a0,0
    1970:	0601                	addi	a2,a2,0
    1972:	00090103          	lb	sp,0(s2)
    1976:	0100                	addi	s0,sp,128
    1978:	0306                	slli	t1,t1,0x1
    197a:	00080903          	lb	s2,0(a6)
    197e:	0501                	addi	a0,a0,0
    1980:	09010303          	lb	t1,144(sp)
    1984:	0000                	unimp
    1986:	0301                	addi	t1,t1,0
    1988:	0901                	addi	s2,s2,0
    198a:	0000                	unimp
    198c:	0501                	addi	a0,a0,0
    198e:	0601                	addi	a2,a2,0
    1990:	00097e03          	.insn	4, 0x00097e03
    1994:	0100                	addi	s0,sp,128
    1996:	0305                	addi	t1,t1,1
    1998:	02090303          	lb	t1,32(s2)
    199c:	0100                	addi	s0,sp,128
    199e:	0105                	addi	sp,sp,1
    19a0:	04097d03          	.insn	4, 0x04097d03
    19a4:	0100                	addi	s0,sp,128
    19a6:	0905                	addi	s2,s2,1
    19a8:	08090203          	lb	tp,128(s2)
    19ac:	0100                	addi	s0,sp,128
    19ae:	0305                	addi	t1,t1,1
    19b0:	02090a03          	lb	s4,32(s2)
    19b4:	0100                	addi	s0,sp,128
    19b6:	0306                	slli	t1,t1,0x1
    19b8:	000a0977          	.insn	4, 0x000a0977
    19bc:	0601                	addi	a2,a2,0
    19be:	00090903          	lb	s2,0(s2)
    19c2:	0100                	addi	s0,sp,128
    19c4:	0105                	addi	sp,sp,1
    19c6:	04097403          	.insn	4, 0x04097403
    19ca:	0100                	addi	s0,sp,128
    19cc:	02090003          	lb	zero,32(s2)
    19d0:	0100                	addi	s0,sp,128
    19d2:	0305                	addi	t1,t1,1
    19d4:	08090303          	lb	t1,128(s2)
    19d8:	0100                	addi	s0,sp,128
    19da:	0306                	slli	t1,t1,0x1
    19dc:	0902                	c.slli64	s2
    19de:	0002                	c.slli64	zero
    19e0:	0301                	addi	t1,t1,0
    19e2:	00000907          	.insn	4, 0x0907
    19e6:	0301                	addi	t1,t1,0
    19e8:	0901                	addi	s2,s2,0
    19ea:	0004                	.insn	2, 0x0004
    19ec:	0501                	addi	a0,a0,0
    19ee:	0608                	addi	a0,sp,768
    19f0:	02090003          	lb	zero,32(s2)
    19f4:	0100                	addi	s0,sp,128
    19f6:	0305                	addi	t1,t1,1
    19f8:	0306                	slli	t1,t1,0x1
    19fa:	0902                	c.slli64	s2
    19fc:	0004                	.insn	2, 0x0004
    19fe:	0301                	addi	t1,t1,0
    1a00:	0901                	addi	s2,s2,0
    1a02:	0000                	unimp
    1a04:	0501                	addi	a0,a0,0
    1a06:	060e                	slli	a2,a2,0x3
    1a08:	00090003          	lb	zero,0(s2)
    1a0c:	0100                	addi	s0,sp,128
    1a0e:	0105                	addi	sp,sp,1
    1a10:	02090103          	lb	sp,32(s2)
    1a14:	0100                	addi	s0,sp,128
    1a16:	0306                	slli	t1,t1,0x1
    1a18:	000a0903          	lb	s2,0(s4)
    1a1c:	0501                	addi	a0,a0,0
    1a1e:	09010303          	lb	t1,144(sp)
    1a22:	0000                	unimp
    1a24:	0501                	addi	a0,a0,0
    1a26:	062a                	slli	a2,a2,0xa
    1a28:	00090003          	lb	zero,0(s2)
    1a2c:	0100                	addi	s0,sp,128
    1a2e:	3105                	addiw	sp,sp,-31
    1a30:	06090003          	lb	zero,96(s2)
    1a34:	0100                	addi	s0,sp,128
    1a36:	1d05                	addi	s10,s10,-31
    1a38:	02090803          	lb	a6,32(s2)
    1a3c:	0100                	addi	s0,sp,128
    1a3e:	0605                	addi	a2,a2,1
    1a40:	04097803          	.insn	4, 0x04097803
    1a44:	0100                	addi	s0,sp,128
    1a46:	0e05                	addi	t3,t3,1
    1a48:	0306                	slli	t1,t1,0x1
    1a4a:	0908                	addi	a0,sp,144
    1a4c:	0002                	c.slli64	zero
    1a4e:	0501                	addi	a0,a0,0
    1a50:	7f03060b          	.insn	4, 0x7f03060b
    1a54:	0209                	addi	tp,tp,2 # 2 <_start-0x7ffffffe>
    1a56:	0100                	addi	s0,sp,128
    1a58:	0e05                	addi	t3,t3,1
    1a5a:	02090103          	lb	sp,32(s2)
    1a5e:	0100                	addi	s0,sp,128
    1a60:	0705                	addi	a4,a4,1
    1a62:	0306                	slli	t1,t1,0x1
    1a64:	0901                	addi	s2,s2,0
    1a66:	0004                	.insn	2, 0x0004
    1a68:	0501                	addi	a0,a0,0
    1a6a:	060e                	slli	a2,a2,0x3
    1a6c:	00090003          	lb	zero,0(s2)
    1a70:	0100                	addi	s0,sp,128
    1a72:	1005                	c.nop	-31
    1a74:	04090003          	lb	zero,64(s2)
    1a78:	0100                	addi	s0,sp,128
    1a7a:	0905                	addi	s2,s2,1
    1a7c:	02090003          	lb	zero,32(s2)
    1a80:	0100                	addi	s0,sp,128
    1a82:	0c05                	addi	s8,s8,1
    1a84:	02090003          	lb	zero,32(s2)
    1a88:	0100                	addi	s0,sp,128
    1a8a:	0e05                	addi	t3,t3,1
    1a8c:	0306                	slli	t1,t1,0x1
    1a8e:	097f 0004 0501 0601 	.insn	10, 0x0403060105010004097f
    1a96:	0403 
    1a98:	0409                	addi	s0,s0,2
    1a9a:	0100                	addi	s0,sp,128
    1a9c:	0e05                	addi	t3,t3,1
    1a9e:	0306                	slli	t1,t1,0x1
    1aa0:	00020977          	.insn	4, 0x00020977
    1aa4:	0501                	addi	a0,a0,0
    1aa6:	0610                	addi	a2,sp,768
    1aa8:	04097f03          	.insn	4, 0x04097f03
    1aac:	0100                	addi	s0,sp,128
    1aae:	0705                	addi	a4,a4,1
    1ab0:	0306                	slli	t1,t1,0x1
    1ab2:	0902                	c.slli64	s2
    1ab4:	0002                	c.slli64	zero
    1ab6:	0501                	addi	a0,a0,0
    1ab8:	060e                	slli	a2,a2,0x3
    1aba:	00090003          	lb	zero,0(s2)
    1abe:	0100                	addi	s0,sp,128
    1ac0:	0905                	addi	s2,s2,1
    1ac2:	02090003          	lb	zero,32(s2)
    1ac6:	0100                	addi	s0,sp,128
    1ac8:	1005                	c.nop	-31
    1aca:	02090003          	lb	zero,32(s2)
    1ace:	0100                	addi	s0,sp,128
    1ad0:	0c05                	addi	s8,s8,1
    1ad2:	02090003          	lb	zero,32(s2)
    1ad6:	0100                	addi	s0,sp,128
    1ad8:	0e05                	addi	t3,t3,1
    1ada:	0306                	slli	t1,t1,0x1
    1adc:	097f 0004 0501 0301 	.insn	10, 0x090c030105010004097f
    1ae4:	090c 
    1ae6:	0008                	.insn	2, 0x0008
    1ae8:	0501                	addi	a0,a0,0
    1aea:	0619                	addi	a2,a2,6
    1aec:	00090103          	lb	sp,0(s2)
    1af0:	0100                	addi	s0,sp,128
    1af2:	2005                	.insn	2, 0x2005
    1af4:	04090003          	lb	zero,64(s2)
    1af8:	0100                	addi	s0,sp,128
    1afa:	0305                	addi	t1,t1,1
    1afc:	0306                	slli	t1,t1,0x1
    1afe:	0900                	addi	s0,sp,144
    1b00:	0002                	c.slli64	zero
    1b02:	0501                	addi	a0,a0,0
    1b04:	061d                	addi	a2,a2,7
    1b06:	00090b03          	lb	s6,0(s2)
    1b0a:	0100                	addi	s0,sp,128
    1b0c:	0605                	addi	a2,a2,1
    1b0e:	02097503          	.insn	4, 0x02097503
    1b12:	0100                	addi	s0,sp,128
    1b14:	0e05                	addi	t3,t3,1
    1b16:	0306                	slli	t1,t1,0x1
    1b18:	0002090b          	.insn	4, 0x0002090b
    1b1c:	0501                	addi	a0,a0,0
    1b1e:	060c                	addi	a1,sp,768
    1b20:	00090103          	lb	sp,0(s2)
    1b24:	0100                	addi	s0,sp,128
    1b26:	0b05                	addi	s6,s6,1
    1b28:	04097e03          	.insn	4, 0x04097e03
    1b2c:	0100                	addi	s0,sp,128
    1b2e:	0e05                	addi	t3,t3,1
    1b30:	02090103          	lb	sp,32(s2)
    1b34:	0100                	addi	s0,sp,128
    1b36:	0705                	addi	a4,a4,1
    1b38:	0306                	slli	t1,t1,0x1
    1b3a:	0901                	addi	s2,s2,0
    1b3c:	0004                	.insn	2, 0x0004
    1b3e:	0501                	addi	a0,a0,0
    1b40:	0609                	addi	a2,a2,2
    1b42:	00090003          	lb	zero,0(s2)
    1b46:	0100                	addi	s0,sp,128
    1b48:	0c05                	addi	s8,s8,1
    1b4a:	02090003          	lb	zero,32(s2)
    1b4e:	0100                	addi	s0,sp,128
    1b50:	0e05                	addi	t3,t3,1
    1b52:	0306                	slli	t1,t1,0x1
    1b54:	097f 0004 0501 0601 	.insn	10, 0x0403060105010004097f
    1b5c:	0403 
    1b5e:	0409                	addi	s0,s0,2
    1b60:	0100                	addi	s0,sp,128
    1b62:	0505                	addi	a0,a0,1
    1b64:	0306                	slli	t1,t1,0x1
    1b66:	0972                	slli	s2,s2,0x1c
    1b68:	0002                	c.slli64	zero
    1b6a:	0301                	addi	t1,t1,0
    1b6c:	0901                	addi	s2,s2,0
    1b6e:	0000                	unimp
    1b70:	0301                	addi	t1,t1,0
    1b72:	0901                	addi	s2,s2,0
    1b74:	0000                	unimp
    1b76:	0301                	addi	t1,t1,0
    1b78:	0901                	addi	s2,s2,0
    1b7a:	0000                	unimp
    1b7c:	0501                	addi	a0,a0,0
    1b7e:	7d03060f          	.insn	4, 0x7d03060f
    1b82:	0c09                	addi	s8,s8,2
    1b84:	0100                	addi	s0,sp,128
    1b86:	0505                	addi	a0,a0,1
    1b88:	0306                	slli	t1,t1,0x1
    1b8a:	0905                	addi	s2,s2,1
    1b8c:	000a                	c.slli	zero,0x2
    1b8e:	0301                	addi	t1,t1,0
    1b90:	0901                	addi	s2,s2,0
    1b92:	0000                	unimp
    1b94:	0501                	addi	a0,a0,0
    1b96:	030e                	slli	t1,t1,0x3
    1b98:	0900                	addi	s0,sp,144
    1b9a:	0000                	unimp
    1b9c:	0501                	addi	a0,a0,0
    1b9e:	0610                	addi	a2,sp,768
    1ba0:	04097f03          	.insn	4, 0x04097f03
    1ba4:	0100                	addi	s0,sp,128
    1ba6:	0705                	addi	a4,a4,1
    1ba8:	0306                	slli	t1,t1,0x1
    1baa:	0902                	c.slli64	s2
    1bac:	0002                	c.slli64	zero
    1bae:	0501                	addi	a0,a0,0
    1bb0:	0609                	addi	a2,a2,2
    1bb2:	00090003          	lb	zero,0(s2)
    1bb6:	0100                	addi	s0,sp,128
    1bb8:	0c05                	addi	s8,s8,1
    1bba:	02090003          	lb	zero,32(s2)
    1bbe:	0100                	addi	s0,sp,128
    1bc0:	0e05                	addi	t3,t3,1
    1bc2:	0306                	slli	t1,t1,0x1
    1bc4:	097f 0004 0501 0301 	.insn	10, 0x7dd1030105010004097f
    1bcc:	7dd1 
    1bce:	0809                	addi	a6,a6,2
    1bd0:	0100                	addi	s0,sp,128
    1bd2:	0305                	addi	t1,t1,1
    1bd4:	00090103          	lb	sp,0(s2)
    1bd8:	0100                	addi	s0,sp,128
    1bda:	00097603          	.insn	4, 0x00097603
    1bde:	0100                	addi	s0,sp,128
    1be0:	00090103          	lb	sp,0(s2)
    1be4:	0100                	addi	s0,sp,128
    1be6:	00090103          	lb	sp,0(s2)
    1bea:	0100                	addi	s0,sp,128
    1bec:	0105                	addi	sp,sp,1
    1bee:	0306                	slli	t1,t1,0x1
    1bf0:	00000907          	.insn	4, 0x0907
    1bf4:	0501                	addi	a0,a0,0
    1bf6:	09790323          	sb	s7,134(s2)
    1bfa:	0002                	c.slli64	zero
    1bfc:	0501                	addi	a0,a0,0
    1bfe:	0301                	addi	t1,t1,0
    1c00:	00040907          	.insn	4, 0x00040907
    1c04:	0501                	addi	a0,a0,0
    1c06:	09790323          	sb	s7,134(s2)
    1c0a:	0002                	c.slli64	zero
    1c0c:	0501                	addi	a0,a0,0
    1c0e:	0301                	addi	t1,t1,0
    1c10:	00040907          	.insn	4, 0x00040907
    1c14:	0501                	addi	a0,a0,0
    1c16:	09790323          	sb	s7,134(s2)
    1c1a:	0002                	c.slli64	zero
    1c1c:	0501                	addi	a0,a0,0
    1c1e:	01030603          	lb	a2,16(t1)
    1c22:	0409                	addi	s0,s0,2
    1c24:	0100                	addi	s0,sp,128
    1c26:	0105                	addi	sp,sp,1
    1c28:	0306                	slli	t1,t1,0x1
    1c2a:	0906                	slli	s2,s2,0x1
    1c2c:	0000                	unimp
    1c2e:	0501                	addi	a0,a0,0
    1c30:	097a0303          	lb	t1,151(s4)
    1c34:	0008                	.insn	2, 0x0008
    1c36:	0501                	addi	a0,a0,0
    1c38:	0301                	addi	t1,t1,0
    1c3a:	0906                	slli	s2,s2,0x1
    1c3c:	0006                	c.slli	zero,0x1
    1c3e:	0501                	addi	a0,a0,0
    1c40:	097a0303          	lb	t1,151(s4)
    1c44:	0006                	c.slli	zero,0x1
    1c46:	0601                	addi	a2,a2,0
    1c48:	06090103          	lb	sp,96(s2)
    1c4c:	0100                	addi	s0,sp,128
    1c4e:	00090103          	lb	sp,0(s2)
    1c52:	0100                	addi	s0,sp,128
    1c54:	2105                	addiw	sp,sp,1
    1c56:	0306                	slli	t1,t1,0x1
    1c58:	097f 0000 0501 0303 	.insn	10, 0x0901030305010000097f
    1c60:	0901 
    1c62:	0004                	.insn	2, 0x0004
    1c64:	0601                	addi	a2,a2,0
    1c66:	0e090603          	lb	a2,224(s2)
    1c6a:	0100                	addi	s0,sp,128
    1c6c:	08090103          	lb	sp,128(s2)
    1c70:	0100                	addi	s0,sp,128
    1c72:	097efa03          	.insn	4, 0x097efa03
    1c76:	0000                	unimp
    1c78:	0501                	addi	a0,a0,0
    1c7a:	0302                	c.slli64	t1
    1c7c:	0901                	addi	s2,s2,0
    1c7e:	0000                	unimp
    1c80:	0501                	addi	a0,a0,0
    1c82:	060c                	addi	a1,sp,768
    1c84:	00090003          	lb	zero,0(s2)
    1c88:	0100                	addi	s0,sp,128
    1c8a:	0305                	addi	t1,t1,1
    1c8c:	0306                	slli	t1,t1,0x1
    1c8e:	0188                	addi	a0,sp,192
    1c90:	0a09                	addi	s4,s4,2
    1c92:	0100                	addi	s0,sp,128
    1c94:	0d05                	addi	s10,s10,1
    1c96:	0306                	slli	t1,t1,0x1
    1c98:	0900                	addi	s0,sp,144
    1c9a:	0000                	unimp
    1c9c:	0501                	addi	a0,a0,0
    1c9e:	0311                	addi	t1,t1,4
    1ca0:	0905                	addi	s2,s2,1
    1ca2:	0008                	.insn	2, 0x0008
    1ca4:	0501                	addi	a0,a0,0
    1ca6:	0301                	addi	t1,t1,0
    1ca8:	0975                	addi	s2,s2,29
    1caa:	0008                	.insn	2, 0x0008
    1cac:	0501                	addi	a0,a0,0
    1cae:	030d                	addi	t1,t1,3
    1cb0:	0906                	slli	s2,s2,0x1
    1cb2:	0008                	.insn	2, 0x0008
    1cb4:	0501                	addi	a0,a0,0
    1cb6:	02030603          	lb	a2,32(t1)
    1cba:	0209                	addi	tp,tp,2 # 2 <_start-0x7ffffffe>
    1cbc:	0100                	addi	s0,sp,128
    1cbe:	00090103          	lb	sp,0(s2)
    1cc2:	0100                	addi	s0,sp,128
    1cc4:	00090103          	lb	sp,0(s2)
    1cc8:	0100                	addi	s0,sp,128
    1cca:	0805                	addi	a6,a6,1
    1ccc:	00090003          	lb	zero,0(s2)
    1cd0:	0100                	addi	s0,sp,128
    1cd2:	1505                	addi	a0,a0,-31
    1cd4:	0200                	addi	s0,sp,256
    1cd6:	0104                	addi	s1,sp,128
    1cd8:	00090003          	lb	zero,0(s2)
    1cdc:	0100                	addi	s0,sp,128
    1cde:	0505                	addi	a0,a0,1
    1ce0:	00090103          	lb	sp,0(s2)
    1ce4:	0100                	addi	s0,sp,128
    1ce6:	0805                	addi	a6,a6,1
    1ce8:	0306                	slli	t1,t1,0x1
    1cea:	0900                	addi	s0,sp,144
    1cec:	0000                	unimp
    1cee:	0501                	addi	a0,a0,0
    1cf0:	0026                	c.slli	zero,0x9
    1cf2:	0402                	c.slli64	s0
    1cf4:	0602                	c.slli64	a2
    1cf6:	02097f03          	.insn	4, 0x02097f03
    1cfa:	0100                	addi	s0,sp,128
    1cfc:	1505                	addi	a0,a0,-31
    1cfe:	0200                	addi	s0,sp,256
    1d00:	0104                	addi	s1,sp,128
    1d02:	00090003          	lb	zero,0(s2)
    1d06:	0100                	addi	s0,sp,128
    1d08:	0505                	addi	a0,a0,1
    1d0a:	00090103          	lb	sp,0(s2)
    1d0e:	0100                	addi	s0,sp,128
    1d10:	1105                	addi	sp,sp,-31
    1d12:	0306                	slli	t1,t1,0x1
    1d14:	0900                	addi	s0,sp,144
    1d16:	0000                	unimp
    1d18:	0501                	addi	a0,a0,0
    1d1a:	0308                	addi	a0,sp,384
    1d1c:	0900                	addi	s0,sp,144
    1d1e:	0004                	.insn	2, 0x0004
    1d20:	0501                	addi	a0,a0,0
    1d22:	05030603          	lb	a2,80(t1)
    1d26:	0209                	addi	tp,tp,2 # 2 <_start-0x7ffffffe>
    1d28:	0100                	addi	s0,sp,128
    1d2a:	097fbe03          	ld	t3,151(t6)
    1d2e:	0000                	unimp
    1d30:	0501                	addi	a0,a0,0
    1d32:	0609                	addi	a2,a2,2
    1d34:	06093b03          	ld	s6,96(s2)
    1d38:	0100                	addi	s0,sp,128
    1d3a:	0705                	addi	a4,a4,1
    1d3c:	0306                	slli	t1,t1,0x1
    1d3e:	00020903          	lb	s2,0(tp) # 0 <_start-0x80000000>
    1d42:	0501                	addi	a0,a0,0
    1d44:	0003060f          	.insn	4, 0x0003060f
    1d48:	0009                	c.nop	2
    1d4a:	0100                	addi	s0,sp,128
    1d4c:	0c05                	addi	s8,s8,1
    1d4e:	0200                	addi	s0,sp,256
    1d50:	0104                	addi	s1,sp,128
    1d52:	12090003          	lb	zero,288(s2)
    1d56:	0100                	addi	s0,sp,128
    1d58:	2605                	addiw	a2,a2,1
    1d5a:	0200                	addi	s0,sp,256
    1d5c:	0204                	addi	s1,sp,256
    1d5e:	0306                	slli	t1,t1,0x1
    1d60:	097e                	slli	s2,s2,0x1f
    1d62:	0002                	c.slli64	zero
    1d64:	0501                	addi	a0,a0,0
    1d66:	0015                	c.nop	5
    1d68:	0402                	c.slli64	s0
    1d6a:	0301                	addi	t1,t1,0
    1d6c:	0900                	addi	s0,sp,144
    1d6e:	0000                	unimp
    1d70:	0501                	addi	a0,a0,0
    1d72:	09030303          	lb	t1,144(t1)
    1d76:	0000                	unimp
    1d78:	0501                	addi	a0,a0,0
    1d7a:	0606                	slli	a2,a2,0x1
    1d7c:	00090003          	lb	zero,0(s2)
    1d80:	0100                	addi	s0,sp,128
    1d82:	0505                	addi	a0,a0,1
    1d84:	0306                	slli	t1,t1,0x1
    1d86:	0901                	addi	s2,s2,0
    1d88:	0004                	.insn	2, 0x0004
    1d8a:	0501                	addi	a0,a0,0
    1d8c:	094d0303          	lb	t1,148(s10)
    1d90:	0000                	unimp
    1d92:	0501                	addi	a0,a0,0
    1d94:	0601                	addi	a2,a2,0
    1d96:	06090103          	lb	sp,96(s2)
    1d9a:	0100                	addi	s0,sp,128
    1d9c:	0705                	addi	a4,a4,1
    1d9e:	0306                	slli	t1,t1,0x1
    1da0:	0930                	addi	a2,sp,152
    1da2:	0002                	c.slli64	zero
    1da4:	0501                	addi	a0,a0,0
    1da6:	0003060f          	.insn	4, 0x0003060f
    1daa:	0009                	c.nop	2
    1dac:	0100                	addi	s0,sp,128
    1dae:	1105                	addi	sp,sp,-31
    1db0:	12097f03          	.insn	4, 0x12097f03
    1db4:	0100                	addi	s0,sp,128
    1db6:	0c05                	addi	s8,s8,1
    1db8:	0200                	addi	s0,sp,256
    1dba:	0104                	addi	s1,sp,128
    1dbc:	04090103          	lb	sp,64(s2)
    1dc0:	0100                	addi	s0,sp,128
    1dc2:	2605                	addiw	a2,a2,1
    1dc4:	0200                	addi	s0,sp,256
    1dc6:	0204                	addi	s1,sp,256
    1dc8:	0306                	slli	t1,t1,0x1
    1dca:	097e                	slli	s2,s2,0x1f
    1dcc:	0004                	.insn	2, 0x0004
    1dce:	0501                	addi	a0,a0,0
    1dd0:	0015                	c.nop	5
    1dd2:	0402                	c.slli64	s0
    1dd4:	0301                	addi	t1,t1,0
    1dd6:	0900                	addi	s0,sp,144
    1dd8:	0000                	unimp
    1dda:	0501                	addi	a0,a0,0
    1ddc:	0305                	addi	t1,t1,1
    1dde:	0901                	addi	s2,s2,0
    1de0:	0000                	unimp
    1de2:	0501                	addi	a0,a0,0
    1de4:	0608                	addi	a0,sp,768
    1de6:	00090003          	lb	zero,0(s2)
    1dea:	0100                	addi	s0,sp,128
    1dec:	0105                	addi	sp,sp,1
    1dee:	0306                	slli	t1,t1,0x1
    1df0:	040902af          	.insn	4, 0x040902af
    1df4:	0100                	addi	s0,sp,128
    1df6:	0305                	addi	t1,t1,1
    1df8:	00090103          	lb	sp,0(s2)
    1dfc:	0100                	addi	s0,sp,128
    1dfe:	00090103          	lb	sp,0(s2)
    1e02:	0100                	addi	s0,sp,128
    1e04:	0a05                	addi	s4,s4,1
    1e06:	00090003          	lb	zero,0(s2)
    1e0a:	0100                	addi	s0,sp,128
    1e0c:	0f05                	addi	t5,t5,1
    1e0e:	0306                	slli	t1,t1,0x1
    1e10:	097f 0006 0501 0605 	.insn	10, 0x0203060505010006097f
    1e18:	0203 
    1e1a:	0209                	addi	tp,tp,2 # 2 <_start-0x7ffffffe>
    1e1c:	0100                	addi	s0,sp,128
    1e1e:	0a05                	addi	s4,s4,1
    1e20:	0306                	slli	t1,t1,0x1
    1e22:	097f 0000 0501 0306 	.insn	10, 0x0901030605010000097f
    1e2a:	0901 
    1e2c:	0004                	.insn	2, 0x0004
    1e2e:	0501                	addi	a0,a0,0
    1e30:	060a                	slli	a2,a2,0x2
    1e32:	02097f03          	.insn	4, 0x02097f03
    1e36:	0100                	addi	s0,sp,128
    1e38:	0c05                	addi	s8,s8,1
    1e3a:	0306                	slli	t1,t1,0x1
    1e3c:	0902                	c.slli64	s2
    1e3e:	0002                	c.slli64	zero
    1e40:	0501                	addi	a0,a0,0
    1e42:	030a                	slli	t1,t1,0x2
    1e44:	097e                	slli	s2,s2,0x1f
    1e46:	0006                	c.slli	zero,0x1
    1e48:	0501                	addi	a0,a0,0
    1e4a:	02030603          	lb	a2,32(t1)
    1e4e:	0209                	addi	tp,tp,2 # 2 <_start-0x7ffffffe>
    1e50:	0100                	addi	s0,sp,128
    1e52:	0105                	addi	sp,sp,1
    1e54:	0306                	slli	t1,t1,0x1
    1e56:	0901                	addi	s2,s2,0
    1e58:	0000                	unimp
    1e5a:	0601                	addi	a2,a2,0
    1e5c:	02090303          	lb	t1,32(s2)
    1e60:	0100                	addi	s0,sp,128
    1e62:	0305                	addi	t1,t1,1
    1e64:	00090103          	lb	sp,0(s2)
    1e68:	0100                	addi	s0,sp,128
    1e6a:	00090103          	lb	sp,0(s2)
    1e6e:	0100                	addi	s0,sp,128
    1e70:	0e05                	addi	t3,t3,1
    1e72:	00090003          	lb	zero,0(s2)
    1e76:	0100                	addi	s0,sp,128
    1e78:	0f05                	addi	t5,t5,1
    1e7a:	0306                	slli	t1,t1,0x1
    1e7c:	097f 0004 0501 030e 	.insn	10, 0x0901030e05010004097f
    1e84:	0901 
    1e86:	0002                	c.slli64	zero
    1e88:	0501                	addi	a0,a0,0
    1e8a:	0306                	slli	t1,t1,0x1
    1e8c:	0901                	addi	s2,s2,0
    1e8e:	0004                	.insn	2, 0x0004
    1e90:	0501                	addi	a0,a0,0
    1e92:	060e                	slli	a2,a2,0x3
    1e94:	02097f03          	.insn	4, 0x02097f03
    1e98:	0100                	addi	s0,sp,128
    1e9a:	0505                	addi	a0,a0,1
    1e9c:	04090103          	lb	sp,64(s2)
    1ea0:	0100                	addi	s0,sp,128
    1ea2:	0e05                	addi	t3,t3,1
    1ea4:	0200                	addi	s0,sp,256
    1ea6:	0104                	addi	s1,sp,128
    1ea8:	0306                	slli	t1,t1,0x1
    1eaa:	097f 0000 0501 030c 	.insn	10, 0x0902030c05010000097f
    1eb2:	0902 
    1eb4:	0006                	c.slli	zero,0x1
    1eb6:	0501                	addi	a0,a0,0
    1eb8:	00030603          	lb	a2,0(t1)
    1ebc:	0409                	addi	s0,s0,2
    1ebe:	0100                	addi	s0,sp,128
    1ec0:	0105                	addi	sp,sp,1
    1ec2:	0306                	slli	t1,t1,0x1
    1ec4:	0901                	addi	s2,s2,0
    1ec6:	0000                	unimp
    1ec8:	0501                	addi	a0,a0,0
    1eca:	030e                	slli	t1,t1,0x3
    1ecc:	097d                	addi	s2,s2,31
    1ece:	0002                	c.slli64	zero
    1ed0:	0501                	addi	a0,a0,0
    1ed2:	0601                	addi	a2,a2,0
    1ed4:	04090603          	lb	a2,64(s2)
    1ed8:	0100                	addi	s0,sp,128
    1eda:	0305                	addi	t1,t1,1
    1edc:	00090103          	lb	sp,0(s2)
    1ee0:	0100                	addi	s0,sp,128
    1ee2:	00090203          	lb	tp,0(s2)
    1ee6:	0100                	addi	s0,sp,128
    1ee8:	0505                	addi	a0,a0,1
    1eea:	00090103          	lb	sp,0(s2)
    1eee:	0100                	addi	s0,sp,128
    1ef0:	0805                	addi	a6,a6,1
    1ef2:	0306                	slli	t1,t1,0x1
    1ef4:	0900                	addi	s0,sp,144
    1ef6:	0000                	unimp
    1ef8:	0501                	addi	a0,a0,0
    1efa:	030d                	addi	t1,t1,3
    1efc:	0900                	addi	s0,sp,144
    1efe:	0004                	.insn	2, 0x0004
    1f00:	0501                	addi	a0,a0,0
    1f02:	0605                	addi	a2,a2,1
    1f04:	02090103          	lb	sp,32(s2)
    1f08:	0100                	addi	s0,sp,128
    1f0a:	0d05                	addi	s10,s10,1
    1f0c:	0306                	slli	t1,t1,0x1
    1f0e:	0900                	addi	s0,sp,144
    1f10:	0000                	unimp
    1f12:	0501                	addi	a0,a0,0
    1f14:	0308                	addi	a0,sp,384
    1f16:	0900                	addi	s0,sp,144
    1f18:	0002                	c.slli64	zero
    1f1a:	0501                	addi	a0,a0,0
    1f1c:	0014                	.insn	2, 0x0014
    1f1e:	0402                	c.slli64	s0
    1f20:	0602                	c.slli64	a2
    1f22:	04090103          	lb	sp,64(s2)
    1f26:	0100                	addi	s0,sp,128
    1f28:	0200                	addi	s0,sp,256
    1f2a:	0104                	addi	s1,sp,128
    1f2c:	0306                	slli	t1,t1,0x1
    1f2e:	0900                	addi	s0,sp,144
    1f30:	0002                	c.slli64	zero
    1f32:	0501                	addi	a0,a0,0
    1f34:	030d                	addi	t1,t1,3
    1f36:	0902                	c.slli64	s2
    1f38:	0004                	.insn	2, 0x0004
    1f3a:	0501                	addi	a0,a0,0
    1f3c:	00030603          	lb	a2,0(t1)
    1f40:	0409                	addi	s0,s0,2
    1f42:	0100                	addi	s0,sp,128
    1f44:	0105                	addi	sp,sp,1
    1f46:	0306                	slli	t1,t1,0x1
    1f48:	0901                	addi	s2,s2,0
    1f4a:	0000                	unimp
    1f4c:	0601                	addi	a2,a2,0
    1f4e:	08090303          	lb	t1,128(s2)
    1f52:	0100                	addi	s0,sp,128
    1f54:	0305                	addi	t1,t1,1
    1f56:	00090103          	lb	sp,0(s2)
    1f5a:	0100                	addi	s0,sp,128
    1f5c:	00090103          	lb	sp,0(s2)
    1f60:	0100                	addi	s0,sp,128
    1f62:	0905                	addi	s2,s2,1
    1f64:	0306                	slli	t1,t1,0x1
    1f66:	097f 0000 0501 000a 	.insn	10, 0x0402000a05010000097f
    1f6e:	0402 
    1f70:	0601                	addi	a2,a2,0
    1f72:	02090103          	lb	sp,32(s2)
    1f76:	0100                	addi	s0,sp,128
    1f78:	1205                	addi	tp,tp,-31 # ffffffffffffffe1 <__global_pointer$+0xffffffff7fffe799>
    1f7a:	0200                	addi	s0,sp,256
    1f7c:	0104                	addi	s1,sp,128
    1f7e:	0306                	slli	t1,t1,0x1
    1f80:	0900                	addi	s0,sp,144
    1f82:	0000                	unimp
    1f84:	0501                	addi	a0,a0,0
    1f86:	0016                	c.slli	zero,0x5
    1f88:	0402                	c.slli64	s0
    1f8a:	0301                	addi	t1,t1,0
    1f8c:	0900                	addi	s0,sp,144
    1f8e:	0004                	.insn	2, 0x0004
    1f90:	0501                	addi	a0,a0,0
    1f92:	000d                	c.nop	3
    1f94:	0402                	c.slli64	s0
    1f96:	0301                	addi	t1,t1,0
    1f98:	0900                	addi	s0,sp,144
    1f9a:	0002                	c.slli64	zero
    1f9c:	0501                	addi	a0,a0,0
    1f9e:	0010                	.insn	2, 0x0010
    1fa0:	0402                	c.slli64	s0
    1fa2:	0301                	addi	t1,t1,0
    1fa4:	0900                	addi	s0,sp,144
    1fa6:	0002                	c.slli64	zero
    1fa8:	0501                	addi	a0,a0,0
    1faa:	000a                	c.slli	zero,0x2
    1fac:	0402                	c.slli64	s0
    1fae:	0301                	addi	t1,t1,0
    1fb0:	0900                	addi	s0,sp,144
    1fb2:	0004                	.insn	2, 0x0004
    1fb4:	0501                	addi	a0,a0,0
    1fb6:	02030603          	lb	a2,32(t1)
    1fba:	0209                	addi	tp,tp,2 # 2 <_start-0x7ffffffe>
    1fbc:	0100                	addi	s0,sp,128
    1fbe:	0105                	addi	sp,sp,1
    1fc0:	0306                	slli	t1,t1,0x1
    1fc2:	0901                	addi	s2,s2,0
    1fc4:	0000                	unimp
    1fc6:	0601                	addi	a2,a2,0
    1fc8:	02090303          	lb	t1,32(s2)
    1fcc:	0100                	addi	s0,sp,128
    1fce:	0305                	addi	t1,t1,1
    1fd0:	00090103          	lb	sp,0(s2)
    1fd4:	0100                	addi	s0,sp,128
    1fd6:	00090103          	lb	sp,0(s2)
    1fda:	0100                	addi	s0,sp,128
    1fdc:	00090203          	lb	tp,0(s2)
    1fe0:	0100                	addi	s0,sp,128
    1fe2:	0a05                	addi	s4,s4,1
    1fe4:	0306                	slli	t1,t1,0x1
    1fe6:	0900                	addi	s0,sp,144
    1fe8:	0000                	unimp
    1fea:	0501                	addi	a0,a0,0
    1fec:	0900030f          	.insn	4, 0x0900030f
    1ff0:	0004                	.insn	2, 0x0004
    1ff2:	0501                	addi	a0,a0,0
    1ff4:	0301                	addi	t1,t1,0
    1ff6:	097c                	addi	a5,sp,156
    1ff8:	0004                	.insn	2, 0x0004
    1ffa:	0501                	addi	a0,a0,0
    1ffc:	0403060f          	.insn	4, 0x0403060f
    2000:	0209                	addi	tp,tp,2 # 2 <_start-0x7ffffffe>
    2002:	0100                	addi	s0,sp,128
    2004:	0505                	addi	a0,a0,1
    2006:	06090103          	lb	sp,96(s2)
    200a:	0100                	addi	s0,sp,128
    200c:	0a05                	addi	s4,s4,1
    200e:	0306                	slli	t1,t1,0x1
    2010:	097f 0000 0501 0308 	.insn	10, 0x0901030805010000097f
    2018:	0901 
    201a:	0004                	.insn	2, 0x0004
    201c:	0501                	addi	a0,a0,0
    201e:	7f03060f          	.insn	4, 0x7f03060f
    2022:	0209                	addi	tp,tp,2 # 2 <_start-0x7ffffffe>
    2024:	0100                	addi	s0,sp,128
    2026:	0305                	addi	t1,t1,1
    2028:	04090303          	lb	t1,64(s2)
    202c:	0100                	addi	s0,sp,128
    202e:	0605                	addi	a2,a2,1
    2030:	0306                	slli	t1,t1,0x1
    2032:	0900                	addi	s0,sp,144
    2034:	0000                	unimp
    2036:	0501                	addi	a0,a0,0
    2038:	04020013          	addi	zero,tp,64 # 40 <_start-0x7fffffc0>
    203c:	0301                	addi	t1,t1,0
    203e:	0900                	addi	s0,sp,144
    2040:	0008                	.insn	2, 0x0008
    2042:	0501                	addi	a0,a0,0
    2044:	060a                	slli	a2,a2,0x2
    2046:	08090503          	lb	a0,128(s2)
    204a:	0100                	addi	s0,sp,128
    204c:	0705                	addi	a4,a4,1
    204e:	0306                	slli	t1,t1,0x1
    2050:	0976                	slli	s2,s2,0x1d
    2052:	0004                	.insn	2, 0x0004
    2054:	0501                	addi	a0,a0,0
    2056:	030a                	slli	t1,t1,0x2
    2058:	090a                	slli	s2,s2,0x2
    205a:	0002                	c.slli64	zero
    205c:	0501                	addi	a0,a0,0
    205e:	09760307          	.insn	4, 0x09760307
    2062:	0002                	c.slli64	zero
    2064:	0501                	addi	a0,a0,0
    2066:	0605                	addi	a2,a2,1
    2068:	02090b03          	lb	s6,32(s2)
    206c:	0100                	addi	s0,sp,128
    206e:	1005                	c.nop	-31
    2070:	0306                	slli	t1,t1,0x1
    2072:	0901                	addi	s2,s2,0
    2074:	0000                	unimp
    2076:	0501                	addi	a0,a0,0
    2078:	09000313          	li	t1,144
    207c:	0002                	c.slli64	zero
    207e:	0501                	addi	a0,a0,0
    2080:	0309                	addi	t1,t1,2
    2082:	097f 0004 0501 030a 	.insn	10, 0x097f030a05010004097f
    208a:	097f 
    208c:	0004                	.insn	2, 0x0004
    208e:	0501                	addi	a0,a0,0
    2090:	0309                	addi	t1,t1,2
    2092:	0901                	addi	s2,s2,0
    2094:	0004                	.insn	2, 0x0004
    2096:	0501                	addi	a0,a0,0
    2098:	0605                	addi	a2,a2,1
    209a:	04090103          	lb	sp,64(s2)
    209e:	0100                	addi	s0,sp,128
    20a0:	0905                	addi	s2,s2,1
    20a2:	0306                	slli	t1,t1,0x1
    20a4:	0900                	addi	s0,sp,144
    20a6:	0000                	unimp
    20a8:	0501                	addi	a0,a0,0
    20aa:	060a                	slli	a2,a2,0x2
    20ac:	04097e03          	.insn	4, 0x04097e03
    20b0:	0100                	addi	s0,sp,128
    20b2:	0305                	addi	t1,t1,1
    20b4:	02090503          	lb	a0,32(s2)
    20b8:	0100                	addi	s0,sp,128
    20ba:	1605                	addi	a2,a2,-31
    20bc:	0306                	slli	t1,t1,0x1
    20be:	0900                	addi	s0,sp,144
    20c0:	0000                	unimp
    20c2:	0001                	nop
    20c4:	0402                	c.slli64	s0
    20c6:	0301                	addi	t1,t1,0
    20c8:	0900                	addi	s0,sp,144
    20ca:	0002                	c.slli64	zero
    20cc:	0501                	addi	a0,a0,0
    20ce:	0605                	addi	a2,a2,1
    20d0:	06097703          	.insn	4, 0x06097703
    20d4:	0100                	addi	s0,sp,128
    20d6:	00090103          	lb	sp,0(s2)
    20da:	0100                	addi	s0,sp,128
    20dc:	0a05                	addi	s4,s4,1
    20de:	0306                	slli	t1,t1,0x1
    20e0:	00000903          	lb	s2,0(zero) # 0 <_start-0x80000000>
    20e4:	0501                	addi	a0,a0,0
    20e6:	0308                	addi	a0,sp,384
    20e8:	097d                	addi	s2,s2,31
    20ea:	0004                	.insn	2, 0x0004
    20ec:	0501                	addi	a0,a0,0
    20ee:	060a                	slli	a2,a2,0x2
    20f0:	02090303          	lb	t1,32(s2)
    20f4:	0100                	addi	s0,sp,128
    20f6:	0306                	slli	t1,t1,0x1
    20f8:	097c                	addi	a5,sp,156
    20fa:	0002                	c.slli64	zero
    20fc:	0501                	addi	a0,a0,0
    20fe:	0605                	addi	a2,a2,1
    2100:	04090003          	lb	zero,64(s2)
    2104:	0100                	addi	s0,sp,128
    2106:	00090103          	lb	sp,0(s2)
    210a:	0100                	addi	s0,sp,128
    210c:	0a05                	addi	s4,s4,1
    210e:	00090303          	lb	t1,0(s2)
    2112:	0100                	addi	s0,sp,128
    2114:	0306                	slli	t1,t1,0x1
    2116:	097c                	addi	a5,sp,156
    2118:	0004                	.insn	2, 0x0004
    211a:	0501                	addi	a0,a0,0
    211c:	0308                	addi	a0,sp,384
    211e:	0901                	addi	s2,s2,0
    2120:	0002                	c.slli64	zero
    2122:	0501                	addi	a0,a0,0
    2124:	030a                	slli	t1,t1,0x2
    2126:	00020903          	lb	s2,0(tp) # 0 <_start-0x80000000>
    212a:	0501                	addi	a0,a0,0
    212c:	0016                	c.slli	zero,0x5
    212e:	0402                	c.slli64	s0
    2130:	0302                	c.slli64	t1
    2132:	0905                	addi	s2,s2,1
    2134:	0002                	c.slli64	zero
    2136:	0501                	addi	a0,a0,0
    2138:	0301                	addi	t1,t1,0
    213a:	0901                	addi	s2,s2,0
    213c:	0002                	c.slli64	zero
    213e:	0901                	addi	s2,s2,0
    2140:	0002                	c.slli64	zero
    2142:	0100                	addi	s0,sp,128
    2144:	0501                	addi	a0,a0,0
    2146:	0001                	nop
    2148:	0209                	addi	tp,tp,2 # 2 <_start-0x7ffffffe>
    214a:	09ee                	slli	s3,s3,0x1b
    214c:	8000                	.insn	2, 0x8000
    214e:	0000                	unimp
    2150:	0000                	unimp
    2152:	01018b03          	lb	s6,16(gp) # 80001858 <__global_pointer$+0x10>
    2156:	0305                	addi	t1,t1,1
    2158:	00090203          	lb	tp,0(s2)
    215c:	0100                	addi	s0,sp,128
    215e:	00096a03          	lwu	s4,0(s2)
    2162:	0100                	addi	s0,sp,128
    2164:	0105                	addi	sp,sp,1
    2166:	0306                	slli	t1,t1,0x1
    2168:	0914                	addi	a3,sp,144
    216a:	0000                	unimp
    216c:	0501                	addi	a0,a0,0
    216e:	096c0303          	lb	t1,150(s8)
    2172:	0002                	c.slli64	zero
    2174:	0501                	addi	a0,a0,0
    2176:	0301                	addi	t1,t1,0
    2178:	0914                	addi	a3,sp,144
    217a:	0008                	.insn	2, 0x0008
    217c:	0501                	addi	a0,a0,0
    217e:	096c0303          	lb	t1,150(s8)
    2182:	0002                	c.slli64	zero
    2184:	0601                	addi	a2,a2,0
    2186:	04091703          	lh	a4,64(s2)
    218a:	0100                	addi	s0,sp,128
    218c:	0105                	addi	sp,sp,1
    218e:	0306                	slli	t1,t1,0x1
    2190:	0901                	addi	s2,s2,0
    2192:	0000                	unimp
    2194:	0901                	addi	s2,s2,0
    2196:	0008                	.insn	2, 0x0008
    2198:	0100                	addi	s0,sp,128
    219a:	Address 0x219a is out of bounds.


Disassembly of section .debug_str:

0000000000000000 <.debug_str>:
   0:	5f5f 6e69 3374      	.insn	6, 0x33746e695f5f
   6:	5f32                	lw	t5,44(sp)
   8:	0074                	addi	a3,sp,12
   a:	6966                	ld	s2,88(sp)
   c:	3172                	fld	ft2,312(sp)
   e:	632e                	ld	t1,200(sp)
  10:	7500                	ld	s0,40(a0)
  12:	736e                	ld	t1,248(sp)
  14:	6769                	lui	a4,0x1a
  16:	656e                	ld	a0,216(sp)
  18:	2064                	fld	fs1,192(s0)
  1a:	72616863          	bltu	sp,t1,74a <_start-0x7ffff8b6>
  1e:	6500                	ld	s0,8(a0)
  20:	7078                	ld	a4,224(s0)
  22:	6365                	lui	t1,0x19
  24:	6574                	ld	a3,200(a0)
  26:	0064                	addi	s1,sp,12
  28:	726f6873          	csrrsi	a6,mhpmevent6h,30
  2c:	2074                	fld	fa3,192(s0)
  2e:	6e75                	lui	t3,0x1d
  30:	6e676973          	csrrsi	s2,0x6e6,14
  34:	6465                	lui	s0,0x19
  36:	6920                	ld	s0,80(a0)
  38:	746e                	ld	s0,248(sp)
  3a:	7600                	ld	s0,40(a2)
  3c:	7265                	lui	tp,0xffff9
  3e:	6669                	lui	a2,0x1a
  40:	0079                	c.nop	30
  42:	616d                	addi	sp,sp,240
  44:	6e69                	lui	t3,0x1a
  46:	4700                	lw	s0,8(a4)
  48:	554e                	lw	a0,240(sp)
  4a:	4320                	lw	s0,64(a4)
  4c:	3731                	addiw	a4,a4,-20 # 19fec <_start-0x7ffe6014>
  4e:	3120                	fld	fs0,96(a0)
  50:	2e34                	fld	fa3,88(a2)
  52:	2e32                	fld	ft8,264(sp)
  54:	2030                	fld	fa2,64(s0)
  56:	6d2d                	lui	s10,0xb
  58:	6261                	lui	tp,0x18
  5a:	3d69                	addiw	s10,s10,-6 # affa <_start-0x7fff5006>
  5c:	706c                	ld	a1,224(s0)
  5e:	3436                	fld	fs0,360(sp)
  60:	2064                	fld	fs1,192(s0)
  62:	6d2d                	lui	s10,0xb
  64:	646f6d63          	bltu	t5,t1,6be <_start-0x7ffff942>
  68:	6c65                	lui	s8,0x19
  6a:	6d3d                	lui	s10,0xf
  6c:	6465                	lui	s0,0x19
  6e:	6e61                	lui	t3,0x18
  70:	2079                	.insn	2, 0x2079
  72:	6d2d                	lui	s10,0xb
  74:	7574                	ld	a3,232(a0)
  76:	656e                	ld	a0,216(sp)
  78:	723d                	lui	tp,0xfffef
  7a:	656b636f          	jal	t1,b66d0 <_start-0x7ff49930>
  7e:	2074                	fld	fa3,192(s0)
  80:	6d2d                	lui	s10,0xb
  82:	7369                	lui	t1,0xffffa
  84:	2d61                	addiw	s10,s10,24 # b018 <_start-0x7fff4fe8>
  86:	63657073          	csrci	0x636,10
  8a:	323d                	addiw	tp,tp,-17 # fffffffffffeefef <__global_pointer$+0xffffffff7ffed7a7>
  8c:	3130                	fld	fa2,96(a0)
  8e:	3139                	addiw	sp,sp,-18
  90:	3132                	fld	ft2,296(sp)
  92:	6d2d2033          	.insn	4, 0x6d2d2033
  96:	7261                	lui	tp,0xffff8
  98:	723d6863          	bltu	s10,gp,7c8 <_start-0x7ffff838>
  9c:	3676                	fld	fa2,376(sp)
  9e:	6934                	ld	a3,80(a0)
  a0:	616d                	addi	sp,sp,240
  a2:	6466                	ld	s0,88(sp)
  a4:	697a5f63          	bge	s4,s7,742 <_start-0x7ffff8be>
  a8:	5f727363          	bgeu	tp,s7,68e <_start-0x7ffff972>
  ac:	697a                	ld	s2,408(sp)
  ae:	6566                	ld	a0,88(sp)
  b0:	636e                	ld	t1,216(sp)
  b2:	6965                	lui	s2,0x19
  b4:	2d20                	fld	fs0,88(a0)
  b6:	61776467          	.insn	4, 0x61776467
  ba:	6672                	ld	a2,280(sp)
  bc:	322d                	addiw	tp,tp,-21 # ffffffffffff7feb <__global_pointer$+0xffffffff7fff67a3>
  be:	2d20                	fld	fs0,88(a0)
  c0:	2d20324f          	.insn	4, 0x2d20324f
  c4:	6e66                	ld	t3,88(sp)
  c6:	72742d6f          	jal	s10,42fec <_start-0x7ffbd014>
  ca:	6565                	lui	a0,0x19
  cc:	6c2d                	lui	s8,0xb
  ce:	2d706f6f          	jal	t5,6ba4 <_start-0x7fff945c>
  d2:	6964                	ld	s1,208(a0)
  d4:	69727473          	csrrci	s0,0x697,4
  d8:	7562                	ld	a0,56(sp)
  da:	6574                	ld	a3,200(a0)
  dc:	702d                	c.lui	zero,0xfffeb
  de:	7461                	lui	s0,0xffff8
  e0:	6574                	ld	a3,200(a0)
  e2:	6e72                	ld	t3,280(sp)
  e4:	65740073          	.insn	4, 0x65740073
  e8:	6c007473          	csrrci	s0,0x6c0,0
  ec:	20676e6f          	jal	t3,762f2 <_start-0x7ff89d0e>
  f0:	6f6c                	ld	a1,216(a4)
  f2:	676e                	ld	a4,216(sp)
  f4:	7520                	ld	s0,104(a0)
  f6:	736e                	ld	t1,248(sp)
  f8:	6769                	lui	a4,0x1a
  fa:	656e                	ld	a0,216(sp)
  fc:	2064                	fld	fs1,192(s0)
  fe:	6e69                	lui	t3,0x1a
 100:	0074                	addi	a3,sp,12
 102:	6f6c                	ld	a1,216(a4)
 104:	676e                	ld	a4,216(sp)
 106:	6c20                	ld	s0,88(s0)
 108:	20676e6f          	jal	t3,7630e <_start-0x7ff89cf2>
 10c:	6e69                	lui	t3,0x1a
 10e:	0074                	addi	a3,sp,12
 110:	6f6c                	ld	a1,216(a4)
 112:	73617077          	.insn	4, 0x73617077
 116:	69730073          	.insn	4, 0x69730073
 11a:	5f6e                	lw	t5,248(sp)
 11c:	6174                	ld	a3,192(a0)
 11e:	6c62                	ld	s8,24(sp)
 120:	0065                	c.nop	25
 122:	726f6873          	csrrsi	a6,mhpmevent6h,30
 126:	2074                	fld	fa3,192(s0)
 128:	6e69                	lui	t3,0x1a
 12a:	0074                	addi	a3,sp,12
 12c:	6d6f682f          	.insn	4, 0x6d6f682f
 130:	2f65                	addiw	t5,t5,25
 132:	736a                	ld	t1,184(sp)
 134:	6974                	ld	a3,208(a0)
 136:	656e                	ld	a0,216(sp)
 138:	6563652f          	.insn	4, 0x6563652f
 13c:	346e                	fld	fs0,248(sp)
 13e:	3432                	fld	fs0,296(sp)
 140:	35325333          	.insn	4, 0x35325333
 144:	62616c2f          	.insn	4, 0x62616c2f
 148:	2f31                	addiw	t5,t5,12
 14a:	7865                	lui	a6,0xffff9
 14c:	6d61                	lui	s10,0x18
 14e:	6c70                	ld	a2,216(s0)
 150:	0065                	c.nop	25
 152:	6f6c                	ld	a1,216(a4)
 154:	676e                	ld	a4,216(sp)
 156:	6420                	ld	s0,72(s0)
 158:	6c62756f          	jal	a0,2781e <_start-0x7ffd87e2>
 15c:	0065                	c.nop	25
 15e:	53746573          	csrrsi	a0,0x537,8
 162:	6174                	ld	a3,192(a0)
 164:	7374                	ld	a3,224(a4)
 166:	6600                	ld	s0,8(a2)
 168:	7269                	lui	tp,0xffffa
 16a:	2e31                	addiw	t3,t3,12 # 1a00c <_start-0x7ffe5ff4>
 16c:	4e470053          	.insn	4, 0x4e470053
 170:	2055                	.insn	2, 0x2055
 172:	5341                	li	t1,-16
 174:	3220                	fld	fs0,96(a2)
 176:	342e                	fld	fs0,232(sp)
 178:	00312e33          	slt	t3,sp,gp
 17c:	2e2e                	fld	ft8,200(sp)
 17e:	6d6f632f          	.insn	4, 0x6d6f632f
 182:	6f6d                	lui	t5,0x1b
 184:	2f6e                	fld	ft10,216(sp)
 186:	2e747263          	bgeu	s0,t2,46a <_start-0x7ffffb96>
 18a:	75700053          	.insn	4, 0x75700053
 18e:	6474                	ld	a3,200(s0)
 190:	7461                	lui	s0,0xffff8
 192:	7300                	ld	s0,32(a4)
 194:	7274                	ld	a3,224(a2)
 196:	00706d63          	bltu	zero,t2,1b0 <_start-0x7ffffe50>
 19a:	6270                	ld	a2,192(a2)
 19c:	6675                	lui	a2,0x1d
 19e:	7300                	ld	s0,32(a4)
 1a0:	7a69                	lui	s4,0xffffa
 1a2:	5f65                	li	t5,-7
 1a4:	0074                	addi	a3,sp,12
 1a6:	7076                	.insn	2, 0x7076
 1a8:	6972                	ld	s2,280(sp)
 1aa:	746e                	ld	s0,248(sp)
 1ac:	6d66                	ld	s10,88(sp)
 1ae:	0074                	addi	a3,sp,12
 1b0:	5f5f 6975 746e      	.insn	6, 0x746e69755f5f
 1b6:	5f38                	lw	a4,120(a4)
 1b8:	0074                	addi	a3,sp,12
 1ba:	6168                	ld	a0,192(a0)
 1bc:	646e                	ld	s0,216(sp)
 1be:	656c                	ld	a1,200(a0)
 1c0:	745f 6172 0070      	.insn	6, 0x00706172745f
 1c6:	5f5f 7562 6c69      	.insn	6, 0x6c6975625f5f
 1cc:	6974                	ld	a3,208(a0)
 1ce:	5f6e                	lw	t5,248(sp)
 1d0:	656d                	lui	a0,0x1b
 1d2:	736d                	lui	t1,0xffffb
 1d4:	7465                	lui	s0,0xffff9
 1d6:	6100                	ld	s0,0(a0)
 1d8:	746c                	ld	a1,232(s0)
 1da:	6c66                	ld	s8,88(sp)
 1dc:	6761                	lui	a4,0x18
 1de:	7400                	ld	s0,40(s0)
 1e0:	7268                	ld	a0,224(a2)
 1e2:	6165                	addi	sp,sp,112
 1e4:	5f64                	lw	s1,124(a4)
 1e6:	6f70                	ld	a2,216(a4)
 1e8:	6e69                	lui	t3,0x1a
 1ea:	6574                	ld	a3,200(a0)
 1ec:	0072                	c.slli	zero,0x1c
 1ee:	6175                	addi	sp,sp,368
 1f0:	7472                	ld	s0,312(sp)
 1f2:	6e49                	lui	t3,0x12
 1f4:	7469                	lui	s0,0xffffa
 1f6:	7400                	ld	s0,40(s0)
 1f8:	6164                	ld	s1,192(a0)
 1fa:	6174                	ld	a3,192(a0)
 1fc:	735f 7a69 0065      	.insn	6, 0x00657a69735f
 202:	4155                	li	sp,21
 204:	5452                	lw	s0,52(sp)
 206:	4c5f 5243 6300      	.insn	6, 0x630052434c5f
 20c:	7561                	lui	a0,0xffff8
 20e:	5f006573          	csrrsi	a0,0x5f0,0
 212:	6474                	ld	a3,200(s0)
 214:	7461                	lui	s0,0xffff8
 216:	5f61                	li	t5,-8
 218:	6562                	ld	a0,24(sp)
 21a:	006e6967          	.insn	4, 0x006e6967
 21e:	5f5f 7562 6c69      	.insn	6, 0x6c6975625f5f
 224:	6974                	ld	a3,208(a0)
 226:	5f6e                	lw	t5,248(sp)
 228:	6176                	ld	sp,344(sp)
 22a:	6c5f 7369 0074      	.insn	6, 0x007473696c5f
 230:	7570                	ld	a2,232(a0)
 232:	6374                	ld	a3,192(a4)
 234:	6168                	ld	a0,192(a0)
 236:	0072                	c.slli	zero,0x1c
 238:	6e65                	lui	t3,0x19
 23a:	6261                	lui	tp,0x18
 23c:	656c                	ld	a1,200(a0)
 23e:	7300                	ld	s0,32(a4)
 240:	7270                	ld	a2,224(a2)
 242:	6e69                	lui	t3,0x1a
 244:	6674                	ld	a3,200(a2)
 246:	7300                	ld	s0,32(a4)
 248:	7274                	ld	a3,224(a2)
 24a:	0030                	addi	a2,sp,8
 24c:	6175                	addi	sp,sp,368
 24e:	7472                	ld	s0,312(sp)
 250:	6552                	ld	a0,272(sp)
 252:	76696563          	bltu	s2,t1,9bc <_start-0x7ffff644>
 256:	0065                	c.nop	25
 258:	6964                	ld	s1,208(a0)
 25a:	55007367          	.insn	4, 0x55007367
 25e:	5241                	li	tp,-16
 260:	5f54                	lw	a3,60(a4)
 262:	534c                	lw	a1,36(a4)
 264:	0052                	c.slli	zero,0x14
 266:	7962                	ld	s2,56(sp)
 268:	6574                	ld	a3,200(a0)
 26a:	5f00                	lw	s0,56(a4)
 26c:	745f 706d 7500      	.insn	6, 0x7500706d745f
 272:	7261                	lui	tp,0xffff8
 274:	5374                	lw	a3,100(a4)
 276:	6e65                	lui	t3,0x19
 278:	0064                	addi	s1,sp,12
 27a:	7270                	ld	a2,224(a2)
 27c:	7365636f          	jal	t1,569b2 <_start-0x7ffa964e>
 280:	72705f73          	csrrwi	t5,mhpmevent7h,0
 284:	6365                	lui	t1,0x19
 286:	7369                	lui	t1,0xffffa
 288:	6f69                	lui	t5,0x1a
 28a:	006e                	c.slli	zero,0x1b
 28c:	6c727473          	csrrci	s0,0x6c7,4
 290:	6e65                	lui	t3,0x19
 292:	7300                	ld	s0,32(a4)
 294:	7270                	ld	a2,224(a2)
 296:	6e69                	lui	t3,0x1a
 298:	6674                	ld	a3,200(a2)
 29a:	705f 7475 6863      	.insn	6, 0x68637475705f
 2a0:	6900                	ld	s0,16(a0)
 2a2:	696e                	ld	s2,216(sp)
 2a4:	5f74                	lw	a3,124(a4)
 2a6:	6c74                	ld	a3,216(s0)
 2a8:	41550073          	.insn	4, 0x41550073
 2ac:	5452                	lw	s0,52(sp)
 2ae:	545f 5248 7700      	.insn	6, 0x77005248545f
 2b4:	6469                	lui	s0,0x1a
 2b6:	6874                	ld	a3,208(s0)
 2b8:	6700                	ld	s0,8(a4)
 2ba:	7465                	lui	s0,0xffff9
 2bc:	6975                	lui	s2,0x1d
 2be:	746e                	ld	s0,248(sp)
 2c0:	6400                	ld	s0,8(s0)
 2c2:	7461                	lui	s0,0xffff8
 2c4:	0061                	c.nop	24
 2c6:	63727473          	csrrci	s0,0x637,4
 2ca:	7970                	ld	a2,240(a0)
 2cc:	5f00                	lw	s0,56(a4)
 2ce:	625f 6975 746c      	.insn	6, 0x746c6975625f
 2d4:	6e69                	lui	t3,0x1a
 2d6:	6d5f 6d65 7063      	.insn	6, 0x70636d656d5f
 2dc:	0079                	c.nop	30
 2de:	6e756f63          	bltu	a0,t2,9dc <_start-0x7ffff624>
 2e2:	6574                	ld	a3,200(a0)
 2e4:	7372                	ld	t1,312(sp)
 2e6:	6200                	ld	s0,0(a2)
 2e8:	7361                	lui	t1,0xffff8
 2ea:	0065                	c.nop	25
 2ec:	7570                	ld	a2,232(a0)
 2ee:	7374                	ld	a3,224(a4)
 2f0:	7500                	ld	s0,40(a0)
 2f2:	736e                	ld	t1,248(sp)
 2f4:	6769                	lui	a4,0x1a
 2f6:	656e                	ld	a0,216(sp)
 2f8:	5f64                	lw	s1,124(a4)
 2fa:	756e                	ld	a0,248(sp)
 2fc:	626d                	lui	tp,0x1b
 2fe:	7265                	lui	tp,0xffff9
 300:	7500                	ld	s0,40(a0)
 302:	7261                	lui	tp,0xffff8
 304:	5074                	lw	a3,100(s0)
 306:	7475                	lui	s0,0xffffd
 308:	00727453          	fadd.s	fs0,ft4,ft7
 30c:	5f5f 6e67 6375      	.insn	6, 0x63756e675f5f
 312:	765f 5f61 696c      	.insn	6, 0x696c5f61765f
 318:	77007473          	csrrci	s0,0x770,0
 31c:	0064726f          	jal	tp,47322 <_start-0x7ffb8cde>
 320:	666c                	ld	a1,200(a2)
 322:	616c                	ld	a1,192(a0)
 324:	616c0067          	jr	1558(s8) # b616 <_start-0x7fff49ea>
 328:	665f7473          	csrrci	s0,0x665,30
 32c:	746d                	lui	s0,0xffffb
 32e:	6400                	ld	s0,8(s0)
 330:	7365                	lui	t1,0xffff9
 332:	0074                	addi	a3,sp,12
 334:	745f 7362 5f73      	.insn	6, 0x5f737362745f
 33a:	6e65                	lui	t3,0x19
 33c:	0064                	addi	s1,sp,12
 33e:	5f5f 6975 746e      	.insn	6, 0x746e69755f5f
 344:	3436                	fld	fs0,360(sp)
 346:	745f 6700 7465      	.insn	6, 0x74656700745f
 34c:	6e69                	lui	t3,0x1a
 34e:	0074                	addi	a3,sp,12
 350:	7461                	lui	s0,0xffff8
 352:	74006c6f          	jal	s8,6a92 <_start-0x7fff956e>
 356:	736f686f          	jal	a6,f6a8c <_start-0x7ff09574>
 35a:	0074                	addi	a3,sp,12
 35c:	6e756f63          	bltu	a0,t2,a5a <_start-0x7ffff5a6>
 360:	6574                	ld	a3,200(a0)
 362:	5f72                	lw	t5,60(sp)
 364:	616e                	ld	sp,216(sp)
 366:	656d                	lui	a0,0x1b
 368:	5f5f0073          	.insn	4, 0x5f5f0073
 36c:	6975                	lui	s2,0x1d
 36e:	746e                	ld	s0,248(sp)
 370:	7470                	ld	a2,232(s0)
 372:	5f72                	lw	t5,60(sp)
 374:	0074                	addi	a3,sp,12
 376:	6274                	ld	a3,192(a2)
 378:	735f7373          	csrrci	t1,mhpmevent21h,30
 37c:	7a69                	lui	s4,0xffffa
 37e:	0065                	c.nop	25
 380:	6572                	ld	a0,280(sp)
 382:	70007367          	.insn	4, 0x70007367
 386:	6972                	ld	s2,280(sp)
 388:	746e                	ld	s0,248(sp)
 38a:	6568                	ld	a0,200(a0)
 38c:	0078                	addi	a4,sp,12
 38e:	7270                	ld	a2,224(a2)
 390:	6e69                	lui	t3,0x1a
 392:	7374                	ld	a3,224(a4)
 394:	7274                	ld	a3,224(a2)
 396:	5f00                	lw	s0,56(a4)
 398:	6e69                	lui	t3,0x1a
 39a:	7469                	lui	s0,0xffffa
 39c:	2e00                	fld	fs0,24(a2)
 39e:	2f2e                	fld	ft10,200(sp)
 3a0:	6d6d6f63          	bltu	s10,s6,a7e <_start-0x7ffff582>
 3a4:	732f6e6f          	jal	t3,f6ad6 <_start-0x7ff0952a>
 3a8:	7379                	lui	t1,0xffffe
 3aa:	6c6c6163          	bltu	s8,t1,a6c <_start-0x7ffff594>
 3ae:	00632e73          	csrrs	t3,0x6,t1
 3b2:	7270                	ld	a2,224(a2)
 3b4:	6e69                	lui	t3,0x1a
 3b6:	6e74                	ld	a3,216(a2)
 3b8:	6d75                	lui	s10,0x1d
 3ba:	6100                	ld	s0,0(a0)
 3bc:	6f62                	ld	t5,24(sp)
 3be:	7472                	ld	s0,312(sp)
 3c0:	5f00                	lw	s0,56(a4)
 3c2:	6474                	ld	a3,200(s0)
 3c4:	7461                	lui	s0,0xffff8
 3c6:	5f61                	li	t5,-8
 3c8:	6e65                	lui	t3,0x19
 3ca:	0064                	addi	s1,sp,12
 3cc:	7370                	ld	a2,224(a4)
 3ce:	7274                	ld	a3,224(a2)
 3d0:	7200                	ld	s0,32(a2)
 3d2:	7365                	lui	t1,0xffff9
 3d4:	63746977          	.insn	4, 0x63746977
 3d8:	0068                	addi	a0,sp,12
 3da:	65646f63          	bltu	s0,s6,a38 <_start-0x7ffff5c8>
 3de:	7300                	ld	s0,32(a4)
 3e0:	6769                	lui	a4,0x1a
 3e2:	006e                	c.slli	zero,0x1b
 3e4:	7261                	lui	tp,0xffff8
 3e6:	55006367          	.insn	4, 0x55006367
 3ea:	5241                	li	tp,-16
 3ec:	5f54                	lw	a3,60(a4)
 3ee:	4252                	lw	tp,20(sp)
 3f0:	0052                	c.slli	zero,0x14
 3f2:	6170                	ld	a2,192(a0)
 3f4:	6364                	ld	s1,192(a4)
 3f6:	6100                	ld	s0,0(a0)
 3f8:	6772                	ld	a4,280(sp)
 3fa:	0076                	c.slli	zero,0x1d
 3fc:	6e727473          	csrrci	s0,0x6e7,4
 400:	656c                	ld	a1,200(a0)
 402:	006e                	c.slli	zero,0x1b
 404:	6f74                	ld	a3,216(a4)
 406:	6f68                	ld	a0,216(a4)
 408:	655f7473          	csrrci	s0,hviph,30
 40c:	6978                	ld	a4,208(a0)
 40e:	0074                	addi	a3,sp,12
 410:	6874                	ld	a3,208(s0)
 412:	6572                	ld	a0,280(sp)
 414:	6461                	lui	s0,0x18
 416:	655f 746e 7972      	.insn	6, 0x7972746e655f
	...

Disassembly of section .comment:

0000000000000000 <.comment>:
   0:	3a434347          	fmsub.d	ft6,ft6,ft4,ft7,rmm
   4:	2820                	fld	fs0,80(s0)
   6:	2029                	.insn	2, 0x2029
   8:	3431                	addiw	s0,s0,-20 # 17fec <_start-0x7ffe8014>
   a:	322e                	fld	ft4,232(sp)
   c:	302e                	fld	ft0,232(sp)
	...

Disassembly of section .riscv.attributes:

0000000000000000 <.riscv.attributes>:
   0:	6941                	lui	s2,0x10
   2:	0000                	unimp
   4:	7200                	ld	s0,32(a2)
   6:	7369                	lui	t1,0xffffa
   8:	01007663          	bgeu	zero,a6,14 <_start-0x7fffffec>
   c:	005f 0000 1004      	.insn	6, 0x10040000005f
  12:	7205                	lui	tp,0xfffe1
  14:	3676                	fld	fa2,376(sp)
  16:	6934                	ld	a3,80(a0)
  18:	7032                	.insn	2, 0x7032
  1a:	5f31                	li	t5,-20
  1c:	326d                	addiw	tp,tp,-5 # fffffffffffe0ffb <__global_pointer$+0xffffffff7ffdf7b3>
  1e:	3070                	fld	fa2,224(s0)
  20:	615f 7032 5f31      	.insn	6, 0x5f317032615f
  26:	3266                	fld	ft4,120(sp)
  28:	3270                	fld	fa2,224(a2)
  2a:	645f 7032 5f32      	.insn	6, 0x5f327032645f
  30:	30703263          	.insn	4, 0x30703263
  34:	7a5f 6369 7273      	.insn	6, 0x727363697a5f
  3a:	7032                	.insn	2, 0x7032
  3c:	5f30                	lw	a2,120(a4)
  3e:	697a                	ld	s2,408(sp)
  40:	6566                	ld	a0,88(sp)
  42:	636e                	ld	t1,216(sp)
  44:	6965                	lui	s2,0x19
  46:	7032                	.insn	2, 0x7032
  48:	5f30                	lw	a2,120(a4)
  4a:	6d7a                	ld	s10,408(sp)
  4c:	756d                	lui	a0,0xffffb
  4e:	316c                	fld	fa1,224(a0)
  50:	3070                	fld	fa2,224(s0)
  52:	7a5f 6161 6f6d      	.insn	6, 0x6f6d61617a5f
  58:	7031                	c.lui	zero,0xfffec
  5a:	5f30                	lw	a2,120(a4)
  5c:	617a                	ld	sp,408(sp)
  5e:	726c                	ld	a1,224(a2)
  60:	70316373          	csrrsi	t1,0x703,2
  64:	0030                	addi	a2,sp,8
  66:	0108                	addi	a0,sp,128
  68:	0b0a                	slli	s6,s6,0x2

Disassembly of section .debug_frame:

0000000000000000 <.debug_frame>:
   0:	000c                	.insn	2, 0x000c
   2:	0000                	unimp
   4:	ffff                	.insn	2, 0xffff
   6:	ffff                	.insn	2, 0xffff
   8:	7c010003          	lb	zero,1984(sp)
   c:	0c01                	addi	s8,s8,0
   e:	0002                	c.slli64	zero
  10:	0034                	addi	a3,sp,8
  12:	0000                	unimp
  14:	0000                	unimp
  16:	0000                	unimp
  18:	08f0                	addi	a2,sp,92
  1a:	8000                	.insn	2, 0x8000
  1c:	0000                	unimp
  1e:	0000                	unimp
  20:	00fe                	slli	ra,ra,0x1f
  22:	0000                	unimp
  24:	0000                	unimp
  26:	0000                	unimp
  28:	0e7a                	slli	t3,t3,0x1e
  2a:	02a0                	addi	s0,sp,328
  2c:	8156                	mv	sp,s5
  2e:	8802                	jr	a6
  30:	8904                	.insn	2, 0x8904
  32:	9206                	add	tp,tp,ra
  34:	9308                	.insn	2, 0x9308
  36:	020a                	slli	tp,tp,0x2
  38:	0a9e                	slli	s5,s5,0x7
  3a:	42c1                	li	t0,16
  3c:	42c8                	lw	a0,4(a3)
  3e:	42c9                	li	t0,18
  40:	42d2                	lw	t0,20(sp)
  42:	000e42d3          	fadd.s	ft5,ft8,ft0,rmm
  46:	0b42                	slli	s6,s6,0x10
  48:	000c                	.insn	2, 0x000c
  4a:	0000                	unimp
  4c:	ffff                	.insn	2, 0xffff
  4e:	ffff                	.insn	2, 0xffff
  50:	7c010003          	lb	zero,1984(sp)
  54:	0c01                	addi	s8,s8,0
  56:	0002                	c.slli64	zero
  58:	0014                	.insn	2, 0x0014
  5a:	0000                	unimp
  5c:	0048                	addi	a0,sp,4
  5e:	0000                	unimp
  60:	01d0                	addi	a2,sp,196
  62:	8000                	.insn	2, 0x8000
  64:	0000                	unimp
  66:	0000                	unimp
  68:	0020                	addi	s0,sp,8
  6a:	0000                	unimp
  6c:	0000                	unimp
  6e:	0000                	unimp
  70:	007c                	addi	a5,sp,12
  72:	0000                	unimp
  74:	0048                	addi	a0,sp,4
  76:	0000                	unimp
  78:	01f0                	addi	a2,sp,204
  7a:	8000                	.insn	2, 0x8000
  7c:	0000                	unimp
  7e:	0000                	unimp
  80:	02d6                	slli	t0,t0,0x15
  82:	0000                	unimp
  84:	0000                	unimp
  86:	0000                	unimp
  88:	0e42                	slli	t3,t3,0x10
  8a:	02f0                	addi	a2,sp,332
  8c:	8858                	.insn	2, 0x8858
  8e:	8904                	.insn	2, 0x8904
  90:	9206                	add	tp,tp,ra
  92:	9408                	.insn	2, 0x9408
  94:	950c                	.insn	2, 0x950c
  96:	960e                	add	a2,a2,gp
  98:	9710                	.insn	2, 0x9710
  9a:	8112                	mv	sp,tp
  9c:	9302                	jalr	t1
  9e:	980a                	add	a6,a6,sp
  a0:	9914                	.insn	2, 0x9914
  a2:	9b16                	add	s6,s6,t0
  a4:	021a                	slli	tp,tp,0x6
  a6:	0a56                	slli	s4,s4,0x15
  a8:	42c1                	li	t0,16
  aa:	42c8                	lw	a0,4(a3)
  ac:	42c9                	li	t0,18
  ae:	42d2                	lw	t0,20(sp)
  b0:	42d442d3          	.insn	4, 0x42d442d3
  b4:	42d5                	li	t0,21
  b6:	42d6                	lw	t0,84(sp)
  b8:	42d842d7          	.insn	4, 0x42d842d7
  bc:	42d9                	li	t0,22
  be:	000e42db          	.insn	4, 0x000e42db
  c2:	0b42                	slli	s6,s6,0x10
  c4:	9202                	jalr	tp
  c6:	189a                	slli	a7,a7,0x26
  c8:	8002                	.insn	2, 0x8002
  ca:	4ada                	lw	s5,148(sp)
  cc:	189a                	slli	a7,a7,0x26
  ce:	da58                	sw	a4,52(a2)
  d0:	9a4e                	add	s4,s4,s3
  d2:	5418                	lw	a4,40(s0)
  d4:	42da                	lw	t0,148(sp)
  d6:	189a                	slli	a7,a7,0x26
  d8:	4802                	lw	a6,0(sp)
  da:	da0a                	sw	sp,52(sp)
  dc:	0b44                	addi	s1,sp,404
  de:	6002                	.insn	2, 0x6002
  e0:	60da                	ld	ra,400(sp)
  e2:	189a                	slli	a7,a7,0x26
  e4:	da4a                	sw	s2,52(sp)
  e6:	0a44                	addi	s1,sp,276
  e8:	189a                	slli	a7,a7,0x26
  ea:	0b42                	slli	s6,s6,0x10
  ec:	9a42                	add	s4,s4,a6
  ee:	0018                	.insn	2, 0x0018
  f0:	0014                	.insn	2, 0x0014
  f2:	0000                	unimp
  f4:	0048                	addi	a0,sp,4
  f6:	0000                	unimp
  f8:	04c6                	slli	s1,s1,0x11
  fa:	8000                	.insn	2, 0x8000
  fc:	0000                	unimp
  fe:	0000                	unimp
 100:	000e                	c.slli	zero,0x3
 102:	0000                	unimp
 104:	0000                	unimp
 106:	0000                	unimp
 108:	0014                	.insn	2, 0x0014
 10a:	0000                	unimp
 10c:	0048                	addi	a0,sp,4
 10e:	0000                	unimp
 110:	04d4                	addi	a3,sp,580
 112:	8000                	.insn	2, 0x8000
 114:	0000                	unimp
 116:	0000                	unimp
 118:	000c                	.insn	2, 0x000c
 11a:	0000                	unimp
 11c:	0000                	unimp
 11e:	0000                	unimp
 120:	0014                	.insn	2, 0x0014
 122:	0000                	unimp
 124:	0048                	addi	a0,sp,4
 126:	0000                	unimp
 128:	04e0                	addi	s0,sp,588
 12a:	8000                	.insn	2, 0x8000
 12c:	0000                	unimp
 12e:	0000                	unimp
 130:	001a                	c.slli	zero,0x6
 132:	0000                	unimp
 134:	0000                	unimp
 136:	0000                	unimp
 138:	0014                	.insn	2, 0x0014
 13a:	0000                	unimp
 13c:	0048                	addi	a0,sp,4
 13e:	0000                	unimp
 140:	04fa                	slli	s1,s1,0x1e
 142:	8000                	.insn	2, 0x8000
 144:	0000                	unimp
 146:	0000                	unimp
 148:	0018                	.insn	2, 0x0018
 14a:	0000                	unimp
 14c:	0000                	unimp
 14e:	0000                	unimp
 150:	0014                	.insn	2, 0x0014
 152:	0000                	unimp
 154:	0048                	addi	a0,sp,4
 156:	0000                	unimp
 158:	0512                	slli	a0,a0,0x4
 15a:	8000                	.insn	2, 0x8000
 15c:	0000                	unimp
 15e:	0000                	unimp
 160:	0028                	addi	a0,sp,8
 162:	0000                	unimp
 164:	0000                	unimp
 166:	0000                	unimp
 168:	0014                	.insn	2, 0x0014
 16a:	0000                	unimp
 16c:	0048                	addi	a0,sp,4
 16e:	0000                	unimp
 170:	053a                	slli	a0,a0,0xe
 172:	8000                	.insn	2, 0x8000
 174:	0000                	unimp
 176:	0000                	unimp
 178:	003a                	c.slli	zero,0xe
 17a:	0000                	unimp
 17c:	0000                	unimp
 17e:	0000                	unimp
 180:	0014                	.insn	2, 0x0014
 182:	0000                	unimp
 184:	0048                	addi	a0,sp,4
 186:	0000                	unimp
 188:	0574                	addi	a3,sp,652
 18a:	8000                	.insn	2, 0x8000
 18c:	0000                	unimp
 18e:	0000                	unimp
 190:	0012                	c.slli	zero,0x4
 192:	0000                	unimp
 194:	0000                	unimp
 196:	0000                	unimp
 198:	0014                	.insn	2, 0x0014
 19a:	0000                	unimp
 19c:	0048                	addi	a0,sp,4
 19e:	0000                	unimp
 1a0:	0586                	slli	a1,a1,0x1
 1a2:	8000                	.insn	2, 0x8000
 1a4:	0000                	unimp
 1a6:	0000                	unimp
 1a8:	0010                	.insn	2, 0x0010
 1aa:	0000                	unimp
 1ac:	0000                	unimp
 1ae:	0000                	unimp
 1b0:	001c                	.insn	2, 0x001c
 1b2:	0000                	unimp
 1b4:	0048                	addi	a0,sp,4
 1b6:	0000                	unimp
 1b8:	0596                	slli	a1,a1,0x5
 1ba:	8000                	.insn	2, 0x8000
 1bc:	0000                	unimp
 1be:	0000                	unimp
 1c0:	0008                	.insn	2, 0x0008
 1c2:	0000                	unimp
 1c4:	0000                	unimp
 1c6:	0000                	unimp
 1c8:	0e42                	slli	t3,t3,0x10
 1ca:	4210                	lw	a2,0(a2)
 1cc:	0281                	addi	t0,t0,0
 1ce:	0000                	unimp
 1d0:	0014                	.insn	2, 0x0014
 1d2:	0000                	unimp
 1d4:	0048                	addi	a0,sp,4
 1d6:	0000                	unimp
 1d8:	059e                	slli	a1,a1,0x7
 1da:	8000                	.insn	2, 0x8000
 1dc:	0000                	unimp
 1de:	0000                	unimp
 1e0:	000e                	c.slli	zero,0x3
 1e2:	0000                	unimp
 1e4:	0000                	unimp
 1e6:	0000                	unimp
 1e8:	0014                	.insn	2, 0x0014
 1ea:	0000                	unimp
 1ec:	0048                	addi	a0,sp,4
 1ee:	0000                	unimp
 1f0:	05ac                	addi	a1,sp,712
 1f2:	8000                	.insn	2, 0x8000
 1f4:	0000                	unimp
 1f6:	0000                	unimp
 1f8:	0028                	addi	a0,sp,8
 1fa:	0000                	unimp
 1fc:	0000                	unimp
 1fe:	0000                	unimp
 200:	0014                	.insn	2, 0x0014
 202:	0000                	unimp
 204:	0048                	addi	a0,sp,4
 206:	0000                	unimp
 208:	05d4                	addi	a3,sp,708
 20a:	8000                	.insn	2, 0x8000
 20c:	0000                	unimp
 20e:	0000                	unimp
 210:	002a                	c.slli	zero,0xa
 212:	0000                	unimp
 214:	0000                	unimp
 216:	0000                	unimp
 218:	0014                	.insn	2, 0x0014
 21a:	0000                	unimp
 21c:	0048                	addi	a0,sp,4
 21e:	0000                	unimp
 220:	05fe                	slli	a1,a1,0x1f
 222:	8000                	.insn	2, 0x8000
 224:	0000                	unimp
 226:	0000                	unimp
 228:	0006                	c.slli	zero,0x1
 22a:	0000                	unimp
 22c:	0000                	unimp
 22e:	0000                	unimp
 230:	0024                	addi	s1,sp,8
 232:	0000                	unimp
 234:	0048                	addi	a0,sp,4
 236:	0000                	unimp
 238:	09ee                	slli	s3,s3,0x1b
 23a:	8000                	.insn	2, 0x8000
 23c:	0000                	unimp
 23e:	0000                	unimp
 240:	0018                	.insn	2, 0x0018
 242:	0000                	unimp
 244:	0000                	unimp
 246:	0000                	unimp
 248:	0e42                	slli	t3,t3,0x10
 24a:	4a10                	lw	a2,16(a2)
 24c:	0281                	addi	t0,t0,0
 24e:	c146                	sw	a7,128(sp)
 250:	0e44                	addi	s1,sp,788
 252:	0000                	unimp
 254:	0000                	unimp
 256:	0000                	unimp
 258:	001c                	.insn	2, 0x001c
 25a:	0000                	unimp
 25c:	0048                	addi	a0,sp,4
 25e:	0000                	unimp
 260:	0604                	addi	s1,sp,768
 262:	8000                	.insn	2, 0x8000
 264:	0000                	unimp
 266:	0000                	unimp
 268:	0060                	addi	s0,sp,12
 26a:	0000                	unimp
 26c:	0000                	unimp
 26e:	0000                	unimp
 270:	0e42                	slli	t3,t3,0x10
 272:	0220                	addi	s0,sp,264
 274:	0e5c                	addi	a5,sp,788
 276:	0000                	unimp
 278:	0024                	addi	s1,sp,8
 27a:	0000                	unimp
 27c:	0048                	addi	a0,sp,4
 27e:	0000                	unimp
 280:	0664                	addi	s1,sp,780
 282:	8000                	.insn	2, 0x8000
 284:	0000                	unimp
 286:	0000                	unimp
 288:	0032                	c.slli	zero,0xc
 28a:	0000                	unimp
 28c:	0000                	unimp
 28e:	0000                	unimp
 290:	0e42                	slli	t3,t3,0x10
 292:	5a60                	lw	s0,116(a2)
 294:	1281                	addi	t0,t0,-32
 296:	c150                	sw	a2,4(a0)
 298:	0e44                	addi	s1,sp,788
 29a:	0000                	unimp
 29c:	0000                	unimp
 29e:	0000                	unimp
 2a0:	0024                	addi	s1,sp,8
 2a2:	0000                	unimp
 2a4:	0048                	addi	a0,sp,4
 2a6:	0000                	unimp
 2a8:	0696                	slli	a3,a3,0x5
 2aa:	8000                	.insn	2, 0x8000
 2ac:	0000                	unimp
 2ae:	0000                	unimp
 2b0:	0040                	addi	s0,sp,4
 2b2:	0000                	unimp
 2b4:	0000                	unimp
 2b6:	0000                	unimp
 2b8:	0e42                	slli	t3,t3,0x10
 2ba:	4c60                	lw	s0,92(s0)
 2bc:	1088                	addi	a0,sp,96
 2be:	8152                	mv	sp,s4
 2c0:	580e                	lw	a6,224(sp)
 2c2:	44c1                	li	s1,16
 2c4:	42c8                	lw	a0,4(a3)
 2c6:	000e                	c.slli	zero,0x3
 2c8:	0014                	.insn	2, 0x0014
 2ca:	0000                	unimp
 2cc:	0048                	addi	a0,sp,4
 2ce:	0000                	unimp
 2d0:	06d6                	slli	a3,a3,0x15
 2d2:	8000                	.insn	2, 0x8000
 2d4:	0000                	unimp
 2d6:	0000                	unimp
 2d8:	0040                	addi	s0,sp,4
 2da:	0000                	unimp
 2dc:	0000                	unimp
 2de:	0000                	unimp
 2e0:	0014                	.insn	2, 0x0014
 2e2:	0000                	unimp
 2e4:	0048                	addi	a0,sp,4
 2e6:	0000                	unimp
 2e8:	0716                	slli	a4,a4,0x5
 2ea:	8000                	.insn	2, 0x8000
 2ec:	0000                	unimp
 2ee:	0000                	unimp
 2f0:	004a                	c.slli	zero,0x12
 2f2:	0000                	unimp
 2f4:	0000                	unimp
 2f6:	0000                	unimp
 2f8:	002c                	addi	a1,sp,8
 2fa:	0000                	unimp
 2fc:	0048                	addi	a0,sp,4
 2fe:	0000                	unimp
 300:	0760                	addi	s0,sp,908
 302:	8000                	.insn	2, 0x8000
 304:	0000                	unimp
 306:	0000                	unimp
 308:	00b8                	addi	a4,sp,72
 30a:	0000                	unimp
 30c:	0000                	unimp
 30e:	0000                	unimp
 310:	0e42                	slli	t3,t3,0x10
 312:	01b0                	addi	a2,sp,200
 314:	9346                	add	t1,t1,a7
 316:	460a                	lw	a2,128(sp)
 318:	0c94                	addi	a3,sp,592
 31a:	8948                	.insn	2, 0x8948
 31c:	9206                	add	tp,tp,ra
 31e:	5008                	lw	a0,32(s0)
 320:	0281                	addi	t0,t0,0
 322:	0488                	addi	a0,sp,576
 324:	0e95                	addi	t4,t4,5
 326:	0000                	unimp
 328:	0014                	.insn	2, 0x0014
 32a:	0000                	unimp
 32c:	0048                	addi	a0,sp,4
 32e:	0000                	unimp
 330:	0818                	addi	a4,sp,16
 332:	8000                	.insn	2, 0x8000
 334:	0000                	unimp
 336:	0000                	unimp
 338:	001a                	c.slli	zero,0x6
 33a:	0000                	unimp
 33c:	0000                	unimp
 33e:	0000                	unimp
 340:	0014                	.insn	2, 0x0014
 342:	0000                	unimp
 344:	0048                	addi	a0,sp,4
 346:	0000                	unimp
 348:	0832                	slli	a6,a6,0xc
 34a:	8000                	.insn	2, 0x8000
 34c:	0000                	unimp
 34e:	0000                	unimp
 350:	0020                	addi	s0,sp,8
 352:	0000                	unimp
 354:	0000                	unimp
 356:	0000                	unimp
 358:	0014                	.insn	2, 0x0014
 35a:	0000                	unimp
 35c:	0048                	addi	a0,sp,4
 35e:	0000                	unimp
 360:	0852                	slli	a6,a6,0x14
 362:	8000                	.insn	2, 0x8000
 364:	0000                	unimp
 366:	0000                	unimp
 368:	001e                	c.slli	zero,0x7
 36a:	0000                	unimp
 36c:	0000                	unimp
 36e:	0000                	unimp
 370:	0014                	.insn	2, 0x0014
 372:	0000                	unimp
 374:	0048                	addi	a0,sp,4
 376:	0000                	unimp
 378:	0870                	addi	a2,sp,28
 37a:	8000                	.insn	2, 0x8000
 37c:	0000                	unimp
 37e:	0000                	unimp
 380:	0012                	c.slli	zero,0x4
 382:	0000                	unimp
 384:	0000                	unimp
 386:	0000                	unimp
 388:	0014                	.insn	2, 0x0014
 38a:	0000                	unimp
 38c:	0048                	addi	a0,sp,4
 38e:	0000                	unimp
 390:	0882                	c.slli64	a7
 392:	8000                	.insn	2, 0x8000
 394:	0000                	unimp
 396:	0000                	unimp
 398:	006e                	c.slli	zero,0x1b
 39a:	0000                	unimp
 39c:	0000                	unimp
	...
