
fir1:     file format elf64-littleriscv


Disassembly of section .text.init:

0000000080000000 <_start>:
#endif

  .section ".text.init"
  .globl _start
_start:
  li  x1, 0
    80000000:	4081                	li	ra,0
  li  x2, 0
    80000002:	4101                	li	sp,0
  li  x3, 0
    80000004:	4181                	li	gp,0
  li  x4, 0
    80000006:	4201                	li	tp,0
  li  x5, 0
    80000008:	4281                	li	t0,0
  li  x6, 0
    8000000a:	4301                	li	t1,0
  li  x7, 0
    8000000c:	4381                	li	t2,0
  li  x8, 0
    8000000e:	4401                	li	s0,0
  li  x9, 0
    80000010:	4481                	li	s1,0
  li  x10,0
    80000012:	4501                	li	a0,0
  li  x11,0
    80000014:	4581                	li	a1,0
  li  x12,0
    80000016:	4601                	li	a2,0
  li  x13,0
    80000018:	4681                	li	a3,0
  li  x14,0
    8000001a:	4701                	li	a4,0
  li  x15,0
    8000001c:	4781                	li	a5,0
  li  x16,0
    8000001e:	4801                	li	a6,0
  li  x17,0
    80000020:	4881                	li	a7,0
  li  x18,0
    80000022:	4901                	li	s2,0
  li  x19,0
    80000024:	4981                	li	s3,0
  li  x20,0
    80000026:	4a01                	li	s4,0
  li  x21,0
    80000028:	4a81                	li	s5,0
  li  x22,0
    8000002a:	4b01                	li	s6,0
  li  x23,0
    8000002c:	4b81                	li	s7,0
  li  x24,0
    8000002e:	4c01                	li	s8,0
  li  x25,0
    80000030:	4c81                	li	s9,0
  li  x26,0
    80000032:	4d01                	li	s10,0
  li  x27,0
    80000034:	4d81                	li	s11,0
  li  x28,0
    80000036:	4e01                	li	t3,0
  li  x29,0
    80000038:	4e81                	li	t4,0
  li  x30,0
    8000003a:	4f01                	li	t5,0
  li  x31,0
    8000003c:	4f81                	li	t6,0

  # enable FPU and accelerator if present
  li t0, MSTATUS_FS | MSTATUS_XS
    8000003e:	62f9                	lui	t0,0x1e
  csrs mstatus, t0
    80000040:	3002a073          	csrs	mstatus,t0

  # make sure XLEN agrees with compilation choice
  li t0, 1
    80000044:	4285                	li	t0,1
  slli t0, t0, 31
    80000046:	02fe                	slli	t0,t0,0x1f
#if __riscv_xlen == 64
  bgez t0, 1f
    80000048:	0002d863          	bgez	t0,80000058 <_start+0x58>
#else
  bltz t0, 1f
#endif
2:
  li a0, 1
    8000004c:	4505                	li	a0,1
  sw a0, tohost, t0
    8000004e:	00001297          	auipc	t0,0x1
    80000052:	faa2a923          	sw	a0,-78(t0) # 80001000 <tohost>
  j 2b
    80000056:	bfdd                	j	8000004c <_start+0x4c>
1:

#ifdef __riscv_flen
  # initialize FPU if we have one
  la t0, 1f
    80000058:	00000297          	auipc	t0,0x0
    8000005c:	09028293          	addi	t0,t0,144 # 800000e8 <_start+0xe8>
  csrw mtvec, t0
    80000060:	30529073          	csrw	mtvec,t0

  fssr    x0
    80000064:	00301073          	fscsr	zero
  fmv.s.x f0, x0
    80000068:	f0000053          	fmv.w.x	ft0,zero
  fmv.s.x f1, x0
    8000006c:	f00000d3          	fmv.w.x	ft1,zero
  fmv.s.x f2, x0
    80000070:	f0000153          	fmv.w.x	ft2,zero
  fmv.s.x f3, x0
    80000074:	f00001d3          	fmv.w.x	ft3,zero
  fmv.s.x f4, x0
    80000078:	f0000253          	fmv.w.x	ft4,zero
  fmv.s.x f5, x0
    8000007c:	f00002d3          	fmv.w.x	ft5,zero
  fmv.s.x f6, x0
    80000080:	f0000353          	fmv.w.x	ft6,zero
  fmv.s.x f7, x0
    80000084:	f00003d3          	fmv.w.x	ft7,zero
  fmv.s.x f8, x0
    80000088:	f0000453          	fmv.w.x	fs0,zero
  fmv.s.x f9, x0
    8000008c:	f00004d3          	fmv.w.x	fs1,zero
  fmv.s.x f10,x0
    80000090:	f0000553          	fmv.w.x	fa0,zero
  fmv.s.x f11,x0
    80000094:	f00005d3          	fmv.w.x	fa1,zero
  fmv.s.x f12,x0
    80000098:	f0000653          	fmv.w.x	fa2,zero
  fmv.s.x f13,x0
    8000009c:	f00006d3          	fmv.w.x	fa3,zero
  fmv.s.x f14,x0
    800000a0:	f0000753          	fmv.w.x	fa4,zero
  fmv.s.x f15,x0
    800000a4:	f00007d3          	fmv.w.x	fa5,zero
  fmv.s.x f16,x0
    800000a8:	f0000853          	fmv.w.x	fa6,zero
  fmv.s.x f17,x0
    800000ac:	f00008d3          	fmv.w.x	fa7,zero
  fmv.s.x f18,x0
    800000b0:	f0000953          	fmv.w.x	fs2,zero
  fmv.s.x f19,x0
    800000b4:	f00009d3          	fmv.w.x	fs3,zero
  fmv.s.x f20,x0
    800000b8:	f0000a53          	fmv.w.x	fs4,zero
  fmv.s.x f21,x0
    800000bc:	f0000ad3          	fmv.w.x	fs5,zero
  fmv.s.x f22,x0
    800000c0:	f0000b53          	fmv.w.x	fs6,zero
  fmv.s.x f23,x0
    800000c4:	f0000bd3          	fmv.w.x	fs7,zero
  fmv.s.x f24,x0
    800000c8:	f0000c53          	fmv.w.x	fs8,zero
  fmv.s.x f25,x0
    800000cc:	f0000cd3          	fmv.w.x	fs9,zero
  fmv.s.x f26,x0
    800000d0:	f0000d53          	fmv.w.x	fs10,zero
  fmv.s.x f27,x0
    800000d4:	f0000dd3          	fmv.w.x	fs11,zero
  fmv.s.x f28,x0
    800000d8:	f0000e53          	fmv.w.x	ft8,zero
  fmv.s.x f29,x0
    800000dc:	f0000ed3          	fmv.w.x	ft9,zero
  fmv.s.x f30,x0
    800000e0:	f0000f53          	fmv.w.x	ft10,zero
  fmv.s.x f31,x0
    800000e4:	f0000fd3          	fmv.w.x	ft11,zero
1:
#endif

  # initialize trap vector
  la t0, trap_entry
    800000e8:	00000297          	auipc	t0,0x0
    800000ec:	03828293          	addi	t0,t0,56 # 80000120 <trap_entry>
  csrw mtvec, t0
    800000f0:	30529073          	csrw	mtvec,t0

  # initialize global pointer
.option push
.option norelax
  la gp, __global_pointer$
    800000f4:	00001197          	auipc	gp,0x1
    800000f8:	75418193          	addi	gp,gp,1876 # 80001848 <__global_pointer$>
.option pop

  la  tp, _end + 63
    800000fc:	abf18213          	addi	tp,gp,-1345 # 80001307 <_end+0x3f>
  and tp, tp, -64
    80000100:	fc027213          	andi	tp,tp,-64

  # get core id
  csrr a0, mhartid
    80000104:	f1402573          	csrr	a0,mhartid
  # for now, assume only 1 core
  li a1, 1
    80000108:	4585                	li	a1,1
1:bgeu a0, a1, 1b
    8000010a:	00b57063          	bgeu	a0,a1,8000010a <_start+0x10a>

  # give each core 128KB of stack + TLS
#define STKSHIFT 17
  add sp, a0, 1
    8000010e:	00150113          	addi	sp,a0,1
  sll sp, sp, STKSHIFT
    80000112:	0146                	slli	sp,sp,0x11
  add sp, sp, tp
    80000114:	9112                	add	sp,sp,tp
  sll a2, a0, STKSHIFT
    80000116:	01151613          	slli	a2,a0,0x11
  add tp, tp, a2
    8000011a:	9232                	add	tp,tp,a2

  j _init
    8000011c:	6440006f          	j	80000760 <_init>

0000000080000120 <trap_entry>:

  .align 2
trap_entry:
  addi sp, sp, -272
    80000120:	716d                	addi	sp,sp,-272

  SREG x1, 1*REGBYTES(sp)
    80000122:	e406                	sd	ra,8(sp)
  SREG x2, 2*REGBYTES(sp)
    80000124:	e80a                	sd	sp,16(sp)
  SREG x3, 3*REGBYTES(sp)
    80000126:	ec0e                	sd	gp,24(sp)
  SREG x4, 4*REGBYTES(sp)
    80000128:	f012                	sd	tp,32(sp)
  SREG x5, 5*REGBYTES(sp)
    8000012a:	f416                	sd	t0,40(sp)
  SREG x6, 6*REGBYTES(sp)
    8000012c:	f81a                	sd	t1,48(sp)
  SREG x7, 7*REGBYTES(sp)
    8000012e:	fc1e                	sd	t2,56(sp)
  SREG x8, 8*REGBYTES(sp)
    80000130:	e0a2                	sd	s0,64(sp)
  SREG x9, 9*REGBYTES(sp)
    80000132:	e4a6                	sd	s1,72(sp)
  SREG x10, 10*REGBYTES(sp)
    80000134:	e8aa                	sd	a0,80(sp)
  SREG x11, 11*REGBYTES(sp)
    80000136:	ecae                	sd	a1,88(sp)
  SREG x12, 12*REGBYTES(sp)
    80000138:	f0b2                	sd	a2,96(sp)
  SREG x13, 13*REGBYTES(sp)
    8000013a:	f4b6                	sd	a3,104(sp)
  SREG x14, 14*REGBYTES(sp)
    8000013c:	f8ba                	sd	a4,112(sp)
  SREG x15, 15*REGBYTES(sp)
    8000013e:	fcbe                	sd	a5,120(sp)
  SREG x16, 16*REGBYTES(sp)
    80000140:	e142                	sd	a6,128(sp)
  SREG x17, 17*REGBYTES(sp)
    80000142:	e546                	sd	a7,136(sp)
  SREG x18, 18*REGBYTES(sp)
    80000144:	e94a                	sd	s2,144(sp)
  SREG x19, 19*REGBYTES(sp)
    80000146:	ed4e                	sd	s3,152(sp)
  SREG x20, 20*REGBYTES(sp)
    80000148:	f152                	sd	s4,160(sp)
  SREG x21, 21*REGBYTES(sp)
    8000014a:	f556                	sd	s5,168(sp)
  SREG x22, 22*REGBYTES(sp)
    8000014c:	f95a                	sd	s6,176(sp)
  SREG x23, 23*REGBYTES(sp)
    8000014e:	fd5e                	sd	s7,184(sp)
  SREG x24, 24*REGBYTES(sp)
    80000150:	e1e2                	sd	s8,192(sp)
  SREG x25, 25*REGBYTES(sp)
    80000152:	e5e6                	sd	s9,200(sp)
  SREG x26, 26*REGBYTES(sp)
    80000154:	e9ea                	sd	s10,208(sp)
  SREG x27, 27*REGBYTES(sp)
    80000156:	edee                	sd	s11,216(sp)
  SREG x28, 28*REGBYTES(sp)
    80000158:	f1f2                	sd	t3,224(sp)
  SREG x29, 29*REGBYTES(sp)
    8000015a:	f5f6                	sd	t4,232(sp)
  SREG x30, 30*REGBYTES(sp)
    8000015c:	f9fa                	sd	t5,240(sp)
  SREG x31, 31*REGBYTES(sp)
    8000015e:	fdfe                	sd	t6,248(sp)

  csrr a0, mcause
    80000160:	34202573          	csrr	a0,mcause
  csrr a1, mepc
    80000164:	341025f3          	csrr	a1,mepc
  mv a2, sp
    80000168:	860a                	mv	a2,sp
  jal handle_trap
    8000016a:	41c000ef          	jal	80000586 <handle_trap>
  csrw mepc, a0
    8000016e:	34151073          	csrw	mepc,a0

  # Remain in M-mode after eret
  li t0, MSTATUS_MPP
    80000172:	6289                	lui	t0,0x2
    80000174:	8002829b          	addiw	t0,t0,-2048 # 1800 <_start-0x7fffe800>
  csrs mstatus, t0
    80000178:	3002a073          	csrs	mstatus,t0

  LREG x1, 1*REGBYTES(sp)
    8000017c:	60a2                	ld	ra,8(sp)
  LREG x2, 2*REGBYTES(sp)
    8000017e:	6142                	ld	sp,16(sp)
  LREG x3, 3*REGBYTES(sp)
    80000180:	61e2                	ld	gp,24(sp)
  LREG x4, 4*REGBYTES(sp)
    80000182:	7202                	ld	tp,32(sp)
  LREG x5, 5*REGBYTES(sp)
    80000184:	72a2                	ld	t0,40(sp)
  LREG x6, 6*REGBYTES(sp)
    80000186:	7342                	ld	t1,48(sp)
  LREG x7, 7*REGBYTES(sp)
    80000188:	73e2                	ld	t2,56(sp)
  LREG x8, 8*REGBYTES(sp)
    8000018a:	6406                	ld	s0,64(sp)
  LREG x9, 9*REGBYTES(sp)
    8000018c:	64a6                	ld	s1,72(sp)
  LREG x10, 10*REGBYTES(sp)
    8000018e:	6546                	ld	a0,80(sp)
  LREG x11, 11*REGBYTES(sp)
    80000190:	65e6                	ld	a1,88(sp)
  LREG x12, 12*REGBYTES(sp)
    80000192:	7606                	ld	a2,96(sp)
  LREG x13, 13*REGBYTES(sp)
    80000194:	76a6                	ld	a3,104(sp)
  LREG x14, 14*REGBYTES(sp)
    80000196:	7746                	ld	a4,112(sp)
  LREG x15, 15*REGBYTES(sp)
    80000198:	77e6                	ld	a5,120(sp)
  LREG x16, 16*REGBYTES(sp)
    8000019a:	680a                	ld	a6,128(sp)
  LREG x17, 17*REGBYTES(sp)
    8000019c:	68aa                	ld	a7,136(sp)
  LREG x18, 18*REGBYTES(sp)
    8000019e:	694a                	ld	s2,144(sp)
  LREG x19, 19*REGBYTES(sp)
    800001a0:	69ea                	ld	s3,152(sp)
  LREG x20, 20*REGBYTES(sp)
    800001a2:	7a0a                	ld	s4,160(sp)
  LREG x21, 21*REGBYTES(sp)
    800001a4:	7aaa                	ld	s5,168(sp)
  LREG x22, 22*REGBYTES(sp)
    800001a6:	7b4a                	ld	s6,176(sp)
  LREG x23, 23*REGBYTES(sp)
    800001a8:	7bea                	ld	s7,184(sp)
  LREG x24, 24*REGBYTES(sp)
    800001aa:	6c0e                	ld	s8,192(sp)
  LREG x25, 25*REGBYTES(sp)
    800001ac:	6cae                	ld	s9,200(sp)
  LREG x26, 26*REGBYTES(sp)
    800001ae:	6d4e                	ld	s10,208(sp)
  LREG x27, 27*REGBYTES(sp)
    800001b0:	6dee                	ld	s11,216(sp)
  LREG x28, 28*REGBYTES(sp)
    800001b2:	7e0e                	ld	t3,224(sp)
  LREG x29, 29*REGBYTES(sp)
    800001b4:	7eae                	ld	t4,232(sp)
  LREG x30, 30*REGBYTES(sp)
    800001b6:	7f4e                	ld	t5,240(sp)
  LREG x31, 31*REGBYTES(sp)
    800001b8:	7fee                	ld	t6,248(sp)

  addi sp, sp, 272
    800001ba:	6151                	addi	sp,sp,272
  mret
    800001bc:	30200073          	mret
	...

Disassembly of section .text:

00000000800001c2 <fir>:

.global fir

fir:

	lw   t1, 4(a0)	    # t1 = x[0+4];
    800001c2:	00452303          	lw	t1,4(a0)
	lw   t2, 4(a1)	    # t2 = c[0+4];
    800001c6:	0045a383          	lw	t2,4(a1)
	addi t3, zero, 42	
    800001ca:	02a00e13          	li	t3,42

00000000800001ce <donej>:
	

donej:
    ret                 # all done; return	
    800001ce:	8082                	ret

00000000800001d0 <putchar>:

void uartSend(char c) {
  volatile uint8_t *UART_THR = (uint8_t*)0x10000000;
  volatile uint8_t *UART_LSR = (uint8_t*)0x10000005;

	while (!(*UART_LSR & (1<<5))); // wait for THRE (trans hold reg empty)
    800001d0:	10000737          	lui	a4,0x10000
#undef putchar
int putchar(int ch)
{
  // David_Harris@hmc.edu 11/30/2024
  // Replaced syscall with uartSend
  uartSend(ch);
    800001d4:	0ff57513          	zext.b	a0,a0
	while (!(*UART_LSR & (1<<5))); // wait for THRE (trans hold reg empty)
    800001d8:	0715                	addi	a4,a4,5 # 10000005 <_start-0x6ffffffb>
    800001da:	100006b7          	lui	a3,0x10000
    800001de:	00074783          	lbu	a5,0(a4)
    800001e2:	0207f793          	andi	a5,a5,32
    800001e6:	dfe5                	beqz	a5,800001de <putchar+0xe>
	*UART_THR = c;
    800001e8:	00a68023          	sb	a0,0(a3) # 10000000 <_start-0x70000000>
    syscall(SYS_write, 1, (uintptr_t)buf, buflen);
    buflen = 0;
  } */

  return 0;
}
    800001ec:	4501                	li	a0,0
    800001ee:	8082                	ret

00000000800001f0 <vprintfmt>:
  else
    return va_arg(*ap, int);
}

static void vprintfmt(void (*putch)(int, void**), void **putdat, const char *fmt, va_list ap)
{
    800001f0:	7149                	addi	sp,sp,-368
    800001f2:	f2a2                	sd	s0,352(sp)
    800001f4:	eea6                	sd	s1,344(sp)
    800001f6:	eaca                	sd	s2,336(sp)
    800001f8:	e2d2                	sd	s4,320(sp)
    800001fa:	fe56                	sd	s5,312(sp)
    800001fc:	fa5a                	sd	s6,304(sp)
    800001fe:	f65e                	sd	s7,296(sp)
    80000200:	f686                	sd	ra,360(sp)
    80000202:	e6ce                	sd	s3,328(sp)
    80000204:	f262                	sd	s8,288(sp)
    80000206:	ee66                	sd	s9,280(sp)
    80000208:	e66e                	sd	s11,264(sp)
    8000020a:	892a                	mv	s2,a0
    8000020c:	84ae                	mv	s1,a1
    8000020e:	8432                	mv	s0,a2
    80000210:	8bb6                	mv	s7,a3
  unsigned long long num;
  int base, lflag, width, precision, altflag;
  char padc;

  while (1) {
    while ((ch = *(unsigned char *) fmt) != '%') {
    80000212:	02500a13          	li	s4,37
    width = -1;
    precision = -1;
    lflag = 0;
    altflag = 0;
  reswitch:
    switch (ch = *(unsigned char *) fmt++) {
    80000216:	05500b13          	li	s6,85
    8000021a:	90418a93          	addi	s5,gp,-1788 # 8000114c <fromhost+0x10c>
    8000021e:	a029                	j	80000228 <vprintfmt+0x38>
      if (ch == '\0')
    80000220:	cd1d                	beqz	a0,8000025e <vprintfmt+0x6e>
      putch(ch, putdat);
    80000222:	85a6                	mv	a1,s1
      fmt++;
    80000224:	0405                	addi	s0,s0,1
      putch(ch, putdat);
    80000226:	9902                	jalr	s2
    while ((ch = *(unsigned char *) fmt) != '%') {
    80000228:	00044503          	lbu	a0,0(s0)
    8000022c:	ff451ae3          	bne	a0,s4,80000220 <vprintfmt+0x30>
    switch (ch = *(unsigned char *) fmt++) {
    80000230:	00144683          	lbu	a3,1(s0)
    fmt++;
    80000234:	00140993          	addi	s3,s0,1
    precision = -1;
    80000238:	5c7d                	li	s8,-1
    fmt++;
    8000023a:	874e                	mv	a4,s3
    width = -1;
    8000023c:	8de2                	mv	s11,s8
    padc = ' ';
    8000023e:	02000c93          	li	s9,32
    lflag = 0;
    80000242:	4601                	li	a2,0
    switch (ch = *(unsigned char *) fmt++) {
    80000244:	fdd6879b          	addiw	a5,a3,-35
    80000248:	0ff7f793          	zext.b	a5,a5
    8000024c:	00170413          	addi	s0,a4,1
    80000250:	04fb6163          	bltu	s6,a5,80000292 <vprintfmt+0xa2>
    80000254:	078a                	slli	a5,a5,0x2
    80000256:	97d6                	add	a5,a5,s5
    80000258:	439c                	lw	a5,0(a5)
    8000025a:	97d6                	add	a5,a5,s5
    8000025c:	8782                	jr	a5
      putch('%', putdat);
      fmt = last_fmt;
      break;
    }
  }
}
    8000025e:	70b6                	ld	ra,360(sp)
    80000260:	7416                	ld	s0,352(sp)
    80000262:	64f6                	ld	s1,344(sp)
    80000264:	6956                	ld	s2,336(sp)
    80000266:	69b6                	ld	s3,328(sp)
    80000268:	6a16                	ld	s4,320(sp)
    8000026a:	7af2                	ld	s5,312(sp)
    8000026c:	7b52                	ld	s6,304(sp)
    8000026e:	7bb2                	ld	s7,296(sp)
    80000270:	7c12                	ld	s8,288(sp)
    80000272:	6cf2                	ld	s9,280(sp)
    80000274:	6db2                	ld	s11,264(sp)
    80000276:	6175                	addi	sp,sp,368
    80000278:	8082                	ret
      padc = '0';
    8000027a:	8cb6                	mv	s9,a3
      goto reswitch;
    8000027c:	00174683          	lbu	a3,1(a4)
    switch (ch = *(unsigned char *) fmt++) {
    80000280:	8722                	mv	a4,s0
    80000282:	00170413          	addi	s0,a4,1
    80000286:	fdd6879b          	addiw	a5,a3,-35
    8000028a:	0ff7f793          	zext.b	a5,a5
    8000028e:	fcfb73e3          	bgeu	s6,a5,80000254 <vprintfmt+0x64>
      putch('%', putdat);
    80000292:	85a6                	mv	a1,s1
    80000294:	02500513          	li	a0,37
    80000298:	9902                	jalr	s2
      fmt = last_fmt;
    8000029a:	844e                	mv	s0,s3
      break;
    8000029c:	b771                	j	80000228 <vprintfmt+0x38>
        precision = precision * 10 + ch - '0';
    8000029e:	fd068c1b          	addiw	s8,a3,-48
        ch = *fmt;
    800002a2:	00174683          	lbu	a3,1(a4)
        if (ch < '0' || ch > '9')
    800002a6:	4825                	li	a6,9
    switch (ch = *(unsigned char *) fmt++) {
    800002a8:	8722                	mv	a4,s0
        if (ch < '0' || ch > '9')
    800002aa:	fd06879b          	addiw	a5,a3,-48
        ch = *fmt;
    800002ae:	0006859b          	sext.w	a1,a3
        if (ch < '0' || ch > '9')
    800002b2:	02f86463          	bltu	a6,a5,800002da <vprintfmt+0xea>
        precision = precision * 10 + ch - '0';
    800002b6:	002c179b          	slliw	a5,s8,0x2
        ch = *fmt;
    800002ba:	00174683          	lbu	a3,1(a4)
        precision = precision * 10 + ch - '0';
    800002be:	018787bb          	addw	a5,a5,s8
    800002c2:	0017979b          	slliw	a5,a5,0x1
    800002c6:	9fad                	addw	a5,a5,a1
        if (ch < '0' || ch > '9')
    800002c8:	fd06851b          	addiw	a0,a3,-48
      for (precision = 0; ; ++fmt) {
    800002cc:	0705                	addi	a4,a4,1
        precision = precision * 10 + ch - '0';
    800002ce:	fd078c1b          	addiw	s8,a5,-48
        ch = *fmt;
    800002d2:	0006859b          	sext.w	a1,a3
        if (ch < '0' || ch > '9')
    800002d6:	fea870e3          	bgeu	a6,a0,800002b6 <vprintfmt+0xc6>
      if (width < 0)
    800002da:	f60dd5e3          	bgez	s11,80000244 <vprintfmt+0x54>
        width = precision, precision = -1;
    800002de:	8de2                	mv	s11,s8
    800002e0:	5c7d                	li	s8,-1
    800002e2:	b78d                	j	80000244 <vprintfmt+0x54>
        ch = *fmt;
    800002e4:	00174683          	lbu	a3,1(a4)
    switch (ch = *(unsigned char *) fmt++) {
    800002e8:	8722                	mv	a4,s0
      goto reswitch;
    800002ea:	bfa9                	j	80000244 <vprintfmt+0x54>
      putch(ch, putdat);
    800002ec:	85a6                	mv	a1,s1
    800002ee:	02500513          	li	a0,37
    800002f2:	9902                	jalr	s2
      break;
    800002f4:	bf15                	j	80000228 <vprintfmt+0x38>
        ch = *fmt;
    800002f6:	00174683          	lbu	a3,1(a4)
      precision = va_arg(ap, int);
    800002fa:	000bac03          	lw	s8,0(s7)
    switch (ch = *(unsigned char *) fmt++) {
    800002fe:	8722                	mv	a4,s0
      precision = va_arg(ap, int);
    80000300:	0ba1                	addi	s7,s7,8
      goto process_precision;
    80000302:	bfe1                	j	800002da <vprintfmt+0xea>
      putch('0', putdat);
    80000304:	85a6                	mv	a1,s1
    80000306:	03000513          	li	a0,48
    8000030a:	ea6a                	sd	s10,272(sp)
    8000030c:	9902                	jalr	s2
      putch('x', putdat);
    8000030e:	85a6                	mv	a1,s1
    80000310:	07800513          	li	a0,120
    80000314:	9902                	jalr	s2
  else if (lflag)
    80000316:	008b8713          	addi	a4,s7,8
      putch('x', putdat);
    8000031a:	46c1                	li	a3,16
    return va_arg(*ap, unsigned long);
    8000031c:	000bb783          	ld	a5,0(s7)
    80000320:	8bba                	mv	s7,a4
    digs[pos++] = num % base;
    80000322:	02d7f5b3          	remu	a1,a5,a3
      printnum(putch, putdat, num, base, width, padc);
    80000326:	000c899b          	sext.w	s3,s9
    digs[pos++] = num % base;
    8000032a:	0050                	addi	a2,sp,4
    8000032c:	4705                	li	a4,1
    8000032e:	c02e                	sw	a1,0(sp)
    if (num < base)
    80000330:	16d7e763          	bltu	a5,a3,8000049e <vprintfmt+0x2ae>
    num /= base;
    80000334:	02d7d7b3          	divu	a5,a5,a3
    digs[pos++] = num % base;
    80000338:	8c3a                	mv	s8,a4
    if (num < base)
    8000033a:	0611                	addi	a2,a2,4
    digs[pos++] = num % base;
    8000033c:	2705                	addiw	a4,a4,1
    8000033e:	02d7f5b3          	remu	a1,a5,a3
    80000342:	feb62e23          	sw	a1,-4(a2)
    if (num < base)
    80000346:	fed7f7e3          	bgeu	a5,a3,80000334 <vprintfmt+0x144>
  while (width-- > pos)
    8000034a:	fffd8c9b          	addiw	s9,s11,-1
    8000034e:	fff70d1b          	addiw	s10,a4,-1
    80000352:	01b75863          	bge	a4,s11,80000362 <vprintfmt+0x172>
    putch(padc, putdat);
    80000356:	85a6                	mv	a1,s1
    80000358:	854e                	mv	a0,s3
  while (width-- > pos)
    8000035a:	3cfd                	addiw	s9,s9,-1
    putch(padc, putdat);
    8000035c:	9902                	jalr	s2
  while (width-- > pos)
    8000035e:	ffac9ce3          	bne	s9,s10,80000356 <vprintfmt+0x166>
  while (pos-- > 0)
    80000362:	0c0a                	slli	s8,s8,0x2
    80000364:	018109b3          	add	s3,sp,s8
    80000368:	ffc10c93          	addi	s9,sp,-4
    putch(digs[pos] + (digs[pos] >= 10 ? 'a' - 10 : '0'), putdat);
    8000036c:	4c25                	li	s8,9
    8000036e:	0009a783          	lw	a5,0(s3)
    80000372:	03000513          	li	a0,48
    80000376:	00fc7463          	bgeu	s8,a5,8000037e <vprintfmt+0x18e>
    8000037a:	05700513          	li	a0,87
    8000037e:	9d3d                	addw	a0,a0,a5
    80000380:	85a6                	mv	a1,s1
  while (pos-- > 0)
    80000382:	19f1                	addi	s3,s3,-4
    putch(digs[pos] + (digs[pos] >= 10 ? 'a' - 10 : '0'), putdat);
    80000384:	9902                	jalr	s2
  while (pos-- > 0)
    80000386:	ff3c94e3          	bne	s9,s3,8000036e <vprintfmt+0x17e>
      if ((p = va_arg(ap, char *)) == NULL)
    8000038a:	6d52                	ld	s10,272(sp)
    8000038c:	bd71                	j	80000228 <vprintfmt+0x38>
    8000038e:	ea6a                	sd	s10,272(sp)
  if (lflag >= 2)
    80000390:	4785                	li	a5,1
      precision = va_arg(ap, int);
    80000392:	008b8c13          	addi	s8,s7,8
  if (lflag >= 2)
    80000396:	00c7c463          	blt	a5,a2,8000039e <vprintfmt+0x1ae>
  else if (lflag)
    8000039a:	10060463          	beqz	a2,800004a2 <vprintfmt+0x2b2>
    return va_arg(*ap, long);
    8000039e:	000bb983          	ld	s3,0(s7)
      if ((long long) num < 0) {
    800003a2:	1009c963          	bltz	s3,800004b4 <vprintfmt+0x2c4>
      num = getint(&ap, lflag);
    800003a6:	87ce                	mv	a5,s3
    800003a8:	8be2                	mv	s7,s8
    800003aa:	46a9                	li	a3,10
    800003ac:	bf9d                	j	80000322 <vprintfmt+0x132>
        ch = *fmt;
    800003ae:	00174683          	lbu	a3,1(a4)
      lflag++;
    800003b2:	2605                	addiw	a2,a2,1
    switch (ch = *(unsigned char *) fmt++) {
    800003b4:	8722                	mv	a4,s0
      goto reswitch;
    800003b6:	b579                	j	80000244 <vprintfmt+0x54>
    800003b8:	ea6a                	sd	s10,272(sp)
    switch (ch = *(unsigned char *) fmt++) {
    800003ba:	46c1                	li	a3,16
  if (lflag >= 2)
    800003bc:	4785                	li	a5,1
      precision = va_arg(ap, int);
    800003be:	008b8713          	addi	a4,s7,8
  if (lflag >= 2)
    800003c2:	f4c7cde3          	blt	a5,a2,8000031c <vprintfmt+0x12c>
  else if (lflag)
    800003c6:	fa39                	bnez	a2,8000031c <vprintfmt+0x12c>
    return va_arg(*ap, unsigned int);
    800003c8:	000be783          	lwu	a5,0(s7)
    800003cc:	8bba                	mv	s7,a4
    800003ce:	bf91                	j	80000322 <vprintfmt+0x132>
    800003d0:	ea6a                	sd	s10,272(sp)
      if ((p = va_arg(ap, char *)) == NULL)
    800003d2:	000bbd03          	ld	s10,0(s7)
    800003d6:	040d0463          	beqz	s10,8000041e <vprintfmt+0x22e>
      if (width > 0 && padc != '-')
    800003da:	09b05d63          	blez	s11,80000474 <vprintfmt+0x284>
    800003de:	02d00793          	li	a5,45
    800003e2:	06fc9063          	bne	s9,a5,80000442 <vprintfmt+0x252>
      for (; (ch = *p) != '\0' && (precision < 0 || --precision >= 0); width--) {
    800003e6:	000d4503          	lbu	a0,0(s10)
    800003ea:	c105                	beqz	a0,8000040a <vprintfmt+0x21a>
    800003ec:	59fd                	li	s3,-1
    800003ee:	000c4563          	bltz	s8,800003f8 <vprintfmt+0x208>
    800003f2:	3c7d                	addiw	s8,s8,-1
    800003f4:	013c0963          	beq	s8,s3,80000406 <vprintfmt+0x216>
        putch(ch, putdat);
    800003f8:	85a6                	mv	a1,s1
    800003fa:	9902                	jalr	s2
      for (; (ch = *p) != '\0' && (precision < 0 || --precision >= 0); width--) {
    800003fc:	001d4503          	lbu	a0,1(s10)
        p++;
    80000400:	0d05                	addi	s10,s10,1
      for (; (ch = *p) != '\0' && (precision < 0 || --precision >= 0); width--) {
    80000402:	3dfd                	addiw	s11,s11,-1
    80000404:	f56d                	bnez	a0,800003ee <vprintfmt+0x1fe>
      for (; width > 0; width--)
    80000406:	01b05963          	blez	s11,80000418 <vprintfmt+0x228>
        putch(' ', putdat);
    8000040a:	85a6                	mv	a1,s1
    8000040c:	02000513          	li	a0,32
      for (; width > 0; width--)
    80000410:	3dfd                	addiw	s11,s11,-1
        putch(' ', putdat);
    80000412:	9902                	jalr	s2
      for (; width > 0; width--)
    80000414:	fe0d9be3          	bnez	s11,8000040a <vprintfmt+0x21a>
      if ((p = va_arg(ap, char *)) == NULL)
    80000418:	6d52                	ld	s10,272(sp)
    8000041a:	0ba1                	addi	s7,s7,8
    8000041c:	b531                	j	80000228 <vprintfmt+0x38>
        p = "(null)";
    8000041e:	00001d17          	auipc	s10,0x1
    80000422:	c4ad0d13          	addi	s10,s10,-950 # 80001068 <fromhost+0x28>
      for (; (ch = *p) != '\0' && (precision < 0 || --precision >= 0); width--) {
    80000426:	02800513          	li	a0,40
      if (width > 0 && padc != '-')
    8000042a:	fdb051e3          	blez	s11,800003ec <vprintfmt+0x1fc>
    8000042e:	02d00793          	li	a5,45
        p = "(null)";
    80000432:	00001d17          	auipc	s10,0x1
    80000436:	c36d0d13          	addi	s10,s10,-970 # 80001068 <fromhost+0x28>
      for (; (ch = *p) != '\0' && (precision < 0 || --precision >= 0); width--) {
    8000043a:	02800513          	li	a0,40
      if (width > 0 && padc != '-')
    8000043e:	fafc87e3          	beq	s9,a5,800003ec <vprintfmt+0x1fc>
  return p - s;
}

size_t strnlen(const char *s, size_t n)
{
  const char *p = s;
    80000442:	87ea                	mv	a5,s10
  while (n-- && *p)
    80000444:	018d06b3          	add	a3,s10,s8
    80000448:	000c1663          	bnez	s8,80000454 <vprintfmt+0x264>
    8000044c:	a829                	j	80000466 <vprintfmt+0x276>
    p++;
    8000044e:	0785                	addi	a5,a5,1
  while (n-- && *p)
    80000450:	00d78563          	beq	a5,a3,8000045a <vprintfmt+0x26a>
    80000454:	0007c703          	lbu	a4,0(a5)
    80000458:	fb7d                	bnez	a4,8000044e <vprintfmt+0x25e>
  return p - s;
    8000045a:	41a787b3          	sub	a5,a5,s10
        for (width -= strnlen(p, precision); width > 0; width--)
    8000045e:	40fd8dbb          	subw	s11,s11,a5
    80000462:	01b05963          	blez	s11,80000474 <vprintfmt+0x284>
          putch(padc, putdat);
    80000466:	2c81                	sext.w	s9,s9
    80000468:	85a6                	mv	a1,s1
    8000046a:	8566                	mv	a0,s9
        for (width -= strnlen(p, precision); width > 0; width--)
    8000046c:	3dfd                	addiw	s11,s11,-1
          putch(padc, putdat);
    8000046e:	9902                	jalr	s2
        for (width -= strnlen(p, precision); width > 0; width--)
    80000470:	fe0d9ce3          	bnez	s11,80000468 <vprintfmt+0x278>
      for (; (ch = *p) != '\0' && (precision < 0 || --precision >= 0); width--) {
    80000474:	000d4503          	lbu	a0,0(s10)
    80000478:	d145                	beqz	a0,80000418 <vprintfmt+0x228>
    8000047a:	59fd                	li	s3,-1
    8000047c:	bf8d                	j	800003ee <vprintfmt+0x1fe>
      if (width < 0)
    8000047e:	87ee                	mv	a5,s11
    80000480:	000dd363          	bgez	s11,80000486 <vprintfmt+0x296>
    80000484:	4781                	li	a5,0
        ch = *fmt;
    80000486:	00174683          	lbu	a3,1(a4)
      if (width < 0)
    8000048a:	00078d9b          	sext.w	s11,a5
    switch (ch = *(unsigned char *) fmt++) {
    8000048e:	8722                	mv	a4,s0
      goto reswitch;
    80000490:	bb55                	j	80000244 <vprintfmt+0x54>
      putch(va_arg(ap, int), putdat);
    80000492:	000ba503          	lw	a0,0(s7)
    80000496:	85a6                	mv	a1,s1
    80000498:	0ba1                	addi	s7,s7,8
    8000049a:	9902                	jalr	s2
      break;
    8000049c:	b371                	j	80000228 <vprintfmt+0x38>
    if (num < base)
    8000049e:	4c01                	li	s8,0
    800004a0:	b56d                	j	8000034a <vprintfmt+0x15a>
    return va_arg(*ap, int);
    800004a2:	000ba983          	lw	s3,0(s7)
    800004a6:	bdf5                	j	800003a2 <vprintfmt+0x1b2>
    800004a8:	ea6a                	sd	s10,272(sp)
    switch (ch = *(unsigned char *) fmt++) {
    800004aa:	46a9                	li	a3,10
    800004ac:	bf01                	j	800003bc <vprintfmt+0x1cc>
    800004ae:	ea6a                	sd	s10,272(sp)
    800004b0:	46a1                	li	a3,8
    800004b2:	b729                	j	800003bc <vprintfmt+0x1cc>
        putch('-', putdat);
    800004b4:	85a6                	mv	a1,s1
    800004b6:	02d00513          	li	a0,45
    800004ba:	9902                	jalr	s2
        num = -(long long) num;
    800004bc:	413007b3          	neg	a5,s3
    800004c0:	8be2                	mv	s7,s8
    800004c2:	46a9                	li	a3,10
    800004c4:	bdb9                	j	80000322 <vprintfmt+0x132>

00000000800004c6 <sprintf_putch.0>:
    **pstr = ch;
    800004c6:	619c                	ld	a5,0(a1)
    800004c8:	00a78023          	sb	a0,0(a5)
    (*pstr)++;
    800004cc:	619c                	ld	a5,0(a1)
    800004ce:	0785                	addi	a5,a5,1
    800004d0:	e19c                	sd	a5,0(a1)
  }
    800004d2:	8082                	ret

00000000800004d4 <uartInit>:
	*UART_LCR = 0b0000011; // 8-bit characters, 1 stop bit, no parity
    800004d4:	100007b7          	lui	a5,0x10000
    800004d8:	470d                	li	a4,3
    800004da:	00e781a3          	sb	a4,3(a5) # 10000003 <_start-0x6ffffffd>
}
    800004de:	8082                	ret

00000000800004e0 <uartSend>:
	while (!(*UART_LSR & (1<<5))); // wait for THRE (trans hold reg empty)
    800004e0:	10000737          	lui	a4,0x10000
    800004e4:	0715                	addi	a4,a4,5 # 10000005 <_start-0x6ffffffb>
    800004e6:	100006b7          	lui	a3,0x10000
    800004ea:	00074783          	lbu	a5,0(a4)
    800004ee:	0207f793          	andi	a5,a5,32
    800004f2:	dfe5                	beqz	a5,800004ea <uartSend+0xa>
	*UART_THR = c;
    800004f4:	00a68023          	sb	a0,0(a3) # 10000000 <_start-0x70000000>
}
    800004f8:	8082                	ret

00000000800004fa <uartReceive>:
	while (!(*UART_LSR & (1<<0))); // wait for DR (Data Ready)
    800004fa:	10000737          	lui	a4,0x10000
    800004fe:	0715                	addi	a4,a4,5 # 10000005 <_start-0x6ffffffb>
    80000500:	100006b7          	lui	a3,0x10000
    80000504:	00074783          	lbu	a5,0(a4)
    80000508:	8b85                	andi	a5,a5,1
    8000050a:	dfed                	beqz	a5,80000504 <uartReceive+0xa>
	return *UART_RBR;
    8000050c:	0006c503          	lbu	a0,0(a3) # 10000000 <_start-0x70000000>
}
    80000510:	8082                	ret

0000000080000512 <uartPutStr>:
    while (*str) {
    80000512:	00054683          	lbu	a3,0(a0)
    80000516:	c28d                	beqz	a3,80000538 <uartPutStr+0x26>
	while (!(*UART_LSR & (1<<5))); // wait for THRE (trans hold reg empty)
    80000518:	10000737          	lui	a4,0x10000
    8000051c:	0715                	addi	a4,a4,5 # 10000005 <_start-0x6ffffffb>
    8000051e:	10000637          	lui	a2,0x10000
        uartSend(*str++);
    80000522:	0505                	addi	a0,a0,1
	while (!(*UART_LSR & (1<<5))); // wait for THRE (trans hold reg empty)
    80000524:	00074783          	lbu	a5,0(a4)
    80000528:	0207f793          	andi	a5,a5,32
    8000052c:	dfe5                	beqz	a5,80000524 <uartPutStr+0x12>
	*UART_THR = c;
    8000052e:	00d60023          	sb	a3,0(a2) # 10000000 <_start-0x70000000>
    while (*str) {
    80000532:	00054683          	lbu	a3,0(a0)
    80000536:	f6f5                	bnez	a3,80000522 <uartPutStr+0x10>
}
    80000538:	8082                	ret

000000008000053a <setStats>:
  READ_CTR(mcycle);
    8000053a:	b0002773          	csrr	a4,mcycle
    8000053e:	a6018793          	addi	a5,gp,-1440 # 800012a8 <counters>
    80000542:	c511                	beqz	a0,8000054e <setStats+0x14>
    80000544:	e398                	sd	a4,0(a5)
  READ_CTR(minstret);
    80000546:	b0202773          	csrr	a4,minstret
    8000054a:	e798                	sd	a4,8(a5)
}
    8000054c:	8082                	ret
  READ_CTR(mcycle);
    8000054e:	6394                	ld	a3,0(a5)
    80000550:	00001617          	auipc	a2,0x1
    80000554:	b2860613          	addi	a2,a2,-1240 # 80001078 <fromhost+0x38>
    80000558:	eb90                	sd	a2,16(a5)
    8000055a:	8f15                	sub	a4,a4,a3
    8000055c:	e398                	sd	a4,0(a5)
  READ_CTR(minstret);
    8000055e:	b0202773          	csrr	a4,minstret
    80000562:	6794                	ld	a3,8(a5)
    80000564:	00001617          	auipc	a2,0x1
    80000568:	b1c60613          	addi	a2,a2,-1252 # 80001080 <fromhost+0x40>
    8000056c:	ef90                	sd	a2,24(a5)
    8000056e:	8f15                	sub	a4,a4,a3
    80000570:	e798                	sd	a4,8(a5)
}
    80000572:	8082                	ret

0000000080000574 <tohost_exit>:
  tohost = (code << 1) | 1;
    80000574:	00151793          	slli	a5,a0,0x1
    80000578:	0017e793          	ori	a5,a5,1
    8000057c:	00001717          	auipc	a4,0x1
    80000580:	a8f73223          	sd	a5,-1404(a4) # 80001000 <tohost>
  while (1);
    80000584:	a001                	j	80000584 <tohost_exit+0x10>

0000000080000586 <handle_trap>:
  tohost = (code << 1) | 1;
    80000586:	6785                	lui	a5,0x1
    80000588:	a7378793          	addi	a5,a5,-1421 # a73 <_start-0x7ffff58d>
    8000058c:	00001717          	auipc	a4,0x1
    80000590:	a6f73a23          	sd	a5,-1420(a4) # 80001000 <tohost>
  while (1);
    80000594:	a001                	j	80000594 <handle_trap+0xe>

0000000080000596 <exit>:
{
    80000596:	1141                	addi	sp,sp,-16
    80000598:	e406                	sd	ra,8(sp)
  tohost_exit(code);
    8000059a:	fdbff0ef          	jal	80000574 <tohost_exit>

000000008000059e <abort>:
  tohost = (code << 1) | 1;
    8000059e:	10d00793          	li	a5,269
    800005a2:	00001717          	auipc	a4,0x1
    800005a6:	a4f73f23          	sd	a5,-1442(a4) # 80001000 <tohost>
  while (1);
    800005aa:	a001                	j	800005aa <abort+0xc>

00000000800005ac <printstr>:
    while (*str) {
    800005ac:	00054683          	lbu	a3,0(a0)
    800005b0:	c28d                	beqz	a3,800005d2 <printstr+0x26>
	while (!(*UART_LSR & (1<<5))); // wait for THRE (trans hold reg empty)
    800005b2:	10000737          	lui	a4,0x10000
    800005b6:	0715                	addi	a4,a4,5 # 10000005 <_start-0x6ffffffb>
    800005b8:	10000637          	lui	a2,0x10000
        uartSend(*str++);
    800005bc:	0505                	addi	a0,a0,1
	while (!(*UART_LSR & (1<<5))); // wait for THRE (trans hold reg empty)
    800005be:	00074783          	lbu	a5,0(a4)
    800005c2:	0207f793          	andi	a5,a5,32
    800005c6:	dfe5                	beqz	a5,800005be <printstr+0x12>
	*UART_THR = c;
    800005c8:	00d60023          	sb	a3,0(a2) # 10000000 <_start-0x70000000>
    while (*str) {
    800005cc:	00054683          	lbu	a3,0(a0)
    800005d0:	f6f5                	bnez	a3,800005bc <printstr+0x10>
}
    800005d2:	8082                	ret

00000000800005d4 <puts>:
    while (*str) {
    800005d4:	00054683          	lbu	a3,0(a0)
    800005d8:	c28d                	beqz	a3,800005fa <puts+0x26>
	while (!(*UART_LSR & (1<<5))); // wait for THRE (trans hold reg empty)
    800005da:	10000737          	lui	a4,0x10000
    800005de:	0715                	addi	a4,a4,5 # 10000005 <_start-0x6ffffffb>
    800005e0:	10000637          	lui	a2,0x10000
        uartSend(*str++);
    800005e4:	0505                	addi	a0,a0,1
	while (!(*UART_LSR & (1<<5))); // wait for THRE (trans hold reg empty)
    800005e6:	00074783          	lbu	a5,0(a4)
    800005ea:	0207f793          	andi	a5,a5,32
    800005ee:	dfe5                	beqz	a5,800005e6 <puts+0x12>
	*UART_THR = c;
    800005f0:	00d60023          	sb	a3,0(a2) # 10000000 <_start-0x70000000>
    while (*str) {
    800005f4:	00054683          	lbu	a3,0(a0)
    800005f8:	f6f5                	bnez	a3,800005e4 <puts+0x10>
}
    800005fa:	4501                	li	a0,0
    800005fc:	8082                	ret

00000000800005fe <thread_entry>:
  while (cid != 0);
    800005fe:	e111                	bnez	a0,80000602 <thread_entry+0x4>
}
    80000600:	8082                	ret
  while (cid != 0);
    80000602:	a001                	j	80000602 <thread_entry+0x4>

0000000080000604 <printhex>:
{
    80000604:	1101                	addi	sp,sp,-32
    80000606:	0030                	addi	a2,sp,8
    80000608:	01710793          	addi	a5,sp,23
    str[15-i] = (x & 0xF) + ((x & 0xF) < 10 ? '0' : 'a'-10);
    8000060c:	4825                	li	a6,9
    8000060e:	a011                	j	80000612 <printhex+0xe>
  for (i = 0; i < 16; i++)
    80000610:	87ba                	mv	a5,a4
    str[15-i] = (x & 0xF) + ((x & 0xF) < 10 ? '0' : 'a'-10);
    80000612:	00f57693          	andi	a3,a0,15
    80000616:	8736                	mv	a4,a3
    80000618:	05700593          	li	a1,87
    8000061c:	00d86463          	bltu	a6,a3,80000624 <printhex+0x20>
    80000620:	03000593          	li	a1,48
    80000624:	9f2d                	addw	a4,a4,a1
    80000626:	00e78023          	sb	a4,0(a5)
    x >>= 4;
    8000062a:	8111                	srli	a0,a0,0x4
  for (i = 0; i < 16; i++)
    8000062c:	fff78713          	addi	a4,a5,-1
    80000630:	fef610e3          	bne	a2,a5,80000610 <printhex+0xc>
    while (*str) {
    80000634:	00814583          	lbu	a1,8(sp)
  str[16] = 0;
    80000638:	00010c23          	sb	zero,24(sp)
    while (*str) {
    8000063c:	c195                	beqz	a1,80000660 <printhex+0x5c>
	while (!(*UART_LSR & (1<<5))); // wait for THRE (trans hold reg empty)
    8000063e:	10000737          	lui	a4,0x10000
    while (*str) {
    80000642:	86b2                	mv	a3,a2
	while (!(*UART_LSR & (1<<5))); // wait for THRE (trans hold reg empty)
    80000644:	0715                	addi	a4,a4,5 # 10000005 <_start-0x6ffffffb>
    80000646:	10000637          	lui	a2,0x10000
        uartSend(*str++);
    8000064a:	0685                	addi	a3,a3,1
	while (!(*UART_LSR & (1<<5))); // wait for THRE (trans hold reg empty)
    8000064c:	00074783          	lbu	a5,0(a4)
    80000650:	0207f793          	andi	a5,a5,32
    80000654:	dfe5                	beqz	a5,8000064c <printhex+0x48>
	*UART_THR = c;
    80000656:	00b60023          	sb	a1,0(a2) # 10000000 <_start-0x70000000>
    while (*str) {
    8000065a:	0006c583          	lbu	a1,0(a3)
    8000065e:	f5f5                	bnez	a1,8000064a <printhex+0x46>
}
    80000660:	6105                	addi	sp,sp,32
    80000662:	8082                	ret

0000000080000664 <printf>:
{
    80000664:	711d                	addi	sp,sp,-96
  va_start(ap, fmt);
    80000666:	02810313          	addi	t1,sp,40
{
    8000066a:	f42e                	sd	a1,40(sp)
    8000066c:	f832                	sd	a2,48(sp)
    8000066e:	fc36                	sd	a3,56(sp)
  vprintfmt((void*)putchar, 0, fmt, ap);
    80000670:	862a                	mv	a2,a0
    80000672:	869a                	mv	a3,t1
    80000674:	00000517          	auipc	a0,0x0
    80000678:	b5c50513          	addi	a0,a0,-1188 # 800001d0 <putchar>
    8000067c:	4581                	li	a1,0
{
    8000067e:	ec06                	sd	ra,24(sp)
    80000680:	e0ba                	sd	a4,64(sp)
    80000682:	e4be                	sd	a5,72(sp)
    80000684:	e8c2                	sd	a6,80(sp)
    80000686:	ecc6                	sd	a7,88(sp)
  va_start(ap, fmt);
    80000688:	e41a                	sd	t1,8(sp)
  vprintfmt((void*)putchar, 0, fmt, ap);
    8000068a:	b67ff0ef          	jal	800001f0 <vprintfmt>
}
    8000068e:	60e2                	ld	ra,24(sp)
    80000690:	4501                	li	a0,0
    80000692:	6125                	addi	sp,sp,96
    80000694:	8082                	ret

0000000080000696 <sprintf>:
{
    80000696:	711d                	addi	sp,sp,-96
  va_start(ap, fmt);
    80000698:	03010313          	addi	t1,sp,48
{
    8000069c:	f022                	sd	s0,32(sp)
    8000069e:	e42a                	sd	a0,8(sp)
    800006a0:	f832                	sd	a2,48(sp)
    800006a2:	fc36                	sd	a3,56(sp)
  char* str0 = str;
    800006a4:	842a                	mv	s0,a0
  vprintfmt(sprintf_putch, (void**)&str, fmt, ap);
    800006a6:	862e                	mv	a2,a1
    800006a8:	00000517          	auipc	a0,0x0
    800006ac:	e1e50513          	addi	a0,a0,-482 # 800004c6 <sprintf_putch.0>
    800006b0:	002c                	addi	a1,sp,8
    800006b2:	869a                	mv	a3,t1
{
    800006b4:	f406                	sd	ra,40(sp)
    800006b6:	e4be                	sd	a5,72(sp)
    800006b8:	e0ba                	sd	a4,64(sp)
    800006ba:	e8c2                	sd	a6,80(sp)
    800006bc:	ecc6                	sd	a7,88(sp)
  va_start(ap, fmt);
    800006be:	ec1a                	sd	t1,24(sp)
  vprintfmt(sprintf_putch, (void**)&str, fmt, ap);
    800006c0:	b31ff0ef          	jal	800001f0 <vprintfmt>
  *str = 0;
    800006c4:	67a2                	ld	a5,8(sp)
    800006c6:	00078023          	sb	zero,0(a5)
  return str - str0;
    800006ca:	6522                	ld	a0,8(sp)
}
    800006cc:	70a2                	ld	ra,40(sp)
    800006ce:	9d01                	subw	a0,a0,s0
    800006d0:	7402                	ld	s0,32(sp)
    800006d2:	6125                	addi	sp,sp,96
    800006d4:	8082                	ret

00000000800006d6 <memcpy>:
  if ((((uintptr_t)dest | (uintptr_t)src | len) & (sizeof(uintptr_t)-1)) == 0) {
    800006d6:	00c5e7b3          	or	a5,a1,a2
    800006da:	8fc9                	or	a5,a5,a0
    800006dc:	8b9d                	andi	a5,a5,7
    while (d < (char*)(dest + len))
    800006de:	00c506b3          	add	a3,a0,a2
  if ((((uintptr_t)dest | (uintptr_t)src | len) & (sizeof(uintptr_t)-1)) == 0) {
    800006e2:	cf91                	beqz	a5,800006fe <memcpy+0x28>
    while (d < (char*)(dest + len))
    800006e4:	962e                	add	a2,a2,a1
    char *d = dest;
    800006e6:	87aa                	mv	a5,a0
    while (d < (char*)(dest + len))
    800006e8:	02d57663          	bgeu	a0,a3,80000714 <memcpy+0x3e>
      *d++ = *s++;
    800006ec:	0005c703          	lbu	a4,0(a1)
    800006f0:	0585                	addi	a1,a1,1
    800006f2:	0785                	addi	a5,a5,1
    800006f4:	fee78fa3          	sb	a4,-1(a5)
    while (d < (char*)(dest + len))
    800006f8:	feb61ae3          	bne	a2,a1,800006ec <memcpy+0x16>
}
    800006fc:	8082                	ret
    while (d < (uintptr_t*)(dest + len))
    800006fe:	fed57fe3          	bgeu	a0,a3,800006fc <memcpy+0x26>
    uintptr_t *d = dest;
    80000702:	87aa                	mv	a5,a0
      *d++ = *s++;
    80000704:	6198                	ld	a4,0(a1)
    80000706:	07a1                	addi	a5,a5,8
    80000708:	05a1                	addi	a1,a1,8
    8000070a:	fee7bc23          	sd	a4,-8(a5)
    while (d < (uintptr_t*)(dest + len))
    8000070e:	fed7ebe3          	bltu	a5,a3,80000704 <memcpy+0x2e>
    80000712:	8082                	ret
    80000714:	8082                	ret

0000000080000716 <memset>:
  if ((((uintptr_t)dest | len) & (sizeof(uintptr_t)-1)) == 0) {
    80000716:	00c567b3          	or	a5,a0,a2
    8000071a:	8b9d                	andi	a5,a5,7
    while (d < (char*)(dest + len))
    8000071c:	962a                	add	a2,a2,a0
  if ((((uintptr_t)dest | len) & (sizeof(uintptr_t)-1)) == 0) {
    8000071e:	cf81                	beqz	a5,80000736 <memset+0x20>
      *d++ = byte;
    80000720:	0ff5f713          	zext.b	a4,a1
    char *d = dest;
    80000724:	87aa                	mv	a5,a0
    while (d < (char*)(dest + len))
    80000726:	02c57c63          	bgeu	a0,a2,8000075e <memset+0x48>
      *d++ = byte;
    8000072a:	0785                	addi	a5,a5,1
    8000072c:	fee78fa3          	sb	a4,-1(a5)
    while (d < (char*)(dest + len))
    80000730:	fef61de3          	bne	a2,a5,8000072a <memset+0x14>
}
    80000734:	8082                	ret
    word |= word << 16 << 16;
    80000736:	010107b7          	lui	a5,0x1010
    8000073a:	10178793          	addi	a5,a5,257 # 1010101 <_start-0x7efefeff>
    8000073e:	02079693          	slli	a3,a5,0x20
    uintptr_t word = byte & 0xFF;
    80000742:	0ff5f713          	zext.b	a4,a1
    80000746:	97b6                	add	a5,a5,a3
    80000748:	02f70733          	mul	a4,a4,a5
    while (d < (uintptr_t*)(dest + len))
    8000074c:	fec574e3          	bgeu	a0,a2,80000734 <memset+0x1e>
    uintptr_t *d = dest;
    80000750:	87aa                	mv	a5,a0
      *d++ = word;
    80000752:	07a1                	addi	a5,a5,8
    80000754:	fee7bc23          	sd	a4,-8(a5)
    while (d < (uintptr_t*)(dest + len))
    80000758:	fec7ede3          	bltu	a5,a2,80000752 <memset+0x3c>
    8000075c:	8082                	ret
    8000075e:	8082                	ret

0000000080000760 <_init>:
{
    80000760:	7171                	addi	sp,sp,-176
  size_t tdata_size = &_tdata_end - &_tdata_begin;
    80000762:	a8018793          	addi	a5,gp,-1408 # 800012c8 <_end>
{
    80000766:	e54e                	sd	s3,136(sp)
  size_t tdata_size = &_tdata_end - &_tdata_begin;
    80000768:	a8018993          	addi	s3,gp,-1408 # 800012c8 <_end>
{
    8000076c:	e152                	sd	s4,128(sp)
  size_t tdata_size = &_tdata_end - &_tdata_begin;
    8000076e:	40f98a33          	sub	s4,s3,a5
{
    80000772:	ed26                	sd	s1,152(sp)
    80000774:	e94a                	sd	s2,144(sp)
    80000776:	84aa                	mv	s1,a0
    80000778:	892e                	mv	s2,a1
  memcpy(thread_pointer, &_tdata_begin, tdata_size);
    8000077a:	8512                	mv	a0,tp
    8000077c:	85be                	mv	a1,a5
    8000077e:	8652                	mv	a2,s4
{
    80000780:	f506                	sd	ra,168(sp)
    80000782:	f122                	sd	s0,160(sp)
    80000784:	fcd6                	sd	s5,120(sp)
  memcpy(thread_pointer, &_tdata_begin, tdata_size);
    80000786:	8a92                	mv	s5,tp
    80000788:	f4fff0ef          	jal	800006d6 <memcpy>
  size_t tbss_size = &_tbss_end - &_tdata_end;
    8000078c:	a8018613          	addi	a2,gp,-1408 # 800012c8 <_end>
  memset(thread_pointer + tdata_size, 0, tbss_size);
    80000790:	41360633          	sub	a2,a2,s3
    80000794:	4581                	li	a1,0
    80000796:	014a8533          	add	a0,s5,s4
    8000079a:	f7dff0ef          	jal	80000716 <memset>
  thread_entry(cid, nc);
    8000079e:	85ca                	mv	a1,s2
    800007a0:	8526                	mv	a0,s1
    800007a2:	e5dff0ef          	jal	800005fe <thread_entry>
	*UART_LCR = 0b0000011; // 8-bit characters, 1 stop bit, no parity
    800007a6:	100007b7          	lui	a5,0x10000
    800007aa:	470d                	li	a4,3
    800007ac:	00e781a3          	sb	a4,3(a5) # 10000003 <_start-0x6ffffffd>
  int ret = main(0, 0);
    800007b0:	4581                	li	a1,0
    800007b2:	4501                	li	a0,0
    800007b4:	13c000ef          	jal	800008f0 <main>
    if (counters[i])
    800007b8:	a6018913          	addi	s2,gp,-1440 # 800012a8 <counters>
    800007bc:	00093683          	ld	a3,0(s2)
{
    800007c0:	03f10413          	addi	s0,sp,63
    800007c4:	fc047413          	andi	s0,s0,-64
  int ret = main(0, 0);
    800007c8:	84aa                	mv	s1,a0
    if (counters[i])
    800007ca:	ea85                	bnez	a3,800007fa <_init+0x9a>
    800007cc:	00893683          	ld	a3,8(s2)
    800007d0:	e681                	bnez	a3,800007d8 <_init+0x78>
  tohost_exit(code);
    800007d2:	8526                	mv	a0,s1
    800007d4:	da1ff0ef          	jal	80000574 <tohost_exit>
  char* pbuf = buf;
    800007d8:	89a2                	mv	s3,s0
      pbuf += sprintf(pbuf, "%s = %d\n", counter_names[i], counters[i]);
    800007da:	01893603          	ld	a2,24(s2)
    800007de:	854e                	mv	a0,s3
    800007e0:	00001597          	auipc	a1,0x1
    800007e4:	8c858593          	addi	a1,a1,-1848 # 800010a8 <fromhost+0x68>
    800007e8:	eafff0ef          	jal	80000696 <sprintf>
    800007ec:	99aa                	add	s3,s3,a0
  if (pbuf != buf)
    800007ee:	ff3402e3          	beq	s0,s3,800007d2 <_init+0x72>
  uartPutStr(s);
    800007f2:	8522                	mv	a0,s0
    800007f4:	d1fff0ef          	jal	80000512 <uartPutStr>
}
    800007f8:	bfe9                	j	800007d2 <_init+0x72>
      pbuf += sprintf(pbuf, "%s = %d\n", counter_names[i], counters[i]);
    800007fa:	01093603          	ld	a2,16(s2)
    800007fe:	00001597          	auipc	a1,0x1
    80000802:	8aa58593          	addi	a1,a1,-1878 # 800010a8 <fromhost+0x68>
    80000806:	8522                	mv	a0,s0
    80000808:	e8fff0ef          	jal	80000696 <sprintf>
    if (counters[i])
    8000080c:	00893683          	ld	a3,8(s2)
      pbuf += sprintf(pbuf, "%s = %d\n", counter_names[i], counters[i]);
    80000810:	00a409b3          	add	s3,s0,a0
    if (counters[i])
    80000814:	dee9                	beqz	a3,800007ee <_init+0x8e>
    80000816:	b7d1                	j	800007da <_init+0x7a>

0000000080000818 <strlen>:
  while (*p)
    80000818:	00054783          	lbu	a5,0(a0)
    8000081c:	cb89                	beqz	a5,8000082e <strlen+0x16>
  const char *p = s;
    8000081e:	87aa                	mv	a5,a0
  while (*p)
    80000820:	0017c703          	lbu	a4,1(a5)
    p++;
    80000824:	0785                	addi	a5,a5,1
  while (*p)
    80000826:	ff6d                	bnez	a4,80000820 <strlen+0x8>
  return p - s;
    80000828:	40a78533          	sub	a0,a5,a0
    8000082c:	8082                	ret
  while (*p)
    8000082e:	4501                	li	a0,0
}
    80000830:	8082                	ret

0000000080000832 <strnlen>:
  while (n-- && *p)
    80000832:	00b506b3          	add	a3,a0,a1
  const char *p = s;
    80000836:	87aa                	mv	a5,a0
  while (n-- && *p)
    80000838:	e589                	bnez	a1,80000842 <strnlen+0x10>
    8000083a:	a811                	j	8000084e <strnlen+0x1c>
    p++;
    8000083c:	0785                	addi	a5,a5,1
  while (n-- && *p)
    8000083e:	00d78563          	beq	a5,a3,80000848 <strnlen+0x16>
    80000842:	0007c703          	lbu	a4,0(a5)
    80000846:	fb7d                	bnez	a4,8000083c <strnlen+0xa>
  return p - s;
    80000848:	40a78533          	sub	a0,a5,a0
}
    8000084c:	8082                	ret
  while (n-- && *p)
    8000084e:	4501                	li	a0,0
    80000850:	8082                	ret

0000000080000852 <strcmp>:
int strcmp(const char* s1, const char* s2)
{
  unsigned char c1, c2;

  do {
    c1 = *s1++;
    80000852:	00054783          	lbu	a5,0(a0)
    80000856:	0505                	addi	a0,a0,1
    c2 = *s2++;
    80000858:	0585                	addi	a1,a1,1
    8000085a:	fff5c703          	lbu	a4,-1(a1)
  } while (c1 != 0 && c1 == c2);
    8000085e:	c799                	beqz	a5,8000086c <strcmp+0x1a>
    80000860:	fee789e3          	beq	a5,a4,80000852 <strcmp>

  return c1 - c2;
    80000864:	0007851b          	sext.w	a0,a5
}
    80000868:	9d19                	subw	a0,a0,a4
    8000086a:	8082                	ret
    8000086c:	4501                	li	a0,0
    8000086e:	bfed                	j	80000868 <strcmp+0x16>

0000000080000870 <strcpy>:

char* strcpy(char* dest, const char* src)
{
  char* d = dest;
    80000870:	87aa                	mv	a5,a0
  while ((*d++ = *src++))
    80000872:	0005c703          	lbu	a4,0(a1)
    80000876:	0585                	addi	a1,a1,1
    80000878:	0785                	addi	a5,a5,1
    8000087a:	fee78fa3          	sb	a4,-1(a5)
    8000087e:	fb75                	bnez	a4,80000872 <strcpy+0x2>
    ;
  return dest;
}
    80000880:	8082                	ret

0000000080000882 <atol>:
long atol(const char* str)
{
  long res = 0;
  int sign = 0;

  while (*str == ' ')
    80000882:	00054703          	lbu	a4,0(a0)
    80000886:	02000693          	li	a3,32
{
    8000088a:	87aa                	mv	a5,a0
  while (*str == ' ')
    8000088c:	00d71863          	bne	a4,a3,8000089c <atol+0x1a>
    80000890:	86ba                	mv	a3,a4
    80000892:	0017c703          	lbu	a4,1(a5)
    str++;
    80000896:	0785                	addi	a5,a5,1
  while (*str == ' ')
    80000898:	fed70de3          	beq	a4,a3,80000892 <atol+0x10>

  if (*str == '-' || *str == '+') {
    8000089c:	02d00693          	li	a3,45
    800008a0:	04d70163          	beq	a4,a3,800008e2 <atol+0x60>
    800008a4:	02b00693          	li	a3,43
    800008a8:	02d70763          	beq	a4,a3,800008d6 <atol+0x54>
    sign = *str == '-';
    str++;
  }

  while (*str) {
    800008ac:	0007c683          	lbu	a3,0(a5)
  int sign = 0;
    800008b0:	4581                	li	a1,0
  while (*str) {
    800008b2:	ce8d                	beqz	a3,800008ec <atol+0x6a>
  int sign = 0;
    800008b4:	4501                	li	a0,0
    res *= 10;
    res += *str++ - '0';
    800008b6:	0785                	addi	a5,a5,1
    800008b8:	fd06861b          	addiw	a2,a3,-48
    res *= 10;
    800008bc:	00251713          	slli	a4,a0,0x2
  while (*str) {
    800008c0:	0007c683          	lbu	a3,0(a5)
    res *= 10;
    800008c4:	972a                	add	a4,a4,a0
    800008c6:	0706                	slli	a4,a4,0x1
    res += *str++ - '0';
    800008c8:	00e60533          	add	a0,a2,a4
  while (*str) {
    800008cc:	f6ed                	bnez	a3,800008b6 <atol+0x34>
  }

  return sign ? -res : res;
    800008ce:	c185                	beqz	a1,800008ee <atol+0x6c>
    800008d0:	40a00533          	neg	a0,a0
    800008d4:	8082                	ret
  while (*str) {
    800008d6:	0017c683          	lbu	a3,1(a5)
    str++;
    800008da:	0785                	addi	a5,a5,1
  while (*str) {
    800008dc:	ca81                	beqz	a3,800008ec <atol+0x6a>
    sign = *str == '-';
    800008de:	4581                	li	a1,0
    800008e0:	bfd1                	j	800008b4 <atol+0x32>
  while (*str) {
    800008e2:	0017c683          	lbu	a3,1(a5)
    sign = *str == '-';
    800008e6:	4585                	li	a1,1
    str++;
    800008e8:	97ae                	add	a5,a5,a1
  while (*str) {
    800008ea:	f6e9                	bnez	a3,800008b4 <atol+0x32>
  return sign ? -res : res;
    800008ec:	4501                	li	a0,0
}
    800008ee:	8082                	ret

Disassembly of section .text.startup:

00000000800008f0 <main>:
// standard RISC-V calling convention, where function arguments are passed
// in registers a0a7 and return values are stored in a0.
extern void fir();

int main(void) {
    int32_t sin_table[20] = { // in Q1.31 format
    800008f0:	87018793          	addi	a5,gp,-1936 # 800010b8 <fromhost+0x78>
    800008f4:	0007b283          	ld	t0,0(a5)
    800008f8:	0087bf83          	ld	t6,8(a5)
    800008fc:	0107bf03          	ld	t5,16(a5)
    80000900:	0187be83          	ld	t4,24(a5)
    80000904:	0207be03          	ld	t3,32(a5)
    80000908:	0287b303          	ld	t1,40(a5)
    8000090c:	0387b803          	ld	a6,56(a5)
    80000910:	63ac                	ld	a1,64(a5)
    80000912:	67b0                	ld	a2,72(a5)
    80000914:	0307b883          	ld	a7,48(a5)
        0xB4C373EE, // sin(16*2pi/10)
        0x8643C7B3, // sin(17*2pi/10)
        0x8643C7B3, // sin(18*2pi/10)
        0xB4C373EE  // sin(19*2pi/10)
    };  
    int lowpass[4] = {0x20000001, 0x20000002, 0x20000003, 0x20000004}; // 1/4 in Q1.31 format
    80000918:	00000697          	auipc	a3,0x0
    8000091c:	7306b683          	ld	a3,1840(a3) # 80001048 <fromhost+0x8>
    80000920:	00000717          	auipc	a4,0x0
    80000924:	73073703          	ld	a4,1840(a4) # 80001050 <fromhost+0x10>
int main(void) {
    80000928:	712d                	addi	sp,sp,-288
    int y[17];
    int expected[17] = { // in Q1.31 format
    8000092a:	6ba8                	ld	a0,80(a5)
int main(void) {
    8000092c:	ee06                	sd	ra,280(sp)
    int32_t sin_table[20] = { // in Q1.31 format
    8000092e:	f116                	sd	t0,160(sp)
    80000930:	f57e                	sd	t6,168(sp)
    80000932:	f97a                	sd	t5,176(sp)
    80000934:	fd76                	sd	t4,184(sp)
    80000936:	e1f2                	sd	t3,192(sp)
int main(void) {
    80000938:	ea22                	sd	s0,272(sp)
    8000093a:	e626                	sd	s1,264(sp)
    8000093c:	e24a                	sd	s2,256(sp)
    8000093e:	fdce                	sd	s3,248(sp)
    int32_t sin_table[20] = { // in Q1.31 format
    80000940:	e59a                	sd	t1,200(sp)
    80000942:	edc2                	sd	a6,216(sp)
    int expected[17] = { // in Q1.31 format
    80000944:	0587b303          	ld	t1,88(a5)
    int32_t sin_table[20] = { // in Q1.31 format
    80000948:	f1ae                	sd	a1,224(sp)
    8000094a:	f5b2                	sd	a2,232(sp)
    int lowpass[4] = {0x20000001, 0x20000002, 0x20000003, 0x20000004}; // 1/4 in Q1.31 format
    8000094c:	e036                	sd	a3,0(sp)
    8000094e:	e43a                	sd	a4,8(sp)
    int32_t sin_table[20] = { // in Q1.31 format
    80000950:	e9c6                	sd	a7,208(sp)
    int expected[17] = { // in Q1.31 format
    80000952:	0607b883          	ld	a7,96(a5)
    80000956:	0687b803          	ld	a6,104(a5)
    8000095a:	7bac                	ld	a1,112(a5)
    8000095c:	7fb0                	ld	a2,120(a5)
    8000095e:	63d4                	ld	a3,128(a5)
    80000960:	67d8                	ld	a4,136(a5)
    80000962:	9001a783          	lw	a5,-1792(gp) # 80001148 <fromhost+0x108>
    80000966:	ecaa                	sd	a0,88(sp)
        0x1e6f0e17,
        0xe190f1eb,
        0xb052c0ce,
        0x9d839dc6
    };
    setStats(1);        // record initial mcycle and minstret
    80000968:	4505                	li	a0,1
    int expected[17] = { // in Q1.31 format
    8000096a:	f09a                	sd	t1,96(sp)
    8000096c:	f4c6                	sd	a7,104(sp)
    8000096e:	f8c2                	sd	a6,112(sp)
    80000970:	cd3e                	sw	a5,152(sp)
    80000972:	fcae                	sd	a1,120(sp)
    80000974:	e132                	sd	a2,128(sp)
    80000976:	e536                	sd	a3,136(sp)
    80000978:	e93a                	sd	a4,144(sp)
    setStats(1);        // record initial mcycle and minstret
    8000097a:	bc1ff0ef          	jal	8000053a <setStats>
    fir(sin_table, lowpass, y, 20, 4);
    8000097e:	0810                	addi	a2,sp,16
    80000980:	858a                	mv	a1,sp
    80000982:	1108                	addi	a0,sp,160
    80000984:	4711                	li	a4,4
    80000986:	46d1                	li	a3,20
    80000988:	83bff0ef          	jal	800001c2 <fir>
    setStats(0);        // record elapsed mcycle and minstret
    8000098c:	4501                	li	a0,0
    8000098e:	01010913          	addi	s2,sp,16
    80000992:	ba9ff0ef          	jal	8000053a <setStats>
    80000996:	84ca                	mv	s1,s2
    for (int i=0; i<17; i++) {
    80000998:	4401                	li	s0,0
    8000099a:	49c5                	li	s3,17
        printf("y[%d] = %x\n", i, y[i]);
    8000099c:	4090                	lw	a2,0(s1)
    8000099e:	85a2                	mv	a1,s0
    800009a0:	00000517          	auipc	a0,0x0
    800009a4:	6b850513          	addi	a0,a0,1720 # 80001058 <fromhost+0x18>
    for (int i=0; i<17; i++) {
    800009a8:	2405                	addiw	s0,s0,1
        printf("y[%d] = %x\n", i, y[i]);
    800009aa:	cbbff0ef          	jal	80000664 <printf>
    for (int i=0; i<17; i++) {
    800009ae:	0491                	addi	s1,s1,4
    800009b0:	ff3416e3          	bne	s0,s3,8000099c <main+0xac>
    800009b4:	08bc                	addi	a5,sp,88

static int verify(int n, const volatile int* test, const int* verify)
{
  int i;
  // Unrolled for faster verification
  for (i = 0; i < n/2*2; i+=2)
    800009b6:	4501                	li	a0,0
    800009b8:	4841                	li	a6,16
  {
    int t0 = test[i], t1 = test[i+1];
    800009ba:	00092683          	lw	a3,0(s2)
    int v0 = verify[i], v1 = verify[i+1];
    if (t0 != v0) return i+1;
    800009be:	4390                	lw	a2,0(a5)
    int t0 = test[i], t1 = test[i+1];
    800009c0:	00492703          	lw	a4,4(s2)
    int v0 = verify[i], v1 = verify[i+1];
    800009c4:	43cc                	lw	a1,4(a5)
  for (i = 0; i < n/2*2; i+=2)
    800009c6:	0921                	addi	s2,s2,8
    int t0 = test[i], t1 = test[i+1];
    800009c8:	2701                	sext.w	a4,a4
    if (t0 != v0) return i+1;
    800009ca:	02d61063          	bne	a2,a3,800009ea <main+0xfa>
    if (t1 != v1) return i+2;
    800009ce:	2509                	addiw	a0,a0,2
    800009d0:	00b71663          	bne	a4,a1,800009dc <main+0xec>
  for (i = 0; i < n/2*2; i+=2)
    800009d4:	07a1                	addi	a5,a5,8
    800009d6:	ff0512e3          	bne	a0,a6,800009ba <main+0xca>
  }
  if (n % 2 != 0 && test[n-1] != verify[n-1])
    return n;
  return 0;
    800009da:	4501                	li	a0,0
    }
    return verify(16, y, expected); 
// check the 1 element of s matches expected. 0 means success
}
    800009dc:	60f2                	ld	ra,280(sp)
    800009de:	6452                	ld	s0,272(sp)
    800009e0:	64b2                	ld	s1,264(sp)
    800009e2:	6912                	ld	s2,256(sp)
    800009e4:	79ee                	ld	s3,248(sp)
    800009e6:	6115                	addi	sp,sp,288
    800009e8:	8082                	ret
    if (t0 != v0) return i+1;
    800009ea:	2505                	addiw	a0,a0,1
    800009ec:	bfc5                	j	800009dc <main+0xec>
{
    800009ee:	1141                	addi	sp,sp,-16
  uartPutStr(s);
    800009f0:	00000517          	auipc	a0,0x0
    800009f4:	6a050513          	addi	a0,a0,1696 # 80001090 <fromhost+0x50>
{
    800009f8:	e406                	sd	ra,8(sp)
  uartPutStr(s);
    800009fa:	b19ff0ef          	jal	80000512 <uartPutStr>
}
    800009fe:	60a2                	ld	ra,8(sp)
    80000a00:	557d                	li	a0,-1
    80000a02:	0141                	addi	sp,sp,16
    80000a04:	8082                	ret

Disassembly of section .tohost:

0000000080001000 <tohost>:
	...

0000000080001040 <fromhost>:
	...
