
fir1:     file format elf64-littleriscv


Disassembly of section .text.init:

0000000080000000 <_start>:
#endif

  .section ".text.init"
  .globl _start
_start:
  li  x1, 0
    80000000:	4081                	li	ra,0
  li  x2, 0
    80000002:	4101                	li	sp,0
  li  x3, 0
    80000004:	4181                	li	gp,0
  li  x4, 0
    80000006:	4201                	li	tp,0
  li  x5, 0
    80000008:	4281                	li	t0,0
  li  x6, 0
    8000000a:	4301                	li	t1,0
  li  x7, 0
    8000000c:	4381                	li	t2,0
  li  x8, 0
    8000000e:	4401                	li	s0,0
  li  x9, 0
    80000010:	4481                	li	s1,0
  li  x10,0
    80000012:	4501                	li	a0,0
  li  x11,0
    80000014:	4581                	li	a1,0
  li  x12,0
    80000016:	4601                	li	a2,0
  li  x13,0
    80000018:	4681                	li	a3,0
  li  x14,0
    8000001a:	4701                	li	a4,0
  li  x15,0
    8000001c:	4781                	li	a5,0
  li  x16,0
    8000001e:	4801                	li	a6,0
  li  x17,0
    80000020:	4881                	li	a7,0
  li  x18,0
    80000022:	4901                	li	s2,0
  li  x19,0
    80000024:	4981                	li	s3,0
  li  x20,0
    80000026:	4a01                	li	s4,0
  li  x21,0
    80000028:	4a81                	li	s5,0
  li  x22,0
    8000002a:	4b01                	li	s6,0
  li  x23,0
    8000002c:	4b81                	li	s7,0
  li  x24,0
    8000002e:	4c01                	li	s8,0
  li  x25,0
    80000030:	4c81                	li	s9,0
  li  x26,0
    80000032:	4d01                	li	s10,0
  li  x27,0
    80000034:	4d81                	li	s11,0
  li  x28,0
    80000036:	4e01                	li	t3,0
  li  x29,0
    80000038:	4e81                	li	t4,0
  li  x30,0
    8000003a:	4f01                	li	t5,0
  li  x31,0
    8000003c:	4f81                	li	t6,0

  # enable FPU and accelerator if present
  li t0, MSTATUS_FS | MSTATUS_XS
    8000003e:	62f9                	lui	t0,0x1e
  csrs mstatus, t0
    80000040:	3002a073          	csrs	mstatus,t0

  # make sure XLEN agrees with compilation choice
  li t0, 1
    80000044:	4285                	li	t0,1
  slli t0, t0, 31
    80000046:	02fe                	slli	t0,t0,0x1f
#if __riscv_xlen == 64
  bgez t0, 1f
    80000048:	0002d863          	bgez	t0,80000058 <_start+0x58>
#else
  bltz t0, 1f
#endif
2:
  li a0, 1
    8000004c:	4505                	li	a0,1
  sw a0, tohost, t0
    8000004e:	00002297          	auipc	t0,0x2
    80000052:	faa2a923          	sw	a0,-78(t0) # 80002000 <tohost>
  j 2b
    80000056:	bfdd                	j	8000004c <_start+0x4c>
1:

#ifdef __riscv_flen
  # initialize FPU if we have one
  la t0, 1f
    80000058:	00000297          	auipc	t0,0x0
    8000005c:	09028293          	addi	t0,t0,144 # 800000e8 <_start+0xe8>
  csrw mtvec, t0
    80000060:	30529073          	csrw	mtvec,t0

  fssr    x0
    80000064:	00301073          	fscsr	zero
  fmv.s.x f0, x0
    80000068:	f0000053          	fmv.w.x	ft0,zero
  fmv.s.x f1, x0
    8000006c:	f00000d3          	fmv.w.x	ft1,zero
  fmv.s.x f2, x0
    80000070:	f0000153          	fmv.w.x	ft2,zero
  fmv.s.x f3, x0
    80000074:	f00001d3          	fmv.w.x	ft3,zero
  fmv.s.x f4, x0
    80000078:	f0000253          	fmv.w.x	ft4,zero
  fmv.s.x f5, x0
    8000007c:	f00002d3          	fmv.w.x	ft5,zero
  fmv.s.x f6, x0
    80000080:	f0000353          	fmv.w.x	ft6,zero
  fmv.s.x f7, x0
    80000084:	f00003d3          	fmv.w.x	ft7,zero
  fmv.s.x f8, x0
    80000088:	f0000453          	fmv.w.x	fs0,zero
  fmv.s.x f9, x0
    8000008c:	f00004d3          	fmv.w.x	fs1,zero
  fmv.s.x f10,x0
    80000090:	f0000553          	fmv.w.x	fa0,zero
  fmv.s.x f11,x0
    80000094:	f00005d3          	fmv.w.x	fa1,zero
  fmv.s.x f12,x0
    80000098:	f0000653          	fmv.w.x	fa2,zero
  fmv.s.x f13,x0
    8000009c:	f00006d3          	fmv.w.x	fa3,zero
  fmv.s.x f14,x0
    800000a0:	f0000753          	fmv.w.x	fa4,zero
  fmv.s.x f15,x0
    800000a4:	f00007d3          	fmv.w.x	fa5,zero
  fmv.s.x f16,x0
    800000a8:	f0000853          	fmv.w.x	fa6,zero
  fmv.s.x f17,x0
    800000ac:	f00008d3          	fmv.w.x	fa7,zero
  fmv.s.x f18,x0
    800000b0:	f0000953          	fmv.w.x	fs2,zero
  fmv.s.x f19,x0
    800000b4:	f00009d3          	fmv.w.x	fs3,zero
  fmv.s.x f20,x0
    800000b8:	f0000a53          	fmv.w.x	fs4,zero
  fmv.s.x f21,x0
    800000bc:	f0000ad3          	fmv.w.x	fs5,zero
  fmv.s.x f22,x0
    800000c0:	f0000b53          	fmv.w.x	fs6,zero
  fmv.s.x f23,x0
    800000c4:	f0000bd3          	fmv.w.x	fs7,zero
  fmv.s.x f24,x0
    800000c8:	f0000c53          	fmv.w.x	fs8,zero
  fmv.s.x f25,x0
    800000cc:	f0000cd3          	fmv.w.x	fs9,zero
  fmv.s.x f26,x0
    800000d0:	f0000d53          	fmv.w.x	fs10,zero
  fmv.s.x f27,x0
    800000d4:	f0000dd3          	fmv.w.x	fs11,zero
  fmv.s.x f28,x0
    800000d8:	f0000e53          	fmv.w.x	ft8,zero
  fmv.s.x f29,x0
    800000dc:	f0000ed3          	fmv.w.x	ft9,zero
  fmv.s.x f30,x0
    800000e0:	f0000f53          	fmv.w.x	ft10,zero
  fmv.s.x f31,x0
    800000e4:	f0000fd3          	fmv.w.x	ft11,zero
1:
#endif

  # initialize trap vector
  la t0, trap_entry
    800000e8:	00000297          	auipc	t0,0x0
    800000ec:	03828293          	addi	t0,t0,56 # 80000120 <trap_entry>
  csrw mtvec, t0
    800000f0:	30529073          	csrw	mtvec,t0

  # initialize global pointer
.option push
.option norelax
  la gp, __global_pointer$
    800000f4:	00002197          	auipc	gp,0x2
    800000f8:	75418193          	addi	gp,gp,1876 # 80002848 <__global_pointer$>
.option pop

  la  tp, _end + 63
    800000fc:	86f18213          	addi	tp,gp,-1937 # 800020b7 <_tbss_end+0x37>
  and tp, tp, -64
    80000100:	fc027213          	andi	tp,tp,-64

  # get core id
  csrr a0, mhartid
    80000104:	f1402573          	csrr	a0,mhartid
  # for now, assume only 1 core
  li a1, 1
    80000108:	4585                	li	a1,1
1:bgeu a0, a1, 1b
    8000010a:	00b57063          	bgeu	a0,a1,8000010a <_start+0x10a>

  # give each core 128KB of stack + TLS
#define STKSHIFT 17
  add sp, a0, 1
    8000010e:	00150113          	addi	sp,a0,1
  sll sp, sp, STKSHIFT
    80000112:	0146                	slli	sp,sp,0x11
  add sp, sp, tp
    80000114:	9112                	add	sp,sp,tp
  sll a2, a0, STKSHIFT
    80000116:	01151613          	slli	a2,a0,0x11
  add tp, tp, a2
    8000011a:	9232                	add	tp,tp,a2

  j _init
    8000011c:	5310006f          	j	80000e4c <_init>

0000000080000120 <trap_entry>:

  .align 2
trap_entry:
  addi sp, sp, -272
    80000120:	716d                	addi	sp,sp,-272

  SREG x1, 1*REGBYTES(sp)
    80000122:	e406                	sd	ra,8(sp)
  SREG x2, 2*REGBYTES(sp)
    80000124:	e80a                	sd	sp,16(sp)
  SREG x3, 3*REGBYTES(sp)
    80000126:	ec0e                	sd	gp,24(sp)
  SREG x4, 4*REGBYTES(sp)
    80000128:	f012                	sd	tp,32(sp)
  SREG x5, 5*REGBYTES(sp)
    8000012a:	f416                	sd	t0,40(sp)
  SREG x6, 6*REGBYTES(sp)
    8000012c:	f81a                	sd	t1,48(sp)
  SREG x7, 7*REGBYTES(sp)
    8000012e:	fc1e                	sd	t2,56(sp)
  SREG x8, 8*REGBYTES(sp)
    80000130:	e0a2                	sd	s0,64(sp)
  SREG x9, 9*REGBYTES(sp)
    80000132:	e4a6                	sd	s1,72(sp)
  SREG x10, 10*REGBYTES(sp)
    80000134:	e8aa                	sd	a0,80(sp)
  SREG x11, 11*REGBYTES(sp)
    80000136:	ecae                	sd	a1,88(sp)
  SREG x12, 12*REGBYTES(sp)
    80000138:	f0b2                	sd	a2,96(sp)
  SREG x13, 13*REGBYTES(sp)
    8000013a:	f4b6                	sd	a3,104(sp)
  SREG x14, 14*REGBYTES(sp)
    8000013c:	f8ba                	sd	a4,112(sp)
  SREG x15, 15*REGBYTES(sp)
    8000013e:	fcbe                	sd	a5,120(sp)
  SREG x16, 16*REGBYTES(sp)
    80000140:	e142                	sd	a6,128(sp)
  SREG x17, 17*REGBYTES(sp)
    80000142:	e546                	sd	a7,136(sp)
  SREG x18, 18*REGBYTES(sp)
    80000144:	e94a                	sd	s2,144(sp)
  SREG x19, 19*REGBYTES(sp)
    80000146:	ed4e                	sd	s3,152(sp)
  SREG x20, 20*REGBYTES(sp)
    80000148:	f152                	sd	s4,160(sp)
  SREG x21, 21*REGBYTES(sp)
    8000014a:	f556                	sd	s5,168(sp)
  SREG x22, 22*REGBYTES(sp)
    8000014c:	f95a                	sd	s6,176(sp)
  SREG x23, 23*REGBYTES(sp)
    8000014e:	fd5e                	sd	s7,184(sp)
  SREG x24, 24*REGBYTES(sp)
    80000150:	e1e2                	sd	s8,192(sp)
  SREG x25, 25*REGBYTES(sp)
    80000152:	e5e6                	sd	s9,200(sp)
  SREG x26, 26*REGBYTES(sp)
    80000154:	e9ea                	sd	s10,208(sp)
  SREG x27, 27*REGBYTES(sp)
    80000156:	edee                	sd	s11,216(sp)
  SREG x28, 28*REGBYTES(sp)
    80000158:	f1f2                	sd	t3,224(sp)
  SREG x29, 29*REGBYTES(sp)
    8000015a:	f5f6                	sd	t4,232(sp)
  SREG x30, 30*REGBYTES(sp)
    8000015c:	f9fa                	sd	t5,240(sp)
  SREG x31, 31*REGBYTES(sp)
    8000015e:	fdfe                	sd	t6,248(sp)

  csrr a0, mcause
    80000160:	34202573          	csrr	a0,mcause
  csrr a1, mepc
    80000164:	341025f3          	csrr	a1,mepc
  mv a2, sp
    80000168:	860a                	mv	a2,sp
  jal handle_trap
    8000016a:	3b5000ef          	jal	80000d1e <handle_trap>
  csrw mepc, a0
    8000016e:	34151073          	csrw	mepc,a0

  # Remain in M-mode after eret
  li t0, MSTATUS_MPP
    80000172:	6289                	lui	t0,0x2
    80000174:	8002829b          	addiw	t0,t0,-2048 # 1800 <threadsense.3+0x17fc>
  csrs mstatus, t0
    80000178:	3002a073          	csrs	mstatus,t0

  LREG x1, 1*REGBYTES(sp)
    8000017c:	60a2                	ld	ra,8(sp)
  LREG x2, 2*REGBYTES(sp)
    8000017e:	6142                	ld	sp,16(sp)
  LREG x3, 3*REGBYTES(sp)
    80000180:	61e2                	ld	gp,24(sp)
  LREG x4, 4*REGBYTES(sp)
    80000182:	7202                	ld	tp,32(sp)
  LREG x5, 5*REGBYTES(sp)
    80000184:	72a2                	ld	t0,40(sp)
  LREG x6, 6*REGBYTES(sp)
    80000186:	7342                	ld	t1,48(sp)
  LREG x7, 7*REGBYTES(sp)
    80000188:	73e2                	ld	t2,56(sp)
  LREG x8, 8*REGBYTES(sp)
    8000018a:	6406                	ld	s0,64(sp)
  LREG x9, 9*REGBYTES(sp)
    8000018c:	64a6                	ld	s1,72(sp)
  LREG x10, 10*REGBYTES(sp)
    8000018e:	6546                	ld	a0,80(sp)
  LREG x11, 11*REGBYTES(sp)
    80000190:	65e6                	ld	a1,88(sp)
  LREG x12, 12*REGBYTES(sp)
    80000192:	7606                	ld	a2,96(sp)
  LREG x13, 13*REGBYTES(sp)
    80000194:	76a6                	ld	a3,104(sp)
  LREG x14, 14*REGBYTES(sp)
    80000196:	7746                	ld	a4,112(sp)
  LREG x15, 15*REGBYTES(sp)
    80000198:	77e6                	ld	a5,120(sp)
  LREG x16, 16*REGBYTES(sp)
    8000019a:	680a                	ld	a6,128(sp)
  LREG x17, 17*REGBYTES(sp)
    8000019c:	68aa                	ld	a7,136(sp)
  LREG x18, 18*REGBYTES(sp)
    8000019e:	694a                	ld	s2,144(sp)
  LREG x19, 19*REGBYTES(sp)
    800001a0:	69ea                	ld	s3,152(sp)
  LREG x20, 20*REGBYTES(sp)
    800001a2:	7a0a                	ld	s4,160(sp)
  LREG x21, 21*REGBYTES(sp)
    800001a4:	7aaa                	ld	s5,168(sp)
  LREG x22, 22*REGBYTES(sp)
    800001a6:	7b4a                	ld	s6,176(sp)
  LREG x23, 23*REGBYTES(sp)
    800001a8:	7bea                	ld	s7,184(sp)
  LREG x24, 24*REGBYTES(sp)
    800001aa:	6c0e                	ld	s8,192(sp)
  LREG x25, 25*REGBYTES(sp)
    800001ac:	6cae                	ld	s9,200(sp)
  LREG x26, 26*REGBYTES(sp)
    800001ae:	6d4e                	ld	s10,208(sp)
  LREG x27, 27*REGBYTES(sp)
    800001b0:	6dee                	ld	s11,216(sp)
  LREG x28, 28*REGBYTES(sp)
    800001b2:	7e0e                	ld	t3,224(sp)
  LREG x29, 29*REGBYTES(sp)
    800001b4:	7eae                	ld	t4,232(sp)
  LREG x30, 30*REGBYTES(sp)
    800001b6:	7f4e                	ld	t5,240(sp)
  LREG x31, 31*REGBYTES(sp)
    800001b8:	7fee                	ld	t6,248(sp)

  addi sp, sp, 272
    800001ba:	6151                	addi	sp,sp,272
  mret
    800001bc:	30200073          	mret
	...

Disassembly of section .text:

00000000800001c2 <verify>:
#include <stdint.h>

#define static_assert(cond) switch(0) { case 0: case !!(long)(cond): ; }

static int verify(int n, const volatile int* test, const int* verify)
{
    800001c2:	715d                	addi	sp,sp,-80
    800001c4:	e486                	sd	ra,72(sp)
    800001c6:	e0a2                	sd	s0,64(sp)
    800001c8:	0880                	addi	s0,sp,80
    800001ca:	87aa                	mv	a5,a0
    800001cc:	fcb43023          	sd	a1,-64(s0)
    800001d0:	fac43c23          	sd	a2,-72(s0)
    800001d4:	fcf42623          	sw	a5,-52(s0)
  int i;
  // Unrolled for faster verification
  for (i = 0; i < n/2*2; i+=2)
    800001d8:	fe042623          	sw	zero,-20(s0)
    800001dc:	a841                	j	8000026c <verify+0xaa>
  {
    int t0 = test[i], t1 = test[i+1];
    800001de:	fec42783          	lw	a5,-20(s0)
    800001e2:	078a                	slli	a5,a5,0x2
    800001e4:	fc043703          	ld	a4,-64(s0)
    800001e8:	97ba                	add	a5,a5,a4
    800001ea:	439c                	lw	a5,0(a5)
    800001ec:	fef42423          	sw	a5,-24(s0)
    800001f0:	fec42783          	lw	a5,-20(s0)
    800001f4:	0785                	addi	a5,a5,1
    800001f6:	078a                	slli	a5,a5,0x2
    800001f8:	fc043703          	ld	a4,-64(s0)
    800001fc:	97ba                	add	a5,a5,a4
    800001fe:	439c                	lw	a5,0(a5)
    80000200:	fef42223          	sw	a5,-28(s0)
    int v0 = verify[i], v1 = verify[i+1];
    80000204:	fec42783          	lw	a5,-20(s0)
    80000208:	078a                	slli	a5,a5,0x2
    8000020a:	fb843703          	ld	a4,-72(s0)
    8000020e:	97ba                	add	a5,a5,a4
    80000210:	439c                	lw	a5,0(a5)
    80000212:	fef42023          	sw	a5,-32(s0)
    80000216:	fec42783          	lw	a5,-20(s0)
    8000021a:	0785                	addi	a5,a5,1
    8000021c:	078a                	slli	a5,a5,0x2
    8000021e:	fb843703          	ld	a4,-72(s0)
    80000222:	97ba                	add	a5,a5,a4
    80000224:	439c                	lw	a5,0(a5)
    80000226:	fcf42e23          	sw	a5,-36(s0)
    if (t0 != v0) return i+1;
    8000022a:	fe842783          	lw	a5,-24(s0)
    8000022e:	873e                	mv	a4,a5
    80000230:	fe042783          	lw	a5,-32(s0)
    80000234:	2701                	sext.w	a4,a4
    80000236:	2781                	sext.w	a5,a5
    80000238:	00f70763          	beq	a4,a5,80000246 <verify+0x84>
    8000023c:	fec42783          	lw	a5,-20(s0)
    80000240:	2785                	addiw	a5,a5,1
    80000242:	2781                	sext.w	a5,a5
    80000244:	a049                	j	800002c6 <verify+0x104>
    if (t1 != v1) return i+2;
    80000246:	fe442783          	lw	a5,-28(s0)
    8000024a:	873e                	mv	a4,a5
    8000024c:	fdc42783          	lw	a5,-36(s0)
    80000250:	2701                	sext.w	a4,a4
    80000252:	2781                	sext.w	a5,a5
    80000254:	00f70763          	beq	a4,a5,80000262 <verify+0xa0>
    80000258:	fec42783          	lw	a5,-20(s0)
    8000025c:	2789                	addiw	a5,a5,2
    8000025e:	2781                	sext.w	a5,a5
    80000260:	a09d                	j	800002c6 <verify+0x104>
  for (i = 0; i < n/2*2; i+=2)
    80000262:	fec42783          	lw	a5,-20(s0)
    80000266:	2789                	addiw	a5,a5,2
    80000268:	fef42623          	sw	a5,-20(s0)
    8000026c:	fcc42783          	lw	a5,-52(s0)
    80000270:	01f7d71b          	srliw	a4,a5,0x1f
    80000274:	9fb9                	addw	a5,a5,a4
    80000276:	4017d79b          	sraiw	a5,a5,0x1
    8000027a:	2781                	sext.w	a5,a5
    8000027c:	0017979b          	slliw	a5,a5,0x1
    80000280:	2781                	sext.w	a5,a5
    80000282:	fec42703          	lw	a4,-20(s0)
    80000286:	2701                	sext.w	a4,a4
    80000288:	f4f74be3          	blt	a4,a5,800001de <verify+0x1c>
  }
  if (n % 2 != 0 && test[n-1] != verify[n-1])
    8000028c:	fcc42783          	lw	a5,-52(s0)
    80000290:	8b85                	andi	a5,a5,1
    80000292:	2781                	sext.w	a5,a5
    80000294:	cb85                	beqz	a5,800002c4 <verify+0x102>
    80000296:	fcc42783          	lw	a5,-52(s0)
    8000029a:	078a                	slli	a5,a5,0x2
    8000029c:	17f1                	addi	a5,a5,-4
    8000029e:	fc043703          	ld	a4,-64(s0)
    800002a2:	97ba                	add	a5,a5,a4
    800002a4:	439c                	lw	a5,0(a5)
    800002a6:	0007871b          	sext.w	a4,a5
    800002aa:	fcc42783          	lw	a5,-52(s0)
    800002ae:	078a                	slli	a5,a5,0x2
    800002b0:	17f1                	addi	a5,a5,-4
    800002b2:	fb843683          	ld	a3,-72(s0)
    800002b6:	97b6                	add	a5,a5,a3
    800002b8:	439c                	lw	a5,0(a5)
    800002ba:	00f70563          	beq	a4,a5,800002c4 <verify+0x102>
    return n;
    800002be:	fcc42783          	lw	a5,-52(s0)
    800002c2:	a011                	j	800002c6 <verify+0x104>
  return 0;
    800002c4:	4781                	li	a5,0
}
    800002c6:	853e                	mv	a0,a5
    800002c8:	60a6                	ld	ra,72(sp)
    800002ca:	6406                	ld	s0,64(sp)
    800002cc:	6161                	addi	sp,sp,80
    800002ce:	8082                	ret

00000000800002d0 <verifyDouble>:

static int verifyDouble(int n, const volatile double* test, const double* verify)
{
    800002d0:	711d                	addi	sp,sp,-96
    800002d2:	ec86                	sd	ra,88(sp)
    800002d4:	e8a2                	sd	s0,80(sp)
    800002d6:	1080                	addi	s0,sp,96
    800002d8:	87aa                	mv	a5,a0
    800002da:	fab43823          	sd	a1,-80(s0)
    800002de:	fac43423          	sd	a2,-88(s0)
    800002e2:	faf42e23          	sw	a5,-68(s0)
  int i;
  // Unrolled for faster verification
  for (i = 0; i < n/2*2; i+=2)
    800002e6:	fe042623          	sw	zero,-20(s0)
    800002ea:	a04d                	j	8000038c <verifyDouble+0xbc>
  {
    double t0 = test[i], t1 = test[i+1];
    800002ec:	fec42783          	lw	a5,-20(s0)
    800002f0:	078e                	slli	a5,a5,0x3
    800002f2:	fb043703          	ld	a4,-80(s0)
    800002f6:	97ba                	add	a5,a5,a4
    800002f8:	239c                	fld	fa5,0(a5)
    800002fa:	fef43027          	fsd	fa5,-32(s0)
    800002fe:	fec42783          	lw	a5,-20(s0)
    80000302:	0785                	addi	a5,a5,1
    80000304:	078e                	slli	a5,a5,0x3
    80000306:	fb043703          	ld	a4,-80(s0)
    8000030a:	97ba                	add	a5,a5,a4
    8000030c:	239c                	fld	fa5,0(a5)
    8000030e:	fcf43c27          	fsd	fa5,-40(s0)
    double v0 = verify[i], v1 = verify[i+1];
    80000312:	fec42783          	lw	a5,-20(s0)
    80000316:	078e                	slli	a5,a5,0x3
    80000318:	fa843703          	ld	a4,-88(s0)
    8000031c:	97ba                	add	a5,a5,a4
    8000031e:	239c                	fld	fa5,0(a5)
    80000320:	fcf43827          	fsd	fa5,-48(s0)
    80000324:	fec42783          	lw	a5,-20(s0)
    80000328:	0785                	addi	a5,a5,1
    8000032a:	078e                	slli	a5,a5,0x3
    8000032c:	fa843703          	ld	a4,-88(s0)
    80000330:	97ba                	add	a5,a5,a4
    80000332:	239c                	fld	fa5,0(a5)
    80000334:	fcf43427          	fsd	fa5,-56(s0)
    int eq1 = t0 == v0, eq2 = t1 == v1;
    80000338:	fe043707          	fld	fa4,-32(s0)
    8000033c:	fd043787          	fld	fa5,-48(s0)
    80000340:	a2f727d3          	feq.d	a5,fa4,fa5
    80000344:	0ff7f793          	zext.b	a5,a5
    80000348:	fcf42223          	sw	a5,-60(s0)
    8000034c:	fd843707          	fld	fa4,-40(s0)
    80000350:	fc843787          	fld	fa5,-56(s0)
    80000354:	a2f727d3          	feq.d	a5,fa4,fa5
    80000358:	0ff7f793          	zext.b	a5,a5
    8000035c:	fcf42023          	sw	a5,-64(s0)
    if (!(eq1 & eq2)) return i+1+eq1;
    80000360:	fc442783          	lw	a5,-60(s0)
    80000364:	873e                	mv	a4,a5
    80000366:	fc042783          	lw	a5,-64(s0)
    8000036a:	8ff9                	and	a5,a5,a4
    8000036c:	2781                	sext.w	a5,a5
    8000036e:	eb91                	bnez	a5,80000382 <verifyDouble+0xb2>
    80000370:	fec42783          	lw	a5,-20(s0)
    80000374:	2785                	addiw	a5,a5,1
    80000376:	2781                	sext.w	a5,a5
    80000378:	fc442703          	lw	a4,-60(s0)
    8000037c:	9fb9                	addw	a5,a5,a4
    8000037e:	2781                	sext.w	a5,a5
    80000380:	a095                	j	800003e4 <verifyDouble+0x114>
  for (i = 0; i < n/2*2; i+=2)
    80000382:	fec42783          	lw	a5,-20(s0)
    80000386:	2789                	addiw	a5,a5,2
    80000388:	fef42623          	sw	a5,-20(s0)
    8000038c:	fbc42783          	lw	a5,-68(s0)
    80000390:	01f7d71b          	srliw	a4,a5,0x1f
    80000394:	9fb9                	addw	a5,a5,a4
    80000396:	4017d79b          	sraiw	a5,a5,0x1
    8000039a:	2781                	sext.w	a5,a5
    8000039c:	0017979b          	slliw	a5,a5,0x1
    800003a0:	2781                	sext.w	a5,a5
    800003a2:	fec42703          	lw	a4,-20(s0)
    800003a6:	2701                	sext.w	a4,a4
    800003a8:	f4f742e3          	blt	a4,a5,800002ec <verifyDouble+0x1c>
  }
  if (n % 2 != 0 && test[n-1] != verify[n-1])
    800003ac:	fbc42783          	lw	a5,-68(s0)
    800003b0:	8b85                	andi	a5,a5,1
    800003b2:	2781                	sext.w	a5,a5
    800003b4:	c79d                	beqz	a5,800003e2 <verifyDouble+0x112>
    800003b6:	fbc42783          	lw	a5,-68(s0)
    800003ba:	078e                	slli	a5,a5,0x3
    800003bc:	17e1                	addi	a5,a5,-8
    800003be:	fb043703          	ld	a4,-80(s0)
    800003c2:	97ba                	add	a5,a5,a4
    800003c4:	2398                	fld	fa4,0(a5)
    800003c6:	fbc42783          	lw	a5,-68(s0)
    800003ca:	078e                	slli	a5,a5,0x3
    800003cc:	17e1                	addi	a5,a5,-8
    800003ce:	fa843703          	ld	a4,-88(s0)
    800003d2:	97ba                	add	a5,a5,a4
    800003d4:	239c                	fld	fa5,0(a5)
    800003d6:	a2f727d3          	feq.d	a5,fa4,fa5
    800003da:	e781                	bnez	a5,800003e2 <verifyDouble+0x112>
    return n;
    800003dc:	fbc42783          	lw	a5,-68(s0)
    800003e0:	a011                	j	800003e4 <verifyDouble+0x114>
  return 0;
    800003e2:	4781                	li	a5,0
}
    800003e4:	853e                	mv	a0,a5
    800003e6:	60e6                	ld	ra,88(sp)
    800003e8:	6446                	ld	s0,80(sp)
    800003ea:	6125                	addi	sp,sp,96
    800003ec:	8082                	ret

00000000800003ee <barrier>:

static void __attribute__((noinline)) barrier(int ncores)
{
    800003ee:	1101                	addi	sp,sp,-32
    800003f0:	ec06                	sd	ra,24(sp)
    800003f2:	e822                	sd	s0,16(sp)
    800003f4:	1000                	addi	s0,sp,32
    800003f6:	87aa                	mv	a5,a0
    800003f8:	fef42623          	sw	a5,-20(s0)
  static volatile int sense;
  static volatile int count;
  static __thread int threadsense;

  __sync_synchronize();
    800003fc:	0330000f          	fence	rw,rw

  threadsense = !threadsense;
    80000400:	00022783          	lw	a5,0(tp) # 0 <threadsense.2>
    80000404:	0017b793          	seqz	a5,a5
    80000408:	0ff7f793          	zext.b	a5,a5
    8000040c:	0007871b          	sext.w	a4,a5
    80000410:	00e22023          	sw	a4,0(tp) # 0 <threadsense.2>
  if (__sync_fetch_and_add(&count, 1) == ncores-1)
    80000414:	00002797          	auipc	a5,0x2
    80000418:	c3478793          	addi	a5,a5,-972 # 80002048 <count.1>
    8000041c:	4705                	li	a4,1
    8000041e:	06e7a6af          	amoadd.w.aqrl	a3,a4,(a5)
    80000422:	0006879b          	sext.w	a5,a3
    80000426:	873e                	mv	a4,a5
    80000428:	fec42783          	lw	a5,-20(s0)
    8000042c:	37fd                	addiw	a5,a5,-1
    8000042e:	2781                	sext.w	a5,a5
    80000430:	02f71063          	bne	a4,a5,80000450 <barrier+0x62>
  {
    count = 0;
    80000434:	00002797          	auipc	a5,0x2
    80000438:	c1478793          	addi	a5,a5,-1004 # 80002048 <count.1>
    8000043c:	0007a023          	sw	zero,0(a5)
    sense = threadsense;
    80000440:	00022703          	lw	a4,0(tp) # 0 <threadsense.2>
    80000444:	00002797          	auipc	a5,0x2
    80000448:	c0878793          	addi	a5,a5,-1016 # 8000204c <sense.0>
    8000044c:	c398                	sw	a4,0(a5)
    8000044e:	a829                	j	80000468 <barrier+0x7a>
  }
  else while(sense != threadsense)
    80000450:	0001                	nop
    80000452:	00002797          	auipc	a5,0x2
    80000456:	bfa78793          	addi	a5,a5,-1030 # 8000204c <sense.0>
    8000045a:	439c                	lw	a5,0(a5)
    8000045c:	0007871b          	sext.w	a4,a5
    80000460:	00022783          	lw	a5,0(tp) # 0 <threadsense.2>
    80000464:	fef717e3          	bne	a4,a5,80000452 <barrier+0x64>
    ;

  __sync_synchronize();
    80000468:	0330000f          	fence	rw,rw
}
    8000046c:	0001                	nop
    8000046e:	60e2                	ld	ra,24(sp)
    80000470:	6442                	ld	s0,16(sp)
    80000472:	6105                	addi	sp,sp,32
    80000474:	8082                	ret

0000000080000476 <lfsr>:

static uint64_t lfsr(uint64_t x)
{
    80000476:	7179                	addi	sp,sp,-48
    80000478:	f406                	sd	ra,40(sp)
    8000047a:	f022                	sd	s0,32(sp)
    8000047c:	1800                	addi	s0,sp,48
    8000047e:	fca43c23          	sd	a0,-40(s0)
  uint64_t bit = (x ^ (x >> 1)) & 1;
    80000482:	fd843783          	ld	a5,-40(s0)
    80000486:	0017d713          	srli	a4,a5,0x1
    8000048a:	fd843783          	ld	a5,-40(s0)
    8000048e:	8fb9                	xor	a5,a5,a4
    80000490:	8b85                	andi	a5,a5,1
    80000492:	fef43423          	sd	a5,-24(s0)
  return (x >> 1) | (bit << 62);
    80000496:	fd843783          	ld	a5,-40(s0)
    8000049a:	0017d713          	srli	a4,a5,0x1
    8000049e:	fe843783          	ld	a5,-24(s0)
    800004a2:	17fa                	slli	a5,a5,0x3e
    800004a4:	8fd9                	or	a5,a5,a4
}
    800004a6:	853e                	mv	a0,a5
    800004a8:	70a2                	ld	ra,40(sp)
    800004aa:	7402                	ld	s0,32(sp)
    800004ac:	6145                	addi	sp,sp,48
    800004ae:	8082                	ret

00000000800004b0 <insn_len>:

static uintptr_t insn_len(uintptr_t pc)
{
    800004b0:	1101                	addi	sp,sp,-32
    800004b2:	ec06                	sd	ra,24(sp)
    800004b4:	e822                	sd	s0,16(sp)
    800004b6:	1000                	addi	s0,sp,32
    800004b8:	fea43423          	sd	a0,-24(s0)
  return (*(unsigned short*)pc & 3) ? 4 : 2;
    800004bc:	fe843783          	ld	a5,-24(s0)
    800004c0:	0007d783          	lhu	a5,0(a5)
    800004c4:	2781                	sext.w	a5,a5
    800004c6:	8b8d                	andi	a5,a5,3
    800004c8:	2781                	sext.w	a5,a5
    800004ca:	c399                	beqz	a5,800004d0 <insn_len+0x20>
    800004cc:	4791                	li	a5,4
    800004ce:	a011                	j	800004d2 <insn_len+0x22>
    800004d0:	4789                	li	a5,2
}
    800004d2:	853e                	mv	a0,a5
    800004d4:	60e2                	ld	ra,24(sp)
    800004d6:	6442                	ld	s0,16(sp)
    800004d8:	6105                	addi	sp,sp,32
    800004da:	8082                	ret

00000000800004dc <add_q31>:
#include <stdio.h>  // supports printf
#include "util.h"   // supports verify

// Add two Q1.31 fixed point numbers
int add_q31(int a, int b) {
    800004dc:	1101                	addi	sp,sp,-32
    800004de:	ec06                	sd	ra,24(sp)
    800004e0:	e822                	sd	s0,16(sp)
    800004e2:	1000                	addi	s0,sp,32
    800004e4:	87aa                	mv	a5,a0
    800004e6:	872e                	mv	a4,a1
    800004e8:	fef42623          	sw	a5,-20(s0)
    800004ec:	87ba                	mv	a5,a4
    800004ee:	fef42423          	sw	a5,-24(s0)
  return a+b;
    800004f2:	fec42783          	lw	a5,-20(s0)
    800004f6:	873e                	mv	a4,a5
    800004f8:	fe842783          	lw	a5,-24(s0)
    800004fc:	9fb9                	addw	a5,a5,a4
    800004fe:	2781                	sext.w	a5,a5
}
    80000500:	853e                	mv	a0,a5
    80000502:	60e2                	ld	ra,24(sp)
    80000504:	6442                	ld	s0,16(sp)
    80000506:	6105                	addi	sp,sp,32
    80000508:	8082                	ret

000000008000050a <mul_q31>:

// Multiplly two Q1.31 fixed point numbers
int mul_q31(int a, int b) {
    8000050a:	7179                	addi	sp,sp,-48
    8000050c:	f406                	sd	ra,40(sp)
    8000050e:	f022                	sd	s0,32(sp)
    80000510:	1800                	addi	s0,sp,48
    80000512:	87aa                	mv	a5,a0
    80000514:	872e                	mv	a4,a1
    80000516:	fcf42e23          	sw	a5,-36(s0)
    8000051a:	87ba                	mv	a5,a4
    8000051c:	fcf42c23          	sw	a5,-40(s0)
  long res = (long)a * (long)b;
    80000520:	fdc42703          	lw	a4,-36(s0)
    80000524:	fd842783          	lw	a5,-40(s0)
    80000528:	02f707b3          	mul	a5,a4,a5
    8000052c:	fef43423          	sd	a5,-24(s0)
    int result = res >> 31; // shift right to get the 32-bit result; 
    80000530:	fe843783          	ld	a5,-24(s0)
    80000534:	87fd                	srai	a5,a5,0x1f
    80000536:	fef42223          	sw	a5,-28(s0)
        //this is equivalent to shifting left by 1 and discarding the bottom 32 bits
    //printf("mul_q31: a = %x, b = %x, res = %lx, result = %x\n", a, b, res, result);
    return result; 
    8000053a:	fe442783          	lw	a5,-28(s0)
}
    8000053e:	853e                	mv	a0,a5
    80000540:	70a2                	ld	ra,40(sp)
    80000542:	7402                	ld	s0,32(sp)
    80000544:	6145                	addi	sp,sp,48
    80000546:	8082                	ret

0000000080000548 <fir>:

// low pass filter x with coefficients c, result in y
// n is the length of x, m is the length of c
// y[i] = c[0]*x[i] + c[1]*x[i+1] + ... + c[m-1]*x[i+m-1]
// inputs in Q1.31 format
void fir(int x[], int c[], int y[], int n, int m) {
    80000548:	715d                	addi	sp,sp,-80
    8000054a:	e486                	sd	ra,72(sp)
    8000054c:	e0a2                	sd	s0,64(sp)
    8000054e:	fc26                	sd	s1,56(sp)
    80000550:	f84a                	sd	s2,48(sp)
    80000552:	0880                	addi	s0,sp,80
    80000554:	fca43423          	sd	a0,-56(s0)
    80000558:	fcb43023          	sd	a1,-64(s0)
    8000055c:	fac43c23          	sd	a2,-72(s0)
    80000560:	87b6                	mv	a5,a3
    80000562:	faf42a23          	sw	a5,-76(s0)
    80000566:	87ba                	mv	a5,a4
    80000568:	faf42823          	sw	a5,-80(s0)
    int i, j;
    for (j=0; j<n-m+1; j++) {
    8000056c:	fc042c23          	sw	zero,-40(s0)
    80000570:	a06d                	j	8000061a <fir+0xd2>
        y[j] = 0;
    80000572:	fd842783          	lw	a5,-40(s0)
    80000576:	078a                	slli	a5,a5,0x2
    80000578:	fb843703          	ld	a4,-72(s0)
    8000057c:	97ba                	add	a5,a5,a4
    8000057e:	0007a023          	sw	zero,0(a5)
        for (i=0; i<m; i++) 
    80000582:	fc042e23          	sw	zero,-36(s0)
    80000586:	a8a5                	j	800005fe <fir+0xb6>
            y[j] = add_q31(y[j], mul_q31(c[i], x[j-i+(m-1)]));
    80000588:	fd842783          	lw	a5,-40(s0)
    8000058c:	078a                	slli	a5,a5,0x2
    8000058e:	fb843703          	ld	a4,-72(s0)
    80000592:	97ba                	add	a5,a5,a4
    80000594:	0007a903          	lw	s2,0(a5)
    80000598:	fdc42783          	lw	a5,-36(s0)
    8000059c:	078a                	slli	a5,a5,0x2
    8000059e:	fc043703          	ld	a4,-64(s0)
    800005a2:	97ba                	add	a5,a5,a4
    800005a4:	4394                	lw	a3,0(a5)
    800005a6:	fd842783          	lw	a5,-40(s0)
    800005aa:	873e                	mv	a4,a5
    800005ac:	fdc42783          	lw	a5,-36(s0)
    800005b0:	40f707bb          	subw	a5,a4,a5
    800005b4:	0007871b          	sext.w	a4,a5
    800005b8:	fb042783          	lw	a5,-80(s0)
    800005bc:	37fd                	addiw	a5,a5,-1
    800005be:	2781                	sext.w	a5,a5
    800005c0:	9fb9                	addw	a5,a5,a4
    800005c2:	2781                	sext.w	a5,a5
    800005c4:	078a                	slli	a5,a5,0x2
    800005c6:	fc843703          	ld	a4,-56(s0)
    800005ca:	97ba                	add	a5,a5,a4
    800005cc:	439c                	lw	a5,0(a5)
    800005ce:	85be                	mv	a1,a5
    800005d0:	8536                	mv	a0,a3
    800005d2:	f39ff0ef          	jal	8000050a <mul_q31>
    800005d6:	87aa                	mv	a5,a0
    800005d8:	86be                	mv	a3,a5
    800005da:	fd842783          	lw	a5,-40(s0)
    800005de:	078a                	slli	a5,a5,0x2
    800005e0:	fb843703          	ld	a4,-72(s0)
    800005e4:	00f704b3          	add	s1,a4,a5
    800005e8:	85b6                	mv	a1,a3
    800005ea:	854a                	mv	a0,s2
    800005ec:	ef1ff0ef          	jal	800004dc <add_q31>
    800005f0:	87aa                	mv	a5,a0
    800005f2:	c09c                	sw	a5,0(s1)
        for (i=0; i<m; i++) 
    800005f4:	fdc42783          	lw	a5,-36(s0)
    800005f8:	2785                	addiw	a5,a5,1
    800005fa:	fcf42e23          	sw	a5,-36(s0)
    800005fe:	fdc42783          	lw	a5,-36(s0)
    80000602:	873e                	mv	a4,a5
    80000604:	fb042783          	lw	a5,-80(s0)
    80000608:	2701                	sext.w	a4,a4
    8000060a:	2781                	sext.w	a5,a5
    8000060c:	f6f74ee3          	blt	a4,a5,80000588 <fir+0x40>
    for (j=0; j<n-m+1; j++) {
    80000610:	fd842783          	lw	a5,-40(s0)
    80000614:	2785                	addiw	a5,a5,1
    80000616:	fcf42c23          	sw	a5,-40(s0)
    8000061a:	fb442783          	lw	a5,-76(s0)
    8000061e:	873e                	mv	a4,a5
    80000620:	fb042783          	lw	a5,-80(s0)
    80000624:	40f707bb          	subw	a5,a4,a5
    80000628:	2781                	sext.w	a5,a5
    8000062a:	fd842703          	lw	a4,-40(s0)
    8000062e:	2701                	sext.w	a4,a4
    80000630:	f4e7d1e3          	bge	a5,a4,80000572 <fir+0x2a>
    }
}
    80000634:	0001                	nop
    80000636:	0001                	nop
    80000638:	60a6                	ld	ra,72(sp)
    8000063a:	6406                	ld	s0,64(sp)
    8000063c:	74e2                	ld	s1,56(sp)
    8000063e:	7942                	ld	s2,48(sp)
    80000640:	6161                	addi	sp,sp,80
    80000642:	8082                	ret

0000000080000644 <main>:

int main(void) {
    80000644:	716d                	addi	sp,sp,-272
    80000646:	e606                	sd	ra,264(sp)
    80000648:	e222                	sd	s0,256(sp)
    8000064a:	0a00                	addi	s0,sp,272
    int32_t sin_table[20] = { // in Q1.31 format
    8000064c:	00001797          	auipc	a5,0x1
    80000650:	40478793          	addi	a5,a5,1028 # 80001a50 <atol+0xf2>
    80000654:	0007be03          	ld	t3,0(a5)
    80000658:	0087b303          	ld	t1,8(a5)
    8000065c:	0107b883          	ld	a7,16(a5)
    80000660:	0187b803          	ld	a6,24(a5)
    80000664:	7388                	ld	a0,32(a5)
    80000666:	778c                	ld	a1,40(a5)
    80000668:	7b90                	ld	a2,48(a5)
    8000066a:	7f94                	ld	a3,56(a5)
    8000066c:	63b8                	ld	a4,64(a5)
    8000066e:	67bc                	ld	a5,72(a5)
    80000670:	f9c43c23          	sd	t3,-104(s0)
    80000674:	fa643023          	sd	t1,-96(s0)
    80000678:	fb143423          	sd	a7,-88(s0)
    8000067c:	fb043823          	sd	a6,-80(s0)
    80000680:	faa43c23          	sd	a0,-72(s0)
    80000684:	fcb43023          	sd	a1,-64(s0)
    80000688:	fcc43423          	sd	a2,-56(s0)
    8000068c:	fcd43823          	sd	a3,-48(s0)
    80000690:	fce43c23          	sd	a4,-40(s0)
    80000694:	fef43023          	sd	a5,-32(s0)
        0xB4C373EE, // sin(16*2pi/10)
        0x8643C7B3, // sin(17*2pi/10)
        0x8643C7B3, // sin(18*2pi/10)
        0xB4C373EE  // sin(19*2pi/10)
    };  
    int lowpass[4] = {0x20000001, 0x20000002, 0x20000003, 0x20000004}; // 1/4 in Q1.31 format
    80000698:	00001797          	auipc	a5,0x1
    8000069c:	40878793          	addi	a5,a5,1032 # 80001aa0 <atol+0x142>
    800006a0:	6398                	ld	a4,0(a5)
    800006a2:	f8e43423          	sd	a4,-120(s0)
    800006a6:	679c                	ld	a5,8(a5)
    800006a8:	f8f43823          	sd	a5,-112(s0)
    int y[17];
    int expected[17] = { // in Q1.31 format
    800006ac:	00001797          	auipc	a5,0x1
    800006b0:	40478793          	addi	a5,a5,1028 # 80001ab0 <atol+0x152>
    800006b4:	0007b303          	ld	t1,0(a5)
    800006b8:	0087b883          	ld	a7,8(a5)
    800006bc:	0107b803          	ld	a6,16(a5)
    800006c0:	6f88                	ld	a0,24(a5)
    800006c2:	738c                	ld	a1,32(a5)
    800006c4:	7790                	ld	a2,40(a5)
    800006c6:	7b94                	ld	a3,48(a5)
    800006c8:	7f98                	ld	a4,56(a5)
    800006ca:	ee643c23          	sd	t1,-264(s0)
    800006ce:	f1143023          	sd	a7,-256(s0)
    800006d2:	f1043423          	sd	a6,-248(s0)
    800006d6:	f0a43823          	sd	a0,-240(s0)
    800006da:	f0b43c23          	sd	a1,-232(s0)
    800006de:	f2c43023          	sd	a2,-224(s0)
    800006e2:	f2d43423          	sd	a3,-216(s0)
    800006e6:	f2e43823          	sd	a4,-208(s0)
    800006ea:	43bc                	lw	a5,64(a5)
    800006ec:	f2f42c23          	sw	a5,-200(s0)
        0x1e6f0e17,
        0xe190f1eb,
        0xb052c0ce,
        0x9d839dc6
    };
    setStats(1);        // record initial mcycle and minstret
    800006f0:	4505                	li	a0,1
    800006f2:	4fe000ef          	jal	80000bf0 <setStats>
    fir(sin_table, lowpass, y, 20, 4);
    800006f6:	f4040613          	addi	a2,s0,-192
    800006fa:	f8840593          	addi	a1,s0,-120
    800006fe:	f9840793          	addi	a5,s0,-104
    80000702:	4711                	li	a4,4
    80000704:	46d1                	li	a3,20
    80000706:	853e                	mv	a0,a5
    80000708:	e41ff0ef          	jal	80000548 <fir>
    setStats(0);        // record elapsed mcycle and minstret
    8000070c:	4501                	li	a0,0
    8000070e:	4e2000ef          	jal	80000bf0 <setStats>
    for (int i=0; i<17; i++) {
    80000712:	fe042623          	sw	zero,-20(s0)
    80000716:	a03d                	j	80000744 <main+0x100>
        printf("y[%d] = %x\n", i, y[i]);
    80000718:	fec42703          	lw	a4,-20(s0)
    8000071c:	f4040793          	addi	a5,s0,-192
    80000720:	070a                	slli	a4,a4,0x2
    80000722:	97ba                	add	a5,a5,a4
    80000724:	4398                	lw	a4,0(a5)
    80000726:	fec42783          	lw	a5,-20(s0)
    8000072a:	863a                	mv	a2,a4
    8000072c:	85be                	mv	a1,a5
    8000072e:	00001517          	auipc	a0,0x1
    80000732:	31250513          	addi	a0,a0,786 # 80001a40 <atol+0xe2>
    80000736:	5e3000ef          	jal	80001518 <printf>
    for (int i=0; i<17; i++) {
    8000073a:	fec42783          	lw	a5,-20(s0)
    8000073e:	2785                	addiw	a5,a5,1
    80000740:	fef42623          	sw	a5,-20(s0)
    80000744:	fec42783          	lw	a5,-20(s0)
    80000748:	0007871b          	sext.w	a4,a5
    8000074c:	47c1                	li	a5,16
    8000074e:	fce7d5e3          	bge	a5,a4,80000718 <main+0xd4>
    }
    return verify(16, y, expected); 
    80000752:	ef840713          	addi	a4,s0,-264
    80000756:	f4040793          	addi	a5,s0,-192
    8000075a:	863a                	mv	a2,a4
    8000075c:	85be                	mv	a1,a5
    8000075e:	4541                	li	a0,16
    80000760:	a63ff0ef          	jal	800001c2 <verify>
    80000764:	87aa                	mv	a5,a0
// check the 1 element of s matches expected. 0 means success
}
    80000766:	853e                	mv	a0,a5
    80000768:	60b2                	ld	ra,264(sp)
    8000076a:	6412                	ld	s0,256(sp)
    8000076c:	6151                	addi	sp,sp,272
    8000076e:	8082                	ret

0000000080000770 <verify>:
#include <stdint.h>

#define static_assert(cond) switch(0) { case 0: case !!(long)(cond): ; }

static int verify(int n, const volatile int* test, const int* verify)
{
    80000770:	715d                	addi	sp,sp,-80
    80000772:	e486                	sd	ra,72(sp)
    80000774:	e0a2                	sd	s0,64(sp)
    80000776:	0880                	addi	s0,sp,80
    80000778:	87aa                	mv	a5,a0
    8000077a:	fcb43023          	sd	a1,-64(s0)
    8000077e:	fac43c23          	sd	a2,-72(s0)
    80000782:	fcf42623          	sw	a5,-52(s0)
  int i;
  // Unrolled for faster verification
  for (i = 0; i < n/2*2; i+=2)
    80000786:	fe042623          	sw	zero,-20(s0)
    8000078a:	a841                	j	8000081a <verify+0xaa>
  {
    int t0 = test[i], t1 = test[i+1];
    8000078c:	fec42783          	lw	a5,-20(s0)
    80000790:	078a                	slli	a5,a5,0x2
    80000792:	fc043703          	ld	a4,-64(s0)
    80000796:	97ba                	add	a5,a5,a4
    80000798:	439c                	lw	a5,0(a5)
    8000079a:	fef42423          	sw	a5,-24(s0)
    8000079e:	fec42783          	lw	a5,-20(s0)
    800007a2:	0785                	addi	a5,a5,1
    800007a4:	078a                	slli	a5,a5,0x2
    800007a6:	fc043703          	ld	a4,-64(s0)
    800007aa:	97ba                	add	a5,a5,a4
    800007ac:	439c                	lw	a5,0(a5)
    800007ae:	fef42223          	sw	a5,-28(s0)
    int v0 = verify[i], v1 = verify[i+1];
    800007b2:	fec42783          	lw	a5,-20(s0)
    800007b6:	078a                	slli	a5,a5,0x2
    800007b8:	fb843703          	ld	a4,-72(s0)
    800007bc:	97ba                	add	a5,a5,a4
    800007be:	439c                	lw	a5,0(a5)
    800007c0:	fef42023          	sw	a5,-32(s0)
    800007c4:	fec42783          	lw	a5,-20(s0)
    800007c8:	0785                	addi	a5,a5,1
    800007ca:	078a                	slli	a5,a5,0x2
    800007cc:	fb843703          	ld	a4,-72(s0)
    800007d0:	97ba                	add	a5,a5,a4
    800007d2:	439c                	lw	a5,0(a5)
    800007d4:	fcf42e23          	sw	a5,-36(s0)
    if (t0 != v0) return i+1;
    800007d8:	fe842783          	lw	a5,-24(s0)
    800007dc:	873e                	mv	a4,a5
    800007de:	fe042783          	lw	a5,-32(s0)
    800007e2:	2701                	sext.w	a4,a4
    800007e4:	2781                	sext.w	a5,a5
    800007e6:	00f70763          	beq	a4,a5,800007f4 <verify+0x84>
    800007ea:	fec42783          	lw	a5,-20(s0)
    800007ee:	2785                	addiw	a5,a5,1
    800007f0:	2781                	sext.w	a5,a5
    800007f2:	a049                	j	80000874 <verify+0x104>
    if (t1 != v1) return i+2;
    800007f4:	fe442783          	lw	a5,-28(s0)
    800007f8:	873e                	mv	a4,a5
    800007fa:	fdc42783          	lw	a5,-36(s0)
    800007fe:	2701                	sext.w	a4,a4
    80000800:	2781                	sext.w	a5,a5
    80000802:	00f70763          	beq	a4,a5,80000810 <verify+0xa0>
    80000806:	fec42783          	lw	a5,-20(s0)
    8000080a:	2789                	addiw	a5,a5,2
    8000080c:	2781                	sext.w	a5,a5
    8000080e:	a09d                	j	80000874 <verify+0x104>
  for (i = 0; i < n/2*2; i+=2)
    80000810:	fec42783          	lw	a5,-20(s0)
    80000814:	2789                	addiw	a5,a5,2
    80000816:	fef42623          	sw	a5,-20(s0)
    8000081a:	fcc42783          	lw	a5,-52(s0)
    8000081e:	01f7d71b          	srliw	a4,a5,0x1f
    80000822:	9fb9                	addw	a5,a5,a4
    80000824:	4017d79b          	sraiw	a5,a5,0x1
    80000828:	2781                	sext.w	a5,a5
    8000082a:	0017979b          	slliw	a5,a5,0x1
    8000082e:	2781                	sext.w	a5,a5
    80000830:	fec42703          	lw	a4,-20(s0)
    80000834:	2701                	sext.w	a4,a4
    80000836:	f4f74be3          	blt	a4,a5,8000078c <verify+0x1c>
  }
  if (n % 2 != 0 && test[n-1] != verify[n-1])
    8000083a:	fcc42783          	lw	a5,-52(s0)
    8000083e:	8b85                	andi	a5,a5,1
    80000840:	2781                	sext.w	a5,a5
    80000842:	cb85                	beqz	a5,80000872 <verify+0x102>
    80000844:	fcc42783          	lw	a5,-52(s0)
    80000848:	078a                	slli	a5,a5,0x2
    8000084a:	17f1                	addi	a5,a5,-4
    8000084c:	fc043703          	ld	a4,-64(s0)
    80000850:	97ba                	add	a5,a5,a4
    80000852:	439c                	lw	a5,0(a5)
    80000854:	0007871b          	sext.w	a4,a5
    80000858:	fcc42783          	lw	a5,-52(s0)
    8000085c:	078a                	slli	a5,a5,0x2
    8000085e:	17f1                	addi	a5,a5,-4
    80000860:	fb843683          	ld	a3,-72(s0)
    80000864:	97b6                	add	a5,a5,a3
    80000866:	439c                	lw	a5,0(a5)
    80000868:	00f70563          	beq	a4,a5,80000872 <verify+0x102>
    return n;
    8000086c:	fcc42783          	lw	a5,-52(s0)
    80000870:	a011                	j	80000874 <verify+0x104>
  return 0;
    80000872:	4781                	li	a5,0
}
    80000874:	853e                	mv	a0,a5
    80000876:	60a6                	ld	ra,72(sp)
    80000878:	6406                	ld	s0,64(sp)
    8000087a:	6161                	addi	sp,sp,80
    8000087c:	8082                	ret

000000008000087e <verifyDouble>:

static int verifyDouble(int n, const volatile double* test, const double* verify)
{
    8000087e:	711d                	addi	sp,sp,-96
    80000880:	ec86                	sd	ra,88(sp)
    80000882:	e8a2                	sd	s0,80(sp)
    80000884:	1080                	addi	s0,sp,96
    80000886:	87aa                	mv	a5,a0
    80000888:	fab43823          	sd	a1,-80(s0)
    8000088c:	fac43423          	sd	a2,-88(s0)
    80000890:	faf42e23          	sw	a5,-68(s0)
  int i;
  // Unrolled for faster verification
  for (i = 0; i < n/2*2; i+=2)
    80000894:	fe042623          	sw	zero,-20(s0)
    80000898:	a04d                	j	8000093a <verifyDouble+0xbc>
  {
    double t0 = test[i], t1 = test[i+1];
    8000089a:	fec42783          	lw	a5,-20(s0)
    8000089e:	078e                	slli	a5,a5,0x3
    800008a0:	fb043703          	ld	a4,-80(s0)
    800008a4:	97ba                	add	a5,a5,a4
    800008a6:	239c                	fld	fa5,0(a5)
    800008a8:	fef43027          	fsd	fa5,-32(s0)
    800008ac:	fec42783          	lw	a5,-20(s0)
    800008b0:	0785                	addi	a5,a5,1
    800008b2:	078e                	slli	a5,a5,0x3
    800008b4:	fb043703          	ld	a4,-80(s0)
    800008b8:	97ba                	add	a5,a5,a4
    800008ba:	239c                	fld	fa5,0(a5)
    800008bc:	fcf43c27          	fsd	fa5,-40(s0)
    double v0 = verify[i], v1 = verify[i+1];
    800008c0:	fec42783          	lw	a5,-20(s0)
    800008c4:	078e                	slli	a5,a5,0x3
    800008c6:	fa843703          	ld	a4,-88(s0)
    800008ca:	97ba                	add	a5,a5,a4
    800008cc:	239c                	fld	fa5,0(a5)
    800008ce:	fcf43827          	fsd	fa5,-48(s0)
    800008d2:	fec42783          	lw	a5,-20(s0)
    800008d6:	0785                	addi	a5,a5,1
    800008d8:	078e                	slli	a5,a5,0x3
    800008da:	fa843703          	ld	a4,-88(s0)
    800008de:	97ba                	add	a5,a5,a4
    800008e0:	239c                	fld	fa5,0(a5)
    800008e2:	fcf43427          	fsd	fa5,-56(s0)
    int eq1 = t0 == v0, eq2 = t1 == v1;
    800008e6:	fe043707          	fld	fa4,-32(s0)
    800008ea:	fd043787          	fld	fa5,-48(s0)
    800008ee:	a2f727d3          	feq.d	a5,fa4,fa5
    800008f2:	0ff7f793          	zext.b	a5,a5
    800008f6:	fcf42223          	sw	a5,-60(s0)
    800008fa:	fd843707          	fld	fa4,-40(s0)
    800008fe:	fc843787          	fld	fa5,-56(s0)
    80000902:	a2f727d3          	feq.d	a5,fa4,fa5
    80000906:	0ff7f793          	zext.b	a5,a5
    8000090a:	fcf42023          	sw	a5,-64(s0)
    if (!(eq1 & eq2)) return i+1+eq1;
    8000090e:	fc442783          	lw	a5,-60(s0)
    80000912:	873e                	mv	a4,a5
    80000914:	fc042783          	lw	a5,-64(s0)
    80000918:	8ff9                	and	a5,a5,a4
    8000091a:	2781                	sext.w	a5,a5
    8000091c:	eb91                	bnez	a5,80000930 <verifyDouble+0xb2>
    8000091e:	fec42783          	lw	a5,-20(s0)
    80000922:	2785                	addiw	a5,a5,1
    80000924:	2781                	sext.w	a5,a5
    80000926:	fc442703          	lw	a4,-60(s0)
    8000092a:	9fb9                	addw	a5,a5,a4
    8000092c:	2781                	sext.w	a5,a5
    8000092e:	a095                	j	80000992 <verifyDouble+0x114>
  for (i = 0; i < n/2*2; i+=2)
    80000930:	fec42783          	lw	a5,-20(s0)
    80000934:	2789                	addiw	a5,a5,2
    80000936:	fef42623          	sw	a5,-20(s0)
    8000093a:	fbc42783          	lw	a5,-68(s0)
    8000093e:	01f7d71b          	srliw	a4,a5,0x1f
    80000942:	9fb9                	addw	a5,a5,a4
    80000944:	4017d79b          	sraiw	a5,a5,0x1
    80000948:	2781                	sext.w	a5,a5
    8000094a:	0017979b          	slliw	a5,a5,0x1
    8000094e:	2781                	sext.w	a5,a5
    80000950:	fec42703          	lw	a4,-20(s0)
    80000954:	2701                	sext.w	a4,a4
    80000956:	f4f742e3          	blt	a4,a5,8000089a <verifyDouble+0x1c>
  }
  if (n % 2 != 0 && test[n-1] != verify[n-1])
    8000095a:	fbc42783          	lw	a5,-68(s0)
    8000095e:	8b85                	andi	a5,a5,1
    80000960:	2781                	sext.w	a5,a5
    80000962:	c79d                	beqz	a5,80000990 <verifyDouble+0x112>
    80000964:	fbc42783          	lw	a5,-68(s0)
    80000968:	078e                	slli	a5,a5,0x3
    8000096a:	17e1                	addi	a5,a5,-8
    8000096c:	fb043703          	ld	a4,-80(s0)
    80000970:	97ba                	add	a5,a5,a4
    80000972:	2398                	fld	fa4,0(a5)
    80000974:	fbc42783          	lw	a5,-68(s0)
    80000978:	078e                	slli	a5,a5,0x3
    8000097a:	17e1                	addi	a5,a5,-8
    8000097c:	fa843703          	ld	a4,-88(s0)
    80000980:	97ba                	add	a5,a5,a4
    80000982:	239c                	fld	fa5,0(a5)
    80000984:	a2f727d3          	feq.d	a5,fa4,fa5
    80000988:	e781                	bnez	a5,80000990 <verifyDouble+0x112>
    return n;
    8000098a:	fbc42783          	lw	a5,-68(s0)
    8000098e:	a011                	j	80000992 <verifyDouble+0x114>
  return 0;
    80000990:	4781                	li	a5,0
}
    80000992:	853e                	mv	a0,a5
    80000994:	60e6                	ld	ra,88(sp)
    80000996:	6446                	ld	s0,80(sp)
    80000998:	6125                	addi	sp,sp,96
    8000099a:	8082                	ret

000000008000099c <barrier>:

static void __attribute__((noinline)) barrier(int ncores)
{
    8000099c:	1101                	addi	sp,sp,-32
    8000099e:	ec06                	sd	ra,24(sp)
    800009a0:	e822                	sd	s0,16(sp)
    800009a2:	1000                	addi	s0,sp,32
    800009a4:	87aa                	mv	a5,a0
    800009a6:	fef42623          	sw	a5,-20(s0)
  static volatile int sense;
  static volatile int count;
  static __thread int threadsense;

  __sync_synchronize();
    800009aa:	0330000f          	fence	rw,rw

  threadsense = !threadsense;
    800009ae:	00422783          	lw	a5,4(tp) # 4 <threadsense.3>
    800009b2:	0017b793          	seqz	a5,a5
    800009b6:	0ff7f793          	zext.b	a5,a5
    800009ba:	0007871b          	sext.w	a4,a5
    800009be:	00e22223          	sw	a4,4(tp) # 4 <threadsense.3>
  if (__sync_fetch_and_add(&count, 1) == ncores-1)
    800009c2:	82818793          	addi	a5,gp,-2008 # 80002070 <count.2>
    800009c6:	4705                	li	a4,1
    800009c8:	06e7a6af          	amoadd.w.aqrl	a3,a4,(a5)
    800009cc:	0006879b          	sext.w	a5,a3
    800009d0:	873e                	mv	a4,a5
    800009d2:	fec42783          	lw	a5,-20(s0)
    800009d6:	37fd                	addiw	a5,a5,-1
    800009d8:	2781                	sext.w	a5,a5
    800009da:	00f71c63          	bne	a4,a5,800009f2 <barrier+0x56>
  {
    count = 0;
    800009de:	82818793          	addi	a5,gp,-2008 # 80002070 <count.2>
    800009e2:	0007a023          	sw	zero,0(a5)
    sense = threadsense;
    800009e6:	00422703          	lw	a4,4(tp) # 4 <threadsense.3>
    800009ea:	82c18793          	addi	a5,gp,-2004 # 80002074 <sense.1>
    800009ee:	c398                	sw	a4,0(a5)
    800009f0:	a819                	j	80000a06 <barrier+0x6a>
  }
  else while(sense != threadsense)
    800009f2:	0001                	nop
    800009f4:	82c18793          	addi	a5,gp,-2004 # 80002074 <sense.1>
    800009f8:	439c                	lw	a5,0(a5)
    800009fa:	0007871b          	sext.w	a4,a5
    800009fe:	00422783          	lw	a5,4(tp) # 4 <threadsense.3>
    80000a02:	fef719e3          	bne	a4,a5,800009f4 <barrier+0x58>
    ;

  __sync_synchronize();
    80000a06:	0330000f          	fence	rw,rw
}
    80000a0a:	0001                	nop
    80000a0c:	60e2                	ld	ra,24(sp)
    80000a0e:	6442                	ld	s0,16(sp)
    80000a10:	6105                	addi	sp,sp,32
    80000a12:	8082                	ret

0000000080000a14 <lfsr>:

static uint64_t lfsr(uint64_t x)
{
    80000a14:	7179                	addi	sp,sp,-48
    80000a16:	f406                	sd	ra,40(sp)
    80000a18:	f022                	sd	s0,32(sp)
    80000a1a:	1800                	addi	s0,sp,48
    80000a1c:	fca43c23          	sd	a0,-40(s0)
  uint64_t bit = (x ^ (x >> 1)) & 1;
    80000a20:	fd843783          	ld	a5,-40(s0)
    80000a24:	0017d713          	srli	a4,a5,0x1
    80000a28:	fd843783          	ld	a5,-40(s0)
    80000a2c:	8fb9                	xor	a5,a5,a4
    80000a2e:	8b85                	andi	a5,a5,1
    80000a30:	fef43423          	sd	a5,-24(s0)
  return (x >> 1) | (bit << 62);
    80000a34:	fd843783          	ld	a5,-40(s0)
    80000a38:	0017d713          	srli	a4,a5,0x1
    80000a3c:	fe843783          	ld	a5,-24(s0)
    80000a40:	17fa                	slli	a5,a5,0x3e
    80000a42:	8fd9                	or	a5,a5,a4
}
    80000a44:	853e                	mv	a0,a5
    80000a46:	70a2                	ld	ra,40(sp)
    80000a48:	7402                	ld	s0,32(sp)
    80000a4a:	6145                	addi	sp,sp,48
    80000a4c:	8082                	ret

0000000080000a4e <insn_len>:

static uintptr_t insn_len(uintptr_t pc)
{
    80000a4e:	1101                	addi	sp,sp,-32
    80000a50:	ec06                	sd	ra,24(sp)
    80000a52:	e822                	sd	s0,16(sp)
    80000a54:	1000                	addi	s0,sp,32
    80000a56:	fea43423          	sd	a0,-24(s0)
  return (*(unsigned short*)pc & 3) ? 4 : 2;
    80000a5a:	fe843783          	ld	a5,-24(s0)
    80000a5e:	0007d783          	lhu	a5,0(a5)
    80000a62:	2781                	sext.w	a5,a5
    80000a64:	8b8d                	andi	a5,a5,3
    80000a66:	2781                	sext.w	a5,a5
    80000a68:	c399                	beqz	a5,80000a6e <insn_len+0x20>
    80000a6a:	4791                	li	a5,4
    80000a6c:	a011                	j	80000a70 <insn_len+0x22>
    80000a6e:	4789                	li	a5,2
}
    80000a70:	853e                	mv	a0,a5
    80000a72:	60e2                	ld	ra,24(sp)
    80000a74:	6442                	ld	s0,16(sp)
    80000a76:	6105                	addi	sp,sp,32
    80000a78:	8082                	ret

0000000080000a7a <uartInit>:
//   Use UART rather than syscall host interface for printing
//////////////////////////////

#include <stdint.h>

void uartInit(void) {
    80000a7a:	1101                	addi	sp,sp,-32
    80000a7c:	ec06                	sd	ra,24(sp)
    80000a7e:	e822                	sd	s0,16(sp)
    80000a80:	1000                	addi	s0,sp,32
  volatile uint8_t *UART_LCR = (uint8_t*)0x10000003;
    80000a82:	100007b7          	lui	a5,0x10000
    80000a86:	078d                	addi	a5,a5,3 # 10000003 <threadsense.3+0xfffffff>
    80000a88:	fef43423          	sd	a5,-24(s0)
	*UART_LCR = 0b0000011; // 8-bit characters, 1 stop bit, no parity
    80000a8c:	fe843783          	ld	a5,-24(s0)
    80000a90:	470d                	li	a4,3
    80000a92:	00e78023          	sb	a4,0(a5)
}
    80000a96:	0001                	nop
    80000a98:	60e2                	ld	ra,24(sp)
    80000a9a:	6442                	ld	s0,16(sp)
    80000a9c:	6105                	addi	sp,sp,32
    80000a9e:	8082                	ret

0000000080000aa0 <uartSend>:

void uartSend(char c) {
    80000aa0:	7179                	addi	sp,sp,-48
    80000aa2:	f406                	sd	ra,40(sp)
    80000aa4:	f022                	sd	s0,32(sp)
    80000aa6:	1800                	addi	s0,sp,48
    80000aa8:	87aa                	mv	a5,a0
    80000aaa:	fcf40fa3          	sb	a5,-33(s0)
  volatile uint8_t *UART_THR = (uint8_t*)0x10000000;
    80000aae:	100007b7          	lui	a5,0x10000
    80000ab2:	fef43423          	sd	a5,-24(s0)
  volatile uint8_t *UART_LSR = (uint8_t*)0x10000005;
    80000ab6:	100007b7          	lui	a5,0x10000
    80000aba:	0795                	addi	a5,a5,5 # 10000005 <threadsense.3+0x10000001>
    80000abc:	fef43023          	sd	a5,-32(s0)

	while (!(*UART_LSR & (1<<5))); // wait for THRE (trans hold reg empty)
    80000ac0:	0001                	nop
    80000ac2:	fe043783          	ld	a5,-32(s0)
    80000ac6:	0007c783          	lbu	a5,0(a5)
    80000aca:	0ff7f793          	zext.b	a5,a5
    80000ace:	2781                	sext.w	a5,a5
    80000ad0:	0207f793          	andi	a5,a5,32
    80000ad4:	2781                	sext.w	a5,a5
    80000ad6:	d7f5                	beqz	a5,80000ac2 <uartSend+0x22>
	*UART_THR = c;
    80000ad8:	fe843783          	ld	a5,-24(s0)
    80000adc:	fdf44703          	lbu	a4,-33(s0)
    80000ae0:	00e78023          	sb	a4,0(a5)
}
    80000ae4:	0001                	nop
    80000ae6:	70a2                	ld	ra,40(sp)
    80000ae8:	7402                	ld	s0,32(sp)
    80000aea:	6145                	addi	sp,sp,48
    80000aec:	8082                	ret

0000000080000aee <uartReceive>:

char uartReceive(void) {
    80000aee:	1101                	addi	sp,sp,-32
    80000af0:	ec06                	sd	ra,24(sp)
    80000af2:	e822                	sd	s0,16(sp)
    80000af4:	1000                	addi	s0,sp,32
  volatile uint8_t *UART_RBR = (uint8_t*)0x10000000;
    80000af6:	100007b7          	lui	a5,0x10000
    80000afa:	fef43423          	sd	a5,-24(s0)
  volatile uint8_t *UART_LSR = (uint8_t*)0x10000005;
    80000afe:	100007b7          	lui	a5,0x10000
    80000b02:	0795                	addi	a5,a5,5 # 10000005 <threadsense.3+0x10000001>
    80000b04:	fef43023          	sd	a5,-32(s0)

	while (!(*UART_LSR & (1<<0))); // wait for DR (Data Ready)
    80000b08:	0001                	nop
    80000b0a:	fe043783          	ld	a5,-32(s0)
    80000b0e:	0007c783          	lbu	a5,0(a5)
    80000b12:	0ff7f793          	zext.b	a5,a5
    80000b16:	2781                	sext.w	a5,a5
    80000b18:	8b85                	andi	a5,a5,1
    80000b1a:	2781                	sext.w	a5,a5
    80000b1c:	d7fd                	beqz	a5,80000b0a <uartReceive+0x1c>
	return *UART_RBR;
    80000b1e:	fe843783          	ld	a5,-24(s0)
    80000b22:	0007c783          	lbu	a5,0(a5)
    80000b26:	0ff7f793          	zext.b	a5,a5
}
    80000b2a:	853e                	mv	a0,a5
    80000b2c:	60e2                	ld	ra,24(sp)
    80000b2e:	6442                	ld	s0,16(sp)
    80000b30:	6105                	addi	sp,sp,32
    80000b32:	8082                	ret

0000000080000b34 <uartPutStr>:

char uartPutStr(const char *str) {
    80000b34:	1101                	addi	sp,sp,-32
    80000b36:	ec06                	sd	ra,24(sp)
    80000b38:	e822                	sd	s0,16(sp)
    80000b3a:	1000                	addi	s0,sp,32
    80000b3c:	fea43423          	sd	a0,-24(s0)
    while (*str) {
    80000b40:	a821                	j	80000b58 <uartPutStr+0x24>
        uartSend(*str++);
    80000b42:	fe843783          	ld	a5,-24(s0)
    80000b46:	00178713          	addi	a4,a5,1
    80000b4a:	fee43423          	sd	a4,-24(s0)
    80000b4e:	0007c783          	lbu	a5,0(a5)
    80000b52:	853e                	mv	a0,a5
    80000b54:	f4dff0ef          	jal	80000aa0 <uartSend>
    while (*str) {
    80000b58:	fe843783          	ld	a5,-24(s0)
    80000b5c:	0007c783          	lbu	a5,0(a5)
    80000b60:	f3ed                	bnez	a5,80000b42 <uartPutStr+0xe>
    }
}
    80000b62:	0001                	nop
    80000b64:	853e                	mv	a0,a5
    80000b66:	60e2                	ld	ra,24(sp)
    80000b68:	6442                	ld	s0,16(sp)
    80000b6a:	6105                	addi	sp,sp,32
    80000b6c:	8082                	ret

0000000080000b6e <syscall>:
/////////////////////////////
// End of code added for Wally
//////////////////////////////

static uintptr_t syscall(uintptr_t which, uint64_t arg0, uint64_t arg1, uint64_t arg2)
{
    80000b6e:	7171                	addi	sp,sp,-176
    80000b70:	f506                	sd	ra,168(sp)
    80000b72:	f122                	sd	s0,160(sp)
    80000b74:	1900                	addi	s0,sp,176
    80000b76:	f6a43c23          	sd	a0,-136(s0)
    80000b7a:	f6b43823          	sd	a1,-144(s0)
    80000b7e:	f6c43423          	sd	a2,-152(s0)
    80000b82:	f6d43023          	sd	a3,-160(s0)
    80000b86:	ff040793          	addi	a5,s0,-16
    80000b8a:	f4f43c23          	sd	a5,-168(s0)
    80000b8e:	f5843783          	ld	a5,-168(s0)
    80000b92:	f9078793          	addi	a5,a5,-112
    80000b96:	03f78793          	addi	a5,a5,63
    80000b9a:	8399                	srli	a5,a5,0x6
    80000b9c:	079a                	slli	a5,a5,0x6
  volatile uint64_t magic_mem[8] __attribute__((aligned(64)));
  magic_mem[0] = which;
    80000b9e:	f7843703          	ld	a4,-136(s0)
    80000ba2:	e398                	sd	a4,0(a5)
  magic_mem[1] = arg0;
    80000ba4:	f7043703          	ld	a4,-144(s0)
    80000ba8:	e798                	sd	a4,8(a5)
  magic_mem[2] = arg1;
    80000baa:	f6843703          	ld	a4,-152(s0)
    80000bae:	eb98                	sd	a4,16(a5)
  magic_mem[3] = arg2;
    80000bb0:	f6043703          	ld	a4,-160(s0)
    80000bb4:	ef98                	sd	a4,24(a5)
  __sync_synchronize();
    80000bb6:	0330000f          	fence	rw,rw

  tohost = (uintptr_t)magic_mem;
    80000bba:	86be                	mv	a3,a5
    80000bbc:	00001717          	auipc	a4,0x1
    80000bc0:	44470713          	addi	a4,a4,1092 # 80002000 <tohost>
    80000bc4:	e314                	sd	a3,0(a4)
  while (fromhost == 0)
    80000bc6:	0001                	nop
    80000bc8:	00001717          	auipc	a4,0x1
    80000bcc:	47870713          	addi	a4,a4,1144 # 80002040 <fromhost>
    80000bd0:	6318                	ld	a4,0(a4)
    80000bd2:	db7d                	beqz	a4,80000bc8 <syscall+0x5a>
    ;
  fromhost = 0;
    80000bd4:	00001717          	auipc	a4,0x1
    80000bd8:	46c70713          	addi	a4,a4,1132 # 80002040 <fromhost>
    80000bdc:	00073023          	sd	zero,0(a4)

  __sync_synchronize();
    80000be0:	0330000f          	fence	rw,rw
  return magic_mem[0];
    80000be4:	639c                	ld	a5,0(a5)
}
    80000be6:	853e                	mv	a0,a5
    80000be8:	70aa                	ld	ra,168(sp)
    80000bea:	740a                	ld	s0,160(sp)
    80000bec:	614d                	addi	sp,sp,176
    80000bee:	8082                	ret

0000000080000bf0 <setStats>:
#define NUM_COUNTERS 2
static uintptr_t counters[NUM_COUNTERS];
static char* counter_names[NUM_COUNTERS];

void setStats(int enable)
{
    80000bf0:	715d                	addi	sp,sp,-80
    80000bf2:	e486                	sd	ra,72(sp)
    80000bf4:	e0a2                	sd	s0,64(sp)
    80000bf6:	0880                	addi	s0,sp,80
    80000bf8:	87aa                	mv	a5,a0
    80000bfa:	faf42e23          	sw	a5,-68(s0)
  int i = 0;
    80000bfe:	fc042e23          	sw	zero,-36(s0)
    uintptr_t csr = read_csr(name); \
    if (!enable) { csr -= counters[i]; counter_names[i] = #name; } \
    counters[i++] = csr; \
  } while (0)

  READ_CTR(mcycle);
    80000c02:	fdc42783          	lw	a5,-36(s0)
    80000c06:	0007871b          	sext.w	a4,a5
    80000c0a:	4785                	li	a5,1
    80000c0c:	fee7cbe3          	blt	a5,a4,80000c02 <setStats+0x12>
    80000c10:	b00027f3          	csrr	a5,mcycle
    80000c14:	fcf43823          	sd	a5,-48(s0)
    80000c18:	fd043783          	ld	a5,-48(s0)
    80000c1c:	fef43423          	sd	a5,-24(s0)
    80000c20:	fbc42783          	lw	a5,-68(s0)
    80000c24:	2781                	sext.w	a5,a5
    80000c26:	eb9d                	bnez	a5,80000c5c <setStats+0x6c>
    80000c28:	00001717          	auipc	a4,0x1
    80000c2c:	42870713          	addi	a4,a4,1064 # 80002050 <counters>
    80000c30:	fdc42783          	lw	a5,-36(s0)
    80000c34:	078e                	slli	a5,a5,0x3
    80000c36:	97ba                	add	a5,a5,a4
    80000c38:	639c                	ld	a5,0(a5)
    80000c3a:	fe843703          	ld	a4,-24(s0)
    80000c3e:	40f707b3          	sub	a5,a4,a5
    80000c42:	fef43423          	sd	a5,-24(s0)
    80000c46:	81818713          	addi	a4,gp,-2024 # 80002060 <counter_names>
    80000c4a:	fdc42783          	lw	a5,-36(s0)
    80000c4e:	078e                	slli	a5,a5,0x3
    80000c50:	97ba                	add	a5,a5,a4
    80000c52:	00001717          	auipc	a4,0x1
    80000c56:	ea670713          	addi	a4,a4,-346 # 80001af8 <atol+0x19a>
    80000c5a:	e398                	sd	a4,0(a5)
    80000c5c:	fdc42783          	lw	a5,-36(s0)
    80000c60:	0017871b          	addiw	a4,a5,1
    80000c64:	fce42e23          	sw	a4,-36(s0)
    80000c68:	00001717          	auipc	a4,0x1
    80000c6c:	3e870713          	addi	a4,a4,1000 # 80002050 <counters>
    80000c70:	078e                	slli	a5,a5,0x3
    80000c72:	97ba                	add	a5,a5,a4
    80000c74:	fe843703          	ld	a4,-24(s0)
    80000c78:	e398                	sd	a4,0(a5)
  READ_CTR(minstret);
    80000c7a:	fdc42783          	lw	a5,-36(s0)
    80000c7e:	0007871b          	sext.w	a4,a5
    80000c82:	4785                	li	a5,1
    80000c84:	fee7cbe3          	blt	a5,a4,80000c7a <setStats+0x8a>
    80000c88:	b02027f3          	csrr	a5,minstret
    80000c8c:	fcf43423          	sd	a5,-56(s0)
    80000c90:	fc843783          	ld	a5,-56(s0)
    80000c94:	fef43023          	sd	a5,-32(s0)
    80000c98:	fbc42783          	lw	a5,-68(s0)
    80000c9c:	2781                	sext.w	a5,a5
    80000c9e:	eb9d                	bnez	a5,80000cd4 <setStats+0xe4>
    80000ca0:	00001717          	auipc	a4,0x1
    80000ca4:	3b070713          	addi	a4,a4,944 # 80002050 <counters>
    80000ca8:	fdc42783          	lw	a5,-36(s0)
    80000cac:	078e                	slli	a5,a5,0x3
    80000cae:	97ba                	add	a5,a5,a4
    80000cb0:	639c                	ld	a5,0(a5)
    80000cb2:	fe043703          	ld	a4,-32(s0)
    80000cb6:	40f707b3          	sub	a5,a4,a5
    80000cba:	fef43023          	sd	a5,-32(s0)
    80000cbe:	81818713          	addi	a4,gp,-2024 # 80002060 <counter_names>
    80000cc2:	fdc42783          	lw	a5,-36(s0)
    80000cc6:	078e                	slli	a5,a5,0x3
    80000cc8:	97ba                	add	a5,a5,a4
    80000cca:	00001717          	auipc	a4,0x1
    80000cce:	e3670713          	addi	a4,a4,-458 # 80001b00 <atol+0x1a2>
    80000cd2:	e398                	sd	a4,0(a5)
    80000cd4:	fdc42783          	lw	a5,-36(s0)
    80000cd8:	0017871b          	addiw	a4,a5,1
    80000cdc:	fce42e23          	sw	a4,-36(s0)
    80000ce0:	00001717          	auipc	a4,0x1
    80000ce4:	37070713          	addi	a4,a4,880 # 80002050 <counters>
    80000ce8:	078e                	slli	a5,a5,0x3
    80000cea:	97ba                	add	a5,a5,a4
    80000cec:	fe043703          	ld	a4,-32(s0)
    80000cf0:	e398                	sd	a4,0(a5)

#undef READ_CTR
}
    80000cf2:	0001                	nop
    80000cf4:	60a6                	ld	ra,72(sp)
    80000cf6:	6406                	ld	s0,64(sp)
    80000cf8:	6161                	addi	sp,sp,80
    80000cfa:	8082                	ret

0000000080000cfc <tohost_exit>:

void __attribute__((noreturn)) tohost_exit(uintptr_t code)
{
    80000cfc:	1101                	addi	sp,sp,-32
    80000cfe:	ec06                	sd	ra,24(sp)
    80000d00:	e822                	sd	s0,16(sp)
    80000d02:	1000                	addi	s0,sp,32
    80000d04:	fea43423          	sd	a0,-24(s0)
  tohost = (code << 1) | 1;
    80000d08:	fe843783          	ld	a5,-24(s0)
    80000d0c:	0786                	slli	a5,a5,0x1
    80000d0e:	0017e713          	ori	a4,a5,1
    80000d12:	00001797          	auipc	a5,0x1
    80000d16:	2ee78793          	addi	a5,a5,750 # 80002000 <tohost>
    80000d1a:	e398                	sd	a4,0(a5)
  while (1);
    80000d1c:	a001                	j	80000d1c <tohost_exit+0x20>

0000000080000d1e <handle_trap>:
}

uintptr_t __attribute__((weak)) handle_trap(uintptr_t cause, uintptr_t epc, uintptr_t regs[32])
{
    80000d1e:	7179                	addi	sp,sp,-48
    80000d20:	f406                	sd	ra,40(sp)
    80000d22:	f022                	sd	s0,32(sp)
    80000d24:	1800                	addi	s0,sp,48
    80000d26:	fea43423          	sd	a0,-24(s0)
    80000d2a:	feb43023          	sd	a1,-32(s0)
    80000d2e:	fcc43c23          	sd	a2,-40(s0)
  tohost_exit(1337);
    80000d32:	53900513          	li	a0,1337
    80000d36:	fc7ff0ef          	jal	80000cfc <tohost_exit>

0000000080000d3a <exit>:
}

void exit(int code)
{
    80000d3a:	1101                	addi	sp,sp,-32
    80000d3c:	ec06                	sd	ra,24(sp)
    80000d3e:	e822                	sd	s0,16(sp)
    80000d40:	1000                	addi	s0,sp,32
    80000d42:	87aa                	mv	a5,a0
    80000d44:	fef42623          	sw	a5,-20(s0)
  tohost_exit(code);
    80000d48:	fec42783          	lw	a5,-20(s0)
    80000d4c:	853e                	mv	a0,a5
    80000d4e:	fafff0ef          	jal	80000cfc <tohost_exit>

0000000080000d52 <abort>:
}

void abort()
{
    80000d52:	1141                	addi	sp,sp,-16
    80000d54:	e406                	sd	ra,8(sp)
    80000d56:	e022                	sd	s0,0(sp)
    80000d58:	0800                	addi	s0,sp,16
  exit(128 + SIGABRT);
    80000d5a:	08600513          	li	a0,134
    80000d5e:	fddff0ef          	jal	80000d3a <exit>

0000000080000d62 <printstr>:
}

void printstr(const char* s)
{
    80000d62:	1101                	addi	sp,sp,-32
    80000d64:	ec06                	sd	ra,24(sp)
    80000d66:	e822                	sd	s0,16(sp)
    80000d68:	1000                	addi	s0,sp,32
    80000d6a:	fea43423          	sd	a0,-24(s0)
  // david_harris@hmc.edu 11/30/24 switch to printing via UART rather than syscall
  // This works on both Spike and Wally simulations
  //syscall(SYS_write, 1, (uintptr_t)s, strlen(s));
  uartPutStr(s);
    80000d6e:	fe843503          	ld	a0,-24(s0)
    80000d72:	dc3ff0ef          	jal	80000b34 <uartPutStr>
}
    80000d76:	0001                	nop
    80000d78:	60e2                	ld	ra,24(sp)
    80000d7a:	6442                	ld	s0,16(sp)
    80000d7c:	6105                	addi	sp,sp,32
    80000d7e:	8082                	ret

0000000080000d80 <puts>:

// Added 30 November 2024 David_Harris@hmc.edu
// The compiler encountering printf with a pure string argument tries to invoke puts
// rather than the usual printf, so puts must be defined.
int puts(const char* s)
{
    80000d80:	1101                	addi	sp,sp,-32
    80000d82:	ec06                	sd	ra,24(sp)
    80000d84:	e822                	sd	s0,16(sp)
    80000d86:	1000                	addi	s0,sp,32
    80000d88:	fea43423          	sd	a0,-24(s0)
  printstr(s);
    80000d8c:	fe843503          	ld	a0,-24(s0)
    80000d90:	fd3ff0ef          	jal	80000d62 <printstr>
  return 0;
    80000d94:	4781                	li	a5,0
}
    80000d96:	853e                	mv	a0,a5
    80000d98:	60e2                	ld	ra,24(sp)
    80000d9a:	6442                	ld	s0,16(sp)
    80000d9c:	6105                	addi	sp,sp,32
    80000d9e:	8082                	ret

0000000080000da0 <thread_entry>:

void __attribute__((weak)) thread_entry(int cid, int nc)
{
    80000da0:	1101                	addi	sp,sp,-32
    80000da2:	ec06                	sd	ra,24(sp)
    80000da4:	e822                	sd	s0,16(sp)
    80000da6:	1000                	addi	s0,sp,32
    80000da8:	87aa                	mv	a5,a0
    80000daa:	872e                	mv	a4,a1
    80000dac:	fef42623          	sw	a5,-20(s0)
    80000db0:	87ba                	mv	a5,a4
    80000db2:	fef42423          	sw	a5,-24(s0)
  // multi-threaded programs override this function.
  // for the case of single-threaded programs, only let core 0 proceed.
  while (cid != 0);
    80000db6:	0001                	nop
    80000db8:	fec42783          	lw	a5,-20(s0)
    80000dbc:	2781                	sext.w	a5,a5
    80000dbe:	ffed                	bnez	a5,80000db8 <thread_entry+0x18>
}
    80000dc0:	0001                	nop
    80000dc2:	0001                	nop
    80000dc4:	60e2                	ld	ra,24(sp)
    80000dc6:	6442                	ld	s0,16(sp)
    80000dc8:	6105                	addi	sp,sp,32
    80000dca:	8082                	ret

int __attribute__((weak)) main(int argc, char** argv)
{
    80000dcc:	1101                	addi	sp,sp,-32
    80000dce:	ec06                	sd	ra,24(sp)
    80000dd0:	e822                	sd	s0,16(sp)
    80000dd2:	1000                	addi	s0,sp,32
    80000dd4:	87aa                	mv	a5,a0
    80000dd6:	feb43023          	sd	a1,-32(s0)
    80000dda:	fef42623          	sw	a5,-20(s0)
  // single-threaded programs override this function.
  printstr("Implement main(), foo!\n");
    80000dde:	00001517          	auipc	a0,0x1
    80000de2:	d3250513          	addi	a0,a0,-718 # 80001b10 <atol+0x1b2>
    80000de6:	f7dff0ef          	jal	80000d62 <printstr>
  return -1;
    80000dea:	57fd                	li	a5,-1
}
    80000dec:	853e                	mv	a0,a5
    80000dee:	60e2                	ld	ra,24(sp)
    80000df0:	6442                	ld	s0,16(sp)
    80000df2:	6105                	addi	sp,sp,32
    80000df4:	8082                	ret

0000000080000df6 <init_tls>:

static void init_tls()
{
    80000df6:	1101                	addi	sp,sp,-32
    80000df8:	ec06                	sd	ra,24(sp)
    80000dfa:	e822                	sd	s0,16(sp)
    80000dfc:	1000                	addi	s0,sp,32
  register void* thread_pointer asm("tp");
  extern char _tdata_begin, _tdata_end, _tbss_end;
  size_t tdata_size = &_tdata_end - &_tdata_begin;
    80000dfe:	83018713          	addi	a4,gp,-2000 # 80002078 <_end>
    80000e02:	83018793          	addi	a5,gp,-2000 # 80002078 <_end>
    80000e06:	40f707b3          	sub	a5,a4,a5
    80000e0a:	fef43423          	sd	a5,-24(s0)
  memcpy(thread_pointer, &_tdata_begin, tdata_size);
    80000e0e:	8792                	mv	a5,tp
    80000e10:	fe843603          	ld	a2,-24(s0)
    80000e14:	83018593          	addi	a1,gp,-2000 # 80002078 <_end>
    80000e18:	853e                	mv	a0,a5
    80000e1a:	061000ef          	jal	8000167a <memcpy>
  size_t tbss_size = &_tbss_end - &_tdata_end;
    80000e1e:	83818713          	addi	a4,gp,-1992 # 80002080 <_tbss_end>
    80000e22:	83018793          	addi	a5,gp,-2000 # 80002078 <_end>
    80000e26:	40f707b3          	sub	a5,a4,a5
    80000e2a:	fef43023          	sd	a5,-32(s0)
  memset(thread_pointer + tdata_size, 0, tbss_size);
    80000e2e:	8712                	mv	a4,tp
    80000e30:	fe843783          	ld	a5,-24(s0)
    80000e34:	97ba                	add	a5,a5,a4
    80000e36:	fe043603          	ld	a2,-32(s0)
    80000e3a:	4581                	li	a1,0
    80000e3c:	853e                	mv	a0,a5
    80000e3e:	0f9000ef          	jal	80001736 <memset>
}
    80000e42:	0001                	nop
    80000e44:	60e2                	ld	ra,24(sp)
    80000e46:	6442                	ld	s0,16(sp)
    80000e48:	6105                	addi	sp,sp,32
    80000e4a:	8082                	ret

0000000080000e4c <_init>:

void _init(int cid, int nc)
{
    80000e4c:	7171                	addi	sp,sp,-176
    80000e4e:	f506                	sd	ra,168(sp)
    80000e50:	f122                	sd	s0,160(sp)
    80000e52:	ed26                	sd	s1,152(sp)
    80000e54:	1900                	addi	s0,sp,176
    80000e56:	87aa                	mv	a5,a0
    80000e58:	872e                	mv	a4,a1
    80000e5a:	f4f42e23          	sw	a5,-164(s0)
    80000e5e:	87ba                	mv	a5,a4
    80000e60:	f4f42c23          	sw	a5,-168(s0)
    80000e64:	fe040793          	addi	a5,s0,-32
    80000e68:	f4f43823          	sd	a5,-176(s0)
    80000e6c:	f5043783          	ld	a5,-176(s0)
    80000e70:	f8078793          	addi	a5,a5,-128
    80000e74:	03f78793          	addi	a5,a5,63
    80000e78:	8399                	srli	a5,a5,0x6
    80000e7a:	00679493          	slli	s1,a5,0x6
  init_tls();
    80000e7e:	f79ff0ef          	jal	80000df6 <init_tls>
  thread_entry(cid, nc);
    80000e82:	f5842703          	lw	a4,-168(s0)
    80000e86:	f5c42783          	lw	a5,-164(s0)
    80000e8a:	85ba                	mv	a1,a4
    80000e8c:	853e                	mv	a0,a5
    80000e8e:	f13ff0ef          	jal	80000da0 <thread_entry>
  uartInit(); // added 11/30/2024 David_Harris@hmc.edu for printing via UART
    80000e92:	be9ff0ef          	jal	80000a7a <uartInit>

  // only single-threaded programs should ever get here.
  int ret = main(0, 0);
    80000e96:	4581                	li	a1,0
    80000e98:	4501                	li	a0,0
    80000e9a:	faaff0ef          	jal	80000644 <main>
    80000e9e:	87aa                	mv	a5,a0
    80000ea0:	fcf42823          	sw	a5,-48(s0)

  char buf[NUM_COUNTERS * 32] __attribute__((aligned(64)));
  char* pbuf = buf;
    80000ea4:	fc943c23          	sd	s1,-40(s0)
  for (int i = 0; i < NUM_COUNTERS; i++)
    80000ea8:	fc042a23          	sw	zero,-44(s0)
    80000eac:	a085                	j	80000f0c <_init+0xc0>
    if (counters[i])
    80000eae:	00001717          	auipc	a4,0x1
    80000eb2:	1a270713          	addi	a4,a4,418 # 80002050 <counters>
    80000eb6:	fd442783          	lw	a5,-44(s0)
    80000eba:	078e                	slli	a5,a5,0x3
    80000ebc:	97ba                	add	a5,a5,a4
    80000ebe:	639c                	ld	a5,0(a5)
    80000ec0:	c3a9                	beqz	a5,80000f02 <_init+0xb6>
      pbuf += sprintf(pbuf, "%s = %d\n", counter_names[i], counters[i]);
    80000ec2:	81818713          	addi	a4,gp,-2024 # 80002060 <counter_names>
    80000ec6:	fd442783          	lw	a5,-44(s0)
    80000eca:	078e                	slli	a5,a5,0x3
    80000ecc:	97ba                	add	a5,a5,a4
    80000ece:	6390                	ld	a2,0(a5)
    80000ed0:	00001717          	auipc	a4,0x1
    80000ed4:	18070713          	addi	a4,a4,384 # 80002050 <counters>
    80000ed8:	fd442783          	lw	a5,-44(s0)
    80000edc:	078e                	slli	a5,a5,0x3
    80000ede:	97ba                	add	a5,a5,a4
    80000ee0:	639c                	ld	a5,0(a5)
    80000ee2:	86be                	mv	a3,a5
    80000ee4:	00001597          	auipc	a1,0x1
    80000ee8:	c4458593          	addi	a1,a1,-956 # 80001b28 <atol+0x1ca>
    80000eec:	fd843503          	ld	a0,-40(s0)
    80000ef0:	6c8000ef          	jal	800015b8 <sprintf>
    80000ef4:	87aa                	mv	a5,a0
    80000ef6:	873e                	mv	a4,a5
    80000ef8:	fd843783          	ld	a5,-40(s0)
    80000efc:	97ba                	add	a5,a5,a4
    80000efe:	fcf43c23          	sd	a5,-40(s0)
  for (int i = 0; i < NUM_COUNTERS; i++)
    80000f02:	fd442783          	lw	a5,-44(s0)
    80000f06:	2785                	addiw	a5,a5,1
    80000f08:	fcf42a23          	sw	a5,-44(s0)
    80000f0c:	fd442783          	lw	a5,-44(s0)
    80000f10:	0007871b          	sext.w	a4,a5
    80000f14:	4785                	li	a5,1
    80000f16:	f8e7dce3          	bge	a5,a4,80000eae <_init+0x62>
  if (pbuf != buf)
    80000f1a:	fd843783          	ld	a5,-40(s0)
    80000f1e:	00f48563          	beq	s1,a5,80000f28 <_init+0xdc>
    printstr(buf);
    80000f22:	8526                	mv	a0,s1
    80000f24:	e3fff0ef          	jal	80000d62 <printstr>

  exit(ret);
    80000f28:	fd042783          	lw	a5,-48(s0)
    80000f2c:	853e                	mv	a0,a5
    80000f2e:	e0dff0ef          	jal	80000d3a <exit>

0000000080000f32 <putchar>:
}

#undef putchar
int putchar(int ch)
{
    80000f32:	1101                	addi	sp,sp,-32
    80000f34:	ec06                	sd	ra,24(sp)
    80000f36:	e822                	sd	s0,16(sp)
    80000f38:	1000                	addi	s0,sp,32
    80000f3a:	87aa                	mv	a5,a0
    80000f3c:	fef42623          	sw	a5,-20(s0)
  // David_Harris@hmc.edu 11/30/2024
  // Replaced syscall with uartSend
  uartSend(ch);
    80000f40:	fec42783          	lw	a5,-20(s0)
    80000f44:	0ff7f793          	zext.b	a5,a5
    80000f48:	853e                	mv	a0,a5
    80000f4a:	b57ff0ef          	jal	80000aa0 <uartSend>
  {
    syscall(SYS_write, 1, (uintptr_t)buf, buflen);
    buflen = 0;
  } */

  return 0;
    80000f4e:	4781                	li	a5,0
}
    80000f50:	853e                	mv	a0,a5
    80000f52:	60e2                	ld	ra,24(sp)
    80000f54:	6442                	ld	s0,16(sp)
    80000f56:	6105                	addi	sp,sp,32
    80000f58:	8082                	ret

0000000080000f5a <printhex>:

void printhex(uint64_t x)
{
    80000f5a:	7139                	addi	sp,sp,-64
    80000f5c:	fc06                	sd	ra,56(sp)
    80000f5e:	f822                	sd	s0,48(sp)
    80000f60:	0080                	addi	s0,sp,64
    80000f62:	fca43423          	sd	a0,-56(s0)
  char str[17];
  int i;
  for (i = 0; i < 16; i++)
    80000f66:	fe042623          	sw	zero,-20(s0)
    80000f6a:	a899                	j	80000fc0 <printhex+0x66>
  {
    str[15-i] = (x & 0xF) + ((x & 0xF) < 10 ? '0' : 'a'-10);
    80000f6c:	fc843783          	ld	a5,-56(s0)
    80000f70:	0ff7f793          	zext.b	a5,a5
    80000f74:	8bbd                	andi	a5,a5,15
    80000f76:	0ff7f713          	zext.b	a4,a5
    80000f7a:	fc843783          	ld	a5,-56(s0)
    80000f7e:	00f7f693          	andi	a3,a5,15
    80000f82:	47a5                	li	a5,9
    80000f84:	00d7e563          	bltu	a5,a3,80000f8e <printhex+0x34>
    80000f88:	03000793          	li	a5,48
    80000f8c:	a019                	j	80000f92 <printhex+0x38>
    80000f8e:	05700793          	li	a5,87
    80000f92:	46bd                	li	a3,15
    80000f94:	fec42603          	lw	a2,-20(s0)
    80000f98:	9e91                	subw	a3,a3,a2
    80000f9a:	2681                	sext.w	a3,a3
    80000f9c:	9fb9                	addw	a5,a5,a4
    80000f9e:	0ff7f713          	zext.b	a4,a5
    80000fa2:	ff068793          	addi	a5,a3,-16
    80000fa6:	97a2                	add	a5,a5,s0
    80000fa8:	fee78423          	sb	a4,-24(a5)
    x >>= 4;
    80000fac:	fc843783          	ld	a5,-56(s0)
    80000fb0:	8391                	srli	a5,a5,0x4
    80000fb2:	fcf43423          	sd	a5,-56(s0)
  for (i = 0; i < 16; i++)
    80000fb6:	fec42783          	lw	a5,-20(s0)
    80000fba:	2785                	addiw	a5,a5,1
    80000fbc:	fef42623          	sw	a5,-20(s0)
    80000fc0:	fec42783          	lw	a5,-20(s0)
    80000fc4:	0007871b          	sext.w	a4,a5
    80000fc8:	47bd                	li	a5,15
    80000fca:	fae7d1e3          	bge	a5,a4,80000f6c <printhex+0x12>
  }
  str[16] = 0;
    80000fce:	fe040423          	sb	zero,-24(s0)

  printstr(str);
    80000fd2:	fd840793          	addi	a5,s0,-40
    80000fd6:	853e                	mv	a0,a5
    80000fd8:	d8bff0ef          	jal	80000d62 <printstr>
}
    80000fdc:	0001                	nop
    80000fde:	70e2                	ld	ra,56(sp)
    80000fe0:	7442                	ld	s0,48(sp)
    80000fe2:	6121                	addi	sp,sp,64
    80000fe4:	8082                	ret

0000000080000fe6 <printnum>:

static inline void printnum(void (*putch)(int, void**), void **putdat,
                    unsigned long long num, unsigned base, int width, int padc)
{
    80000fe6:	714d                	addi	sp,sp,-336
    80000fe8:	e686                	sd	ra,328(sp)
    80000fea:	e2a2                	sd	s0,320(sp)
    80000fec:	0a80                	addi	s0,sp,336
    80000fee:	eca43c23          	sd	a0,-296(s0)
    80000ff2:	ecb43823          	sd	a1,-304(s0)
    80000ff6:	ecc43423          	sd	a2,-312(s0)
    80000ffa:	8636                	mv	a2,a3
    80000ffc:	86ba                	mv	a3,a4
    80000ffe:	873e                	mv	a4,a5
    80001000:	87b2                	mv	a5,a2
    80001002:	ecf42223          	sw	a5,-316(s0)
    80001006:	87b6                	mv	a5,a3
    80001008:	ecf42023          	sw	a5,-320(s0)
    8000100c:	87ba                	mv	a5,a4
    8000100e:	eaf42e23          	sw	a5,-324(s0)
  unsigned digs[sizeof(num)*CHAR_BIT];
  int pos = 0;
    80001012:	fe042623          	sw	zero,-20(s0)

  while (1)
  {
    digs[pos++] = num % base;
    80001016:	ec446783          	lwu	a5,-316(s0)
    8000101a:	ec843703          	ld	a4,-312(s0)
    8000101e:	02f77733          	remu	a4,a4,a5
    80001022:	fec42783          	lw	a5,-20(s0)
    80001026:	0017869b          	addiw	a3,a5,1
    8000102a:	fed42623          	sw	a3,-20(s0)
    8000102e:	2701                	sext.w	a4,a4
    80001030:	ee840693          	addi	a3,s0,-280
    80001034:	078a                	slli	a5,a5,0x2
    80001036:	97b6                	add	a5,a5,a3
    80001038:	c398                	sw	a4,0(a5)
    if (num < base)
    8000103a:	ec446783          	lwu	a5,-316(s0)
    8000103e:	ec843703          	ld	a4,-312(s0)
    80001042:	00f76b63          	bltu	a4,a5,80001058 <printnum+0x72>
      break;
    num /= base;
    80001046:	ec446783          	lwu	a5,-316(s0)
    8000104a:	ec843703          	ld	a4,-312(s0)
    8000104e:	02f757b3          	divu	a5,a4,a5
    80001052:	ecf43423          	sd	a5,-312(s0)
    digs[pos++] = num % base;
    80001056:	b7c1                	j	80001016 <printnum+0x30>
      break;
    80001058:	0001                	nop
  }

  while (width-- > pos)
    8000105a:	a809                	j	8000106c <printnum+0x86>
    putch(padc, putdat);
    8000105c:	ebc42703          	lw	a4,-324(s0)
    80001060:	ed843783          	ld	a5,-296(s0)
    80001064:	ed043583          	ld	a1,-304(s0)
    80001068:	853a                	mv	a0,a4
    8000106a:	9782                	jalr	a5
  while (width-- > pos)
    8000106c:	ec042783          	lw	a5,-320(s0)
    80001070:	fff7871b          	addiw	a4,a5,-1
    80001074:	ece42023          	sw	a4,-320(s0)
    80001078:	fec42703          	lw	a4,-20(s0)
    8000107c:	2701                	sext.w	a4,a4
    8000107e:	fcf74fe3          	blt	a4,a5,8000105c <printnum+0x76>

  while (pos-- > 0)
    80001082:	a081                	j	800010c2 <printnum+0xdc>
    putch(digs[pos] + (digs[pos] >= 10 ? 'a' - 10 : '0'), putdat);
    80001084:	fec42703          	lw	a4,-20(s0)
    80001088:	ee840793          	addi	a5,s0,-280
    8000108c:	070a                	slli	a4,a4,0x2
    8000108e:	97ba                	add	a5,a5,a4
    80001090:	4398                	lw	a4,0(a5)
    80001092:	fec42683          	lw	a3,-20(s0)
    80001096:	ee840793          	addi	a5,s0,-280
    8000109a:	068a                	slli	a3,a3,0x2
    8000109c:	97b6                	add	a5,a5,a3
    8000109e:	4394                	lw	a3,0(a5)
    800010a0:	47a5                	li	a5,9
    800010a2:	00d7f563          	bgeu	a5,a3,800010ac <printnum+0xc6>
    800010a6:	05700793          	li	a5,87
    800010aa:	a019                	j	800010b0 <printnum+0xca>
    800010ac:	03000793          	li	a5,48
    800010b0:	9fb9                	addw	a5,a5,a4
    800010b2:	2781                	sext.w	a5,a5
    800010b4:	873e                	mv	a4,a5
    800010b6:	ed843783          	ld	a5,-296(s0)
    800010ba:	ed043583          	ld	a1,-304(s0)
    800010be:	853a                	mv	a0,a4
    800010c0:	9782                	jalr	a5
  while (pos-- > 0)
    800010c2:	fec42783          	lw	a5,-20(s0)
    800010c6:	fff7871b          	addiw	a4,a5,-1
    800010ca:	fee42623          	sw	a4,-20(s0)
    800010ce:	faf04be3          	bgtz	a5,80001084 <printnum+0x9e>
}
    800010d2:	0001                	nop
    800010d4:	0001                	nop
    800010d6:	60b6                	ld	ra,328(sp)
    800010d8:	6416                	ld	s0,320(sp)
    800010da:	6171                	addi	sp,sp,336
    800010dc:	8082                	ret

00000000800010de <getuint>:

static unsigned long long getuint(va_list *ap, int lflag)
{
    800010de:	1101                	addi	sp,sp,-32
    800010e0:	ec06                	sd	ra,24(sp)
    800010e2:	e822                	sd	s0,16(sp)
    800010e4:	1000                	addi	s0,sp,32
    800010e6:	fea43423          	sd	a0,-24(s0)
    800010ea:	87ae                	mv	a5,a1
    800010ec:	fef42223          	sw	a5,-28(s0)
  if (lflag >= 2)
    800010f0:	fe442783          	lw	a5,-28(s0)
    800010f4:	0007871b          	sext.w	a4,a5
    800010f8:	4785                	li	a5,1
    800010fa:	00e7dc63          	bge	a5,a4,80001112 <getuint+0x34>
    return va_arg(*ap, unsigned long long);
    800010fe:	fe843783          	ld	a5,-24(s0)
    80001102:	639c                	ld	a5,0(a5)
    80001104:	00878693          	addi	a3,a5,8
    80001108:	fe843703          	ld	a4,-24(s0)
    8000110c:	e314                	sd	a3,0(a4)
    8000110e:	639c                	ld	a5,0(a5)
    80001110:	a815                	j	80001144 <getuint+0x66>
  else if (lflag)
    80001112:	fe442783          	lw	a5,-28(s0)
    80001116:	2781                	sext.w	a5,a5
    80001118:	cb99                	beqz	a5,8000112e <getuint+0x50>
    return va_arg(*ap, unsigned long);
    8000111a:	fe843783          	ld	a5,-24(s0)
    8000111e:	639c                	ld	a5,0(a5)
    80001120:	00878693          	addi	a3,a5,8
    80001124:	fe843703          	ld	a4,-24(s0)
    80001128:	e314                	sd	a3,0(a4)
    8000112a:	639c                	ld	a5,0(a5)
    8000112c:	a821                	j	80001144 <getuint+0x66>
  else
    return va_arg(*ap, unsigned int);
    8000112e:	fe843783          	ld	a5,-24(s0)
    80001132:	639c                	ld	a5,0(a5)
    80001134:	00878693          	addi	a3,a5,8
    80001138:	fe843703          	ld	a4,-24(s0)
    8000113c:	e314                	sd	a3,0(a4)
    8000113e:	439c                	lw	a5,0(a5)
    80001140:	1782                	slli	a5,a5,0x20
    80001142:	9381                	srli	a5,a5,0x20
}
    80001144:	853e                	mv	a0,a5
    80001146:	60e2                	ld	ra,24(sp)
    80001148:	6442                	ld	s0,16(sp)
    8000114a:	6105                	addi	sp,sp,32
    8000114c:	8082                	ret

000000008000114e <getint>:

static long long getint(va_list *ap, int lflag)
{
    8000114e:	1101                	addi	sp,sp,-32
    80001150:	ec06                	sd	ra,24(sp)
    80001152:	e822                	sd	s0,16(sp)
    80001154:	1000                	addi	s0,sp,32
    80001156:	fea43423          	sd	a0,-24(s0)
    8000115a:	87ae                	mv	a5,a1
    8000115c:	fef42223          	sw	a5,-28(s0)
  if (lflag >= 2)
    80001160:	fe442783          	lw	a5,-28(s0)
    80001164:	0007871b          	sext.w	a4,a5
    80001168:	4785                	li	a5,1
    8000116a:	00e7dc63          	bge	a5,a4,80001182 <getint+0x34>
    return va_arg(*ap, long long);
    8000116e:	fe843783          	ld	a5,-24(s0)
    80001172:	639c                	ld	a5,0(a5)
    80001174:	00878693          	addi	a3,a5,8
    80001178:	fe843703          	ld	a4,-24(s0)
    8000117c:	e314                	sd	a3,0(a4)
    8000117e:	639c                	ld	a5,0(a5)
    80001180:	a805                	j	800011b0 <getint+0x62>
  else if (lflag)
    80001182:	fe442783          	lw	a5,-28(s0)
    80001186:	2781                	sext.w	a5,a5
    80001188:	cb99                	beqz	a5,8000119e <getint+0x50>
    return va_arg(*ap, long);
    8000118a:	fe843783          	ld	a5,-24(s0)
    8000118e:	639c                	ld	a5,0(a5)
    80001190:	00878693          	addi	a3,a5,8
    80001194:	fe843703          	ld	a4,-24(s0)
    80001198:	e314                	sd	a3,0(a4)
    8000119a:	639c                	ld	a5,0(a5)
    8000119c:	a811                	j	800011b0 <getint+0x62>
  else
    return va_arg(*ap, int);
    8000119e:	fe843783          	ld	a5,-24(s0)
    800011a2:	639c                	ld	a5,0(a5)
    800011a4:	00878693          	addi	a3,a5,8
    800011a8:	fe843703          	ld	a4,-24(s0)
    800011ac:	e314                	sd	a3,0(a4)
    800011ae:	439c                	lw	a5,0(a5)
}
    800011b0:	853e                	mv	a0,a5
    800011b2:	60e2                	ld	ra,24(sp)
    800011b4:	6442                	ld	s0,16(sp)
    800011b6:	6105                	addi	sp,sp,32
    800011b8:	8082                	ret

00000000800011ba <vprintfmt>:

static void vprintfmt(void (*putch)(int, void**), void **putdat, const char *fmt, va_list ap)
{
    800011ba:	7159                	addi	sp,sp,-112
    800011bc:	f486                	sd	ra,104(sp)
    800011be:	f0a2                	sd	s0,96(sp)
    800011c0:	eca6                	sd	s1,88(sp)
    800011c2:	e8ca                	sd	s2,80(sp)
    800011c4:	1880                	addi	s0,sp,112
    800011c6:	faa43423          	sd	a0,-88(s0)
    800011ca:	fab43023          	sd	a1,-96(s0)
    800011ce:	f8c43c23          	sd	a2,-104(s0)
    800011d2:	f8d43823          	sd	a3,-112(s0)
  unsigned long long num;
  int base, lflag, width, precision, altflag;
  char padc;

  while (1) {
    while ((ch = *(unsigned char *) fmt) != '%') {
    800011d6:	a831                	j	800011f2 <vprintfmt+0x38>
      if (ch == '\0')
    800011d8:	32048963          	beqz	s1,8000150a <vprintfmt+0x350>
        return;
      fmt++;
    800011dc:	f9843783          	ld	a5,-104(s0)
    800011e0:	0785                	addi	a5,a5,1
    800011e2:	f8f43c23          	sd	a5,-104(s0)
      putch(ch, putdat);
    800011e6:	fa843783          	ld	a5,-88(s0)
    800011ea:	fa043583          	ld	a1,-96(s0)
    800011ee:	8526                	mv	a0,s1
    800011f0:	9782                	jalr	a5
    while ((ch = *(unsigned char *) fmt) != '%') {
    800011f2:	f9843783          	ld	a5,-104(s0)
    800011f6:	0007c783          	lbu	a5,0(a5)
    800011fa:	0007849b          	sext.w	s1,a5
    800011fe:	02500793          	li	a5,37
    80001202:	fcf49be3          	bne	s1,a5,800011d8 <vprintfmt+0x1e>
    }
    fmt++;
    80001206:	f9843783          	ld	a5,-104(s0)
    8000120a:	0785                	addi	a5,a5,1
    8000120c:	f8f43c23          	sd	a5,-104(s0)

    // Process a %-escape sequence
    last_fmt = fmt;
    80001210:	f9843783          	ld	a5,-104(s0)
    80001214:	faf43c23          	sd	a5,-72(s0)
    padc = ' ';
    80001218:	02000793          	li	a5,32
    8000121c:	fcf403a3          	sb	a5,-57(s0)
    width = -1;
    80001220:	57fd                	li	a5,-1
    80001222:	fcf42623          	sw	a5,-52(s0)
    precision = -1;
    80001226:	57fd                	li	a5,-1
    80001228:	fcf42423          	sw	a5,-56(s0)
    lflag = 0;
    8000122c:	fc042823          	sw	zero,-48(s0)
    altflag = 0;
    80001230:	fa042a23          	sw	zero,-76(s0)
  reswitch:
    switch (ch = *(unsigned char *) fmt++) {
    80001234:	f9843783          	ld	a5,-104(s0)
    80001238:	00178713          	addi	a4,a5,1
    8000123c:	f8e43c23          	sd	a4,-104(s0)
    80001240:	0007c783          	lbu	a5,0(a5)
    80001244:	0007849b          	sext.w	s1,a5
    80001248:	fdd4879b          	addiw	a5,s1,-35
    8000124c:	86be                	mv	a3,a5
    8000124e:	0006871b          	sext.w	a4,a3
    80001252:	05500793          	li	a5,85
    80001256:	28e7ed63          	bltu	a5,a4,800014f0 <vprintfmt+0x336>
    8000125a:	02069793          	slli	a5,a3,0x20
    8000125e:	9381                	srli	a5,a5,0x20
    80001260:	00279713          	slli	a4,a5,0x2
    80001264:	00001797          	auipc	a5,0x1
    80001268:	8dc78793          	addi	a5,a5,-1828 # 80001b40 <atol+0x1e2>
    8000126c:	97ba                	add	a5,a5,a4
    8000126e:	439c                	lw	a5,0(a5)
    80001270:	0007871b          	sext.w	a4,a5
    80001274:	00001797          	auipc	a5,0x1
    80001278:	8cc78793          	addi	a5,a5,-1844 # 80001b40 <atol+0x1e2>
    8000127c:	97ba                	add	a5,a5,a4
    8000127e:	8782                	jr	a5

    // flag to pad on the right
    case '-':
      padc = '-';
    80001280:	02d00793          	li	a5,45
    80001284:	fcf403a3          	sb	a5,-57(s0)
      goto reswitch;
    80001288:	b775                	j	80001234 <vprintfmt+0x7a>
      
    // flag to pad with 0's instead of spaces
    case '0':
      padc = '0';
    8000128a:	03000793          	li	a5,48
    8000128e:	fcf403a3          	sb	a5,-57(s0)
      goto reswitch;
    80001292:	b74d                	j	80001234 <vprintfmt+0x7a>
    case '5':
    case '6':
    case '7':
    case '8':
    case '9':
      for (precision = 0; ; ++fmt) {
    80001294:	fc042423          	sw	zero,-56(s0)
        precision = precision * 10 + ch - '0';
    80001298:	fc842783          	lw	a5,-56(s0)
    8000129c:	873e                	mv	a4,a5
    8000129e:	87ba                	mv	a5,a4
    800012a0:	0027979b          	slliw	a5,a5,0x2
    800012a4:	9fb9                	addw	a5,a5,a4
    800012a6:	0017979b          	slliw	a5,a5,0x1
    800012aa:	2781                	sext.w	a5,a5
    800012ac:	9fa5                	addw	a5,a5,s1
    800012ae:	2781                	sext.w	a5,a5
    800012b0:	fd07879b          	addiw	a5,a5,-48
    800012b4:	fcf42423          	sw	a5,-56(s0)
        ch = *fmt;
    800012b8:	f9843783          	ld	a5,-104(s0)
    800012bc:	0007c783          	lbu	a5,0(a5)
    800012c0:	0007849b          	sext.w	s1,a5
        if (ch < '0' || ch > '9')
    800012c4:	02f00793          	li	a5,47
    800012c8:	0497d263          	bge	a5,s1,8000130c <vprintfmt+0x152>
    800012cc:	03900793          	li	a5,57
    800012d0:	0297ce63          	blt	a5,s1,8000130c <vprintfmt+0x152>
      for (precision = 0; ; ++fmt) {
    800012d4:	f9843783          	ld	a5,-104(s0)
    800012d8:	0785                	addi	a5,a5,1
    800012da:	f8f43c23          	sd	a5,-104(s0)
        precision = precision * 10 + ch - '0';
    800012de:	bf6d                	j	80001298 <vprintfmt+0xde>
          break;
      }
      goto process_precision;

    case '*':
      precision = va_arg(ap, int);
    800012e0:	f9043783          	ld	a5,-112(s0)
    800012e4:	00878713          	addi	a4,a5,8
    800012e8:	f8e43823          	sd	a4,-112(s0)
    800012ec:	439c                	lw	a5,0(a5)
    800012ee:	fcf42423          	sw	a5,-56(s0)
      goto process_precision;
    800012f2:	a831                	j	8000130e <vprintfmt+0x154>

    case '.':
      if (width < 0)
    800012f4:	fcc42783          	lw	a5,-52(s0)
    800012f8:	2781                	sext.w	a5,a5
    800012fa:	f207dde3          	bgez	a5,80001234 <vprintfmt+0x7a>
        width = 0;
    800012fe:	fc042623          	sw	zero,-52(s0)
      goto reswitch;
    80001302:	bf0d                	j	80001234 <vprintfmt+0x7a>

    case '#':
      altflag = 1;
    80001304:	4785                	li	a5,1
    80001306:	faf42a23          	sw	a5,-76(s0)
      goto reswitch;
    8000130a:	b72d                	j	80001234 <vprintfmt+0x7a>
      goto process_precision;
    8000130c:	0001                	nop

    process_precision:
      if (width < 0)
    8000130e:	fcc42783          	lw	a5,-52(s0)
    80001312:	2781                	sext.w	a5,a5
    80001314:	f207d0e3          	bgez	a5,80001234 <vprintfmt+0x7a>
        width = precision, precision = -1;
    80001318:	fc842783          	lw	a5,-56(s0)
    8000131c:	fcf42623          	sw	a5,-52(s0)
    80001320:	57fd                	li	a5,-1
    80001322:	fcf42423          	sw	a5,-56(s0)
      goto reswitch;
    80001326:	b739                	j	80001234 <vprintfmt+0x7a>

    // long flag (doubled for long long)
    case 'l':
      lflag++;
    80001328:	fd042783          	lw	a5,-48(s0)
    8000132c:	2785                	addiw	a5,a5,1
    8000132e:	fcf42823          	sw	a5,-48(s0)
      goto reswitch;
    80001332:	b709                	j	80001234 <vprintfmt+0x7a>

    // character
    case 'c':
      putch(va_arg(ap, int), putdat);
    80001334:	f9043783          	ld	a5,-112(s0)
    80001338:	00878713          	addi	a4,a5,8
    8000133c:	f8e43823          	sd	a4,-112(s0)
    80001340:	4398                	lw	a4,0(a5)
    80001342:	fa843783          	ld	a5,-88(s0)
    80001346:	fa043583          	ld	a1,-96(s0)
    8000134a:	853a                	mv	a0,a4
    8000134c:	9782                	jalr	a5
      break;
    8000134e:	aa6d                	j	80001508 <vprintfmt+0x34e>

    // string
    case 's':
      if ((p = va_arg(ap, char *)) == NULL)
    80001350:	f9043783          	ld	a5,-112(s0)
    80001354:	00878713          	addi	a4,a5,8
    80001358:	f8e43823          	sd	a4,-112(s0)
    8000135c:	0007b903          	ld	s2,0(a5)
    80001360:	00091663          	bnez	s2,8000136c <vprintfmt+0x1b2>
        p = "(null)";
    80001364:	00000917          	auipc	s2,0x0
    80001368:	7d490913          	addi	s2,s2,2004 # 80001b38 <atol+0x1da>
      if (width > 0 && padc != '-')
    8000136c:	fcc42783          	lw	a5,-52(s0)
    80001370:	2781                	sext.w	a5,a5
    80001372:	06f05b63          	blez	a5,800013e8 <vprintfmt+0x22e>
    80001376:	fc744783          	lbu	a5,-57(s0)
    8000137a:	0ff7f713          	zext.b	a4,a5
    8000137e:	02d00793          	li	a5,45
    80001382:	06f70363          	beq	a4,a5,800013e8 <vprintfmt+0x22e>
        for (width -= strnlen(p, precision); width > 0; width--)
    80001386:	fcc42483          	lw	s1,-52(s0)
    8000138a:	fc842783          	lw	a5,-56(s0)
    8000138e:	85be                	mv	a1,a5
    80001390:	854a                	mv	a0,s2
    80001392:	4b6000ef          	jal	80001848 <strnlen>
    80001396:	87aa                	mv	a5,a0
    80001398:	2781                	sext.w	a5,a5
    8000139a:	40f487bb          	subw	a5,s1,a5
    8000139e:	2781                	sext.w	a5,a5
    800013a0:	fcf42623          	sw	a5,-52(s0)
    800013a4:	a005                	j	800013c4 <vprintfmt+0x20a>
          putch(padc, putdat);
    800013a6:	fc744783          	lbu	a5,-57(s0)
    800013aa:	0007871b          	sext.w	a4,a5
    800013ae:	fa843783          	ld	a5,-88(s0)
    800013b2:	fa043583          	ld	a1,-96(s0)
    800013b6:	853a                	mv	a0,a4
    800013b8:	9782                	jalr	a5
        for (width -= strnlen(p, precision); width > 0; width--)
    800013ba:	fcc42783          	lw	a5,-52(s0)
    800013be:	37fd                	addiw	a5,a5,-1
    800013c0:	fcf42623          	sw	a5,-52(s0)
    800013c4:	fcc42783          	lw	a5,-52(s0)
    800013c8:	2781                	sext.w	a5,a5
    800013ca:	fcf04ee3          	bgtz	a5,800013a6 <vprintfmt+0x1ec>
      for (; (ch = *p) != '\0' && (precision < 0 || --precision >= 0); width--) {
    800013ce:	a829                	j	800013e8 <vprintfmt+0x22e>
        putch(ch, putdat);
    800013d0:	fa843783          	ld	a5,-88(s0)
    800013d4:	fa043583          	ld	a1,-96(s0)
    800013d8:	8526                	mv	a0,s1
    800013da:	9782                	jalr	a5
        p++;
    800013dc:	0905                	addi	s2,s2,1
      for (; (ch = *p) != '\0' && (precision < 0 || --precision >= 0); width--) {
    800013de:	fcc42783          	lw	a5,-52(s0)
    800013e2:	37fd                	addiw	a5,a5,-1
    800013e4:	fcf42623          	sw	a5,-52(s0)
    800013e8:	00094783          	lbu	a5,0(s2)
    800013ec:	0007849b          	sext.w	s1,a5
    800013f0:	cc8d                	beqz	s1,8000142a <vprintfmt+0x270>
    800013f2:	fc842783          	lw	a5,-56(s0)
    800013f6:	2781                	sext.w	a5,a5
    800013f8:	fc07cce3          	bltz	a5,800013d0 <vprintfmt+0x216>
    800013fc:	fc842783          	lw	a5,-56(s0)
    80001400:	37fd                	addiw	a5,a5,-1
    80001402:	fcf42423          	sw	a5,-56(s0)
    80001406:	fc842783          	lw	a5,-56(s0)
    8000140a:	2781                	sext.w	a5,a5
    8000140c:	fc07d2e3          	bgez	a5,800013d0 <vprintfmt+0x216>
      }
      for (; width > 0; width--)
    80001410:	a829                	j	8000142a <vprintfmt+0x270>
        putch(' ', putdat);
    80001412:	fa843783          	ld	a5,-88(s0)
    80001416:	fa043583          	ld	a1,-96(s0)
    8000141a:	02000513          	li	a0,32
    8000141e:	9782                	jalr	a5
      for (; width > 0; width--)
    80001420:	fcc42783          	lw	a5,-52(s0)
    80001424:	37fd                	addiw	a5,a5,-1
    80001426:	fcf42623          	sw	a5,-52(s0)
    8000142a:	fcc42783          	lw	a5,-52(s0)
    8000142e:	2781                	sext.w	a5,a5
    80001430:	fef041e3          	bgtz	a5,80001412 <vprintfmt+0x258>
      break;
    80001434:	a8d1                	j	80001508 <vprintfmt+0x34e>

    // (signed) decimal
    case 'd':
      num = getint(&ap, lflag);
    80001436:	fd042703          	lw	a4,-48(s0)
    8000143a:	f9040793          	addi	a5,s0,-112
    8000143e:	85ba                	mv	a1,a4
    80001440:	853e                	mv	a0,a5
    80001442:	d0dff0ef          	jal	8000114e <getint>
    80001446:	87aa                	mv	a5,a0
    80001448:	fcf43c23          	sd	a5,-40(s0)
      if ((long long) num < 0) {
    8000144c:	fd843783          	ld	a5,-40(s0)
    80001450:	0007df63          	bgez	a5,8000146e <vprintfmt+0x2b4>
        putch('-', putdat);
    80001454:	fa843783          	ld	a5,-88(s0)
    80001458:	fa043583          	ld	a1,-96(s0)
    8000145c:	02d00513          	li	a0,45
    80001460:	9782                	jalr	a5
        num = -(long long) num;
    80001462:	fd843783          	ld	a5,-40(s0)
    80001466:	40f007b3          	neg	a5,a5
    8000146a:	fcf43c23          	sd	a5,-40(s0)
      }
      base = 10;
    8000146e:	47a9                	li	a5,10
    80001470:	fcf42a23          	sw	a5,-44(s0)
      goto signed_number;
    80001474:	a0b9                	j	800014c2 <vprintfmt+0x308>

    // unsigned decimal
    case 'u':
      base = 10;
    80001476:	47a9                	li	a5,10
    80001478:	fcf42a23          	sw	a5,-44(s0)
      goto unsigned_number;
    8000147c:	a80d                	j	800014ae <vprintfmt+0x2f4>

    // (unsigned) octal
    case 'o':
      // should do something with padding so it's always 3 octits
      base = 8;
    8000147e:	47a1                	li	a5,8
    80001480:	fcf42a23          	sw	a5,-44(s0)
      goto unsigned_number;
    80001484:	a02d                	j	800014ae <vprintfmt+0x2f4>

    // pointer
    case 'p':
      static_assert(sizeof(long) == sizeof(void*));
      lflag = 1;
    80001486:	4785                	li	a5,1
    80001488:	fcf42823          	sw	a5,-48(s0)
      putch('0', putdat);
    8000148c:	fa843783          	ld	a5,-88(s0)
    80001490:	fa043583          	ld	a1,-96(s0)
    80001494:	03000513          	li	a0,48
    80001498:	9782                	jalr	a5
      putch('x', putdat);
    8000149a:	fa843783          	ld	a5,-88(s0)
    8000149e:	fa043583          	ld	a1,-96(s0)
    800014a2:	07800513          	li	a0,120
    800014a6:	9782                	jalr	a5
      /* fall through to 'x' */

    // (unsigned) hexadecimal
    case 'x':
      base = 16;
    800014a8:	47c1                	li	a5,16
    800014aa:	fcf42a23          	sw	a5,-44(s0)
    unsigned_number:
      num = getuint(&ap, lflag);
    800014ae:	fd042703          	lw	a4,-48(s0)
    800014b2:	f9040793          	addi	a5,s0,-112
    800014b6:	85ba                	mv	a1,a4
    800014b8:	853e                	mv	a0,a5
    800014ba:	c25ff0ef          	jal	800010de <getuint>
    800014be:	fca43c23          	sd	a0,-40(s0)
    signed_number:
      printnum(putch, putdat, num, base, width, padc);
    800014c2:	fd442683          	lw	a3,-44(s0)
    800014c6:	fc744783          	lbu	a5,-57(s0)
    800014ca:	2781                	sext.w	a5,a5
    800014cc:	fcc42703          	lw	a4,-52(s0)
    800014d0:	fd843603          	ld	a2,-40(s0)
    800014d4:	fa043583          	ld	a1,-96(s0)
    800014d8:	fa843503          	ld	a0,-88(s0)
    800014dc:	b0bff0ef          	jal	80000fe6 <printnum>
      break;
    800014e0:	a025                	j	80001508 <vprintfmt+0x34e>

    // escaped '%' character
    case '%':
      putch(ch, putdat);
    800014e2:	fa843783          	ld	a5,-88(s0)
    800014e6:	fa043583          	ld	a1,-96(s0)
    800014ea:	8526                	mv	a0,s1
    800014ec:	9782                	jalr	a5
      break;
    800014ee:	a829                	j	80001508 <vprintfmt+0x34e>
      
    // unrecognized escape sequence - just print it literally
    default:
      putch('%', putdat);
    800014f0:	fa843783          	ld	a5,-88(s0)
    800014f4:	fa043583          	ld	a1,-96(s0)
    800014f8:	02500513          	li	a0,37
    800014fc:	9782                	jalr	a5
      fmt = last_fmt;
    800014fe:	fb843783          	ld	a5,-72(s0)
    80001502:	f8f43c23          	sd	a5,-104(s0)
      break;
    80001506:	0001                	nop
    while ((ch = *(unsigned char *) fmt) != '%') {
    80001508:	b1ed                	j	800011f2 <vprintfmt+0x38>
        return;
    8000150a:	0001                	nop
    }
  }
}
    8000150c:	70a6                	ld	ra,104(sp)
    8000150e:	7406                	ld	s0,96(sp)
    80001510:	64e6                	ld	s1,88(sp)
    80001512:	6946                	ld	s2,80(sp)
    80001514:	6165                	addi	sp,sp,112
    80001516:	8082                	ret

0000000080001518 <printf>:

int printf(const char* fmt, ...)
{
    80001518:	7159                	addi	sp,sp,-112
    8000151a:	f406                	sd	ra,40(sp)
    8000151c:	f022                	sd	s0,32(sp)
    8000151e:	1800                	addi	s0,sp,48
    80001520:	fca43c23          	sd	a0,-40(s0)
    80001524:	e40c                	sd	a1,8(s0)
    80001526:	e810                	sd	a2,16(s0)
    80001528:	ec14                	sd	a3,24(s0)
    8000152a:	f018                	sd	a4,32(s0)
    8000152c:	f41c                	sd	a5,40(s0)
    8000152e:	03043823          	sd	a6,48(s0)
    80001532:	03143c23          	sd	a7,56(s0)
  va_list ap;
  va_start(ap, fmt);
    80001536:	04040793          	addi	a5,s0,64
    8000153a:	fcf43823          	sd	a5,-48(s0)
    8000153e:	fd043783          	ld	a5,-48(s0)
    80001542:	fc878793          	addi	a5,a5,-56
    80001546:	fef43423          	sd	a5,-24(s0)

  vprintfmt((void*)putchar, 0, fmt, ap);
    8000154a:	fe843783          	ld	a5,-24(s0)
    8000154e:	86be                	mv	a3,a5
    80001550:	fd843603          	ld	a2,-40(s0)
    80001554:	4581                	li	a1,0
    80001556:	00000517          	auipc	a0,0x0
    8000155a:	9dc50513          	addi	a0,a0,-1572 # 80000f32 <putchar>
    8000155e:	c5dff0ef          	jal	800011ba <vprintfmt>

  va_end(ap);
  return 0; // incorrect return value, but who cares, anyway?
    80001562:	4781                	li	a5,0
}
    80001564:	853e                	mv	a0,a5
    80001566:	70a2                	ld	ra,40(sp)
    80001568:	7402                	ld	s0,32(sp)
    8000156a:	6165                	addi	sp,sp,112
    8000156c:	8082                	ret

000000008000156e <sprintf_putch.0>:
  va_list ap;
  char* str0 = str;
  va_start(ap, fmt);

  void sprintf_putch(int ch, void** data)
  {
    8000156e:	7139                	addi	sp,sp,-64
    80001570:	fc06                	sd	ra,56(sp)
    80001572:	f822                	sd	s0,48(sp)
    80001574:	0080                	addi	s0,sp,64
    80001576:	87aa                	mv	a5,a0
    80001578:	fcb43823          	sd	a1,-48(s0)
    8000157c:	fcf42e23          	sw	a5,-36(s0)
    80001580:	fc743423          	sd	t2,-56(s0)
    char** pstr = (char**)data;
    80001584:	fd043783          	ld	a5,-48(s0)
    80001588:	fef43423          	sd	a5,-24(s0)
    **pstr = ch;
    8000158c:	fe843783          	ld	a5,-24(s0)
    80001590:	639c                	ld	a5,0(a5)
    80001592:	fdc42703          	lw	a4,-36(s0)
    80001596:	0ff77713          	zext.b	a4,a4
    8000159a:	00e78023          	sb	a4,0(a5)
    (*pstr)++;
    8000159e:	fe843783          	ld	a5,-24(s0)
    800015a2:	639c                	ld	a5,0(a5)
    800015a4:	00178713          	addi	a4,a5,1
    800015a8:	fe843783          	ld	a5,-24(s0)
    800015ac:	e398                	sd	a4,0(a5)
  }
    800015ae:	0001                	nop
    800015b0:	70e2                	ld	ra,56(sp)
    800015b2:	7442                	ld	s0,48(sp)
    800015b4:	6121                	addi	sp,sp,64
    800015b6:	8082                	ret

00000000800015b8 <sprintf>:
{
    800015b8:	716d                	addi	sp,sp,-272
    800015ba:	ed86                	sd	ra,216(sp)
    800015bc:	e9a2                	sd	s0,208(sp)
    800015be:	1180                	addi	s0,sp,224
    800015c0:	f2a43c23          	sd	a0,-200(s0)
    800015c4:	f2b43823          	sd	a1,-208(s0)
    800015c8:	e010                	sd	a2,0(s0)
    800015ca:	e414                	sd	a3,8(s0)
    800015cc:	e818                	sd	a4,16(s0)
    800015ce:	ec1c                	sd	a5,24(s0)
    800015d0:	03043023          	sd	a6,32(s0)
    800015d4:	03143423          	sd	a7,40(s0)
int	feof (FILE *);
int	ferror (FILE *);
void    perror (const char *);
#ifndef _REENT_ONLY
FILE *	fopen (const char *__restrict _name, const char *__restrict _type);
int	sprintf (char *__restrict, const char *__restrict, ...)
    800015d8:	03040793          	addi	a5,s0,48
    800015dc:	f2f43423          	sd	a5,-216(s0)
    800015e0:	f2843783          	ld	a5,-216(s0)
    800015e4:	fcf43c23          	sd	a5,-40(s0)
    800015e8:	f4840793          	addi	a5,s0,-184
    800015ec:	f4840713          	addi	a4,s0,-184
    800015f0:	39700693          	li	a3,919
    800015f4:	c394                	sw	a3,0(a5)
    800015f6:	0183b6b7          	lui	a3,0x183b
    800015fa:	28368693          	addi	a3,a3,643 # 183b283 <threadsense.3+0x183b27f>
    800015fe:	c3d4                	sw	a3,4(a5)
    80001600:	0103b6b7          	lui	a3,0x103b
    80001604:	38368693          	addi	a3,a3,899 # 103b383 <threadsense.3+0x103b37f>
    80001608:	c794                	sw	a3,8(a5)
    8000160a:	000286b7          	lui	a3,0x28
    8000160e:	06768693          	addi	a3,a3,103 # 28067 <threadsense.3+0x28063>
    80001612:	c7d4                	sw	a3,12(a5)
    80001614:	eb98                	sd	a4,16(a5)
    80001616:	00000717          	auipc	a4,0x0
    8000161a:	f5870713          	addi	a4,a4,-168 # 8000156e <sprintf_putch.0>
    8000161e:	ef98                	sd	a4,24(a5)
    80001620:	0000100f          	fence.i
  char* str0 = str;
    80001624:	f3843783          	ld	a5,-200(s0)
    80001628:	fef43423          	sd	a5,-24(s0)
  va_start(ap, fmt);
    8000162c:	03040793          	addi	a5,s0,48
    80001630:	f2f43423          	sd	a5,-216(s0)
    80001634:	f2843783          	ld	a5,-216(s0)
    80001638:	fd078793          	addi	a5,a5,-48
    8000163c:	fef43023          	sd	a5,-32(s0)

  vprintfmt(sprintf_putch, (void**)&str, fmt, ap);
    80001640:	fe043703          	ld	a4,-32(s0)
    80001644:	f4840793          	addi	a5,s0,-184
    80001648:	853e                	mv	a0,a5
    8000164a:	f3840793          	addi	a5,s0,-200
    8000164e:	86ba                	mv	a3,a4
    80001650:	f3043603          	ld	a2,-208(s0)
    80001654:	85be                	mv	a1,a5
    80001656:	b65ff0ef          	jal	800011ba <vprintfmt>
  *str = 0;
    8000165a:	f3843783          	ld	a5,-200(s0)
    8000165e:	00078023          	sb	zero,0(a5)

  va_end(ap);
  return str - str0;
    80001662:	f3843703          	ld	a4,-200(s0)
    80001666:	fe843783          	ld	a5,-24(s0)
    8000166a:	40f707b3          	sub	a5,a4,a5
    8000166e:	2781                	sext.w	a5,a5
}
    80001670:	853e                	mv	a0,a5
    80001672:	60ee                	ld	ra,216(sp)
    80001674:	644e                	ld	s0,208(sp)
    80001676:	6151                	addi	sp,sp,272
    80001678:	8082                	ret

000000008000167a <memcpy>:

void* memcpy(void* dest, const void* src, size_t len)
{
    8000167a:	715d                	addi	sp,sp,-80
    8000167c:	e486                	sd	ra,72(sp)
    8000167e:	e0a2                	sd	s0,64(sp)
    80001680:	0880                	addi	s0,sp,80
    80001682:	fca43423          	sd	a0,-56(s0)
    80001686:	fcb43023          	sd	a1,-64(s0)
    8000168a:	fac43c23          	sd	a2,-72(s0)
  if ((((uintptr_t)dest | (uintptr_t)src | len) & (sizeof(uintptr_t)-1)) == 0) {
    8000168e:	fc843703          	ld	a4,-56(s0)
    80001692:	fc043783          	ld	a5,-64(s0)
    80001696:	8f5d                	or	a4,a4,a5
    80001698:	fb843783          	ld	a5,-72(s0)
    8000169c:	8fd9                	or	a5,a5,a4
    8000169e:	8b9d                	andi	a5,a5,7
    800016a0:	e3b1                	bnez	a5,800016e4 <memcpy+0x6a>
    const uintptr_t* s = src;
    800016a2:	fc043783          	ld	a5,-64(s0)
    800016a6:	fef43423          	sd	a5,-24(s0)
    uintptr_t *d = dest;
    800016aa:	fc843783          	ld	a5,-56(s0)
    800016ae:	fef43023          	sd	a5,-32(s0)
    while (d < (uintptr_t*)(dest + len))
    800016b2:	a839                	j	800016d0 <memcpy+0x56>
      *d++ = *s++;
    800016b4:	fe843703          	ld	a4,-24(s0)
    800016b8:	00870793          	addi	a5,a4,8
    800016bc:	fef43423          	sd	a5,-24(s0)
    800016c0:	fe043783          	ld	a5,-32(s0)
    800016c4:	00878693          	addi	a3,a5,8
    800016c8:	fed43023          	sd	a3,-32(s0)
    800016cc:	6318                	ld	a4,0(a4)
    800016ce:	e398                	sd	a4,0(a5)
    while (d < (uintptr_t*)(dest + len))
    800016d0:	fc843703          	ld	a4,-56(s0)
    800016d4:	fb843783          	ld	a5,-72(s0)
    800016d8:	97ba                	add	a5,a5,a4
    800016da:	fe043703          	ld	a4,-32(s0)
    800016de:	fcf76be3          	bltu	a4,a5,800016b4 <memcpy+0x3a>
    800016e2:	a099                	j	80001728 <memcpy+0xae>
  } else {
    const char* s = src;
    800016e4:	fc043783          	ld	a5,-64(s0)
    800016e8:	fcf43c23          	sd	a5,-40(s0)
    char *d = dest;
    800016ec:	fc843783          	ld	a5,-56(s0)
    800016f0:	fcf43823          	sd	a5,-48(s0)
    while (d < (char*)(dest + len))
    800016f4:	a00d                	j	80001716 <memcpy+0x9c>
      *d++ = *s++;
    800016f6:	fd843703          	ld	a4,-40(s0)
    800016fa:	00170793          	addi	a5,a4,1
    800016fe:	fcf43c23          	sd	a5,-40(s0)
    80001702:	fd043783          	ld	a5,-48(s0)
    80001706:	00178693          	addi	a3,a5,1
    8000170a:	fcd43823          	sd	a3,-48(s0)
    8000170e:	00074703          	lbu	a4,0(a4)
    80001712:	00e78023          	sb	a4,0(a5)
    while (d < (char*)(dest + len))
    80001716:	fc843703          	ld	a4,-56(s0)
    8000171a:	fb843783          	ld	a5,-72(s0)
    8000171e:	97ba                	add	a5,a5,a4
    80001720:	fd043703          	ld	a4,-48(s0)
    80001724:	fcf769e3          	bltu	a4,a5,800016f6 <memcpy+0x7c>
  }
  return dest;
    80001728:	fc843783          	ld	a5,-56(s0)
}
    8000172c:	853e                	mv	a0,a5
    8000172e:	60a6                	ld	ra,72(sp)
    80001730:	6406                	ld	s0,64(sp)
    80001732:	6161                	addi	sp,sp,80
    80001734:	8082                	ret

0000000080001736 <memset>:

void* memset(void* dest, int byte, size_t len)
{
    80001736:	715d                	addi	sp,sp,-80
    80001738:	e486                	sd	ra,72(sp)
    8000173a:	e0a2                	sd	s0,64(sp)
    8000173c:	0880                	addi	s0,sp,80
    8000173e:	fca43423          	sd	a0,-56(s0)
    80001742:	87ae                	mv	a5,a1
    80001744:	fac43c23          	sd	a2,-72(s0)
    80001748:	fcf42223          	sw	a5,-60(s0)
  if ((((uintptr_t)dest | len) & (sizeof(uintptr_t)-1)) == 0) {
    8000174c:	fc843703          	ld	a4,-56(s0)
    80001750:	fb843783          	ld	a5,-72(s0)
    80001754:	8fd9                	or	a5,a5,a4
    80001756:	8b9d                	andi	a5,a5,7
    80001758:	e7bd                	bnez	a5,800017c6 <memset+0x90>
    uintptr_t word = byte & 0xFF;
    8000175a:	fc442783          	lw	a5,-60(s0)
    8000175e:	0ff7f793          	zext.b	a5,a5
    80001762:	fcf43c23          	sd	a5,-40(s0)
    word |= word << 8;
    80001766:	fd843783          	ld	a5,-40(s0)
    8000176a:	07a2                	slli	a5,a5,0x8
    8000176c:	fd843703          	ld	a4,-40(s0)
    80001770:	8fd9                	or	a5,a5,a4
    80001772:	fcf43c23          	sd	a5,-40(s0)
    word |= word << 16;
    80001776:	fd843783          	ld	a5,-40(s0)
    8000177a:	07c2                	slli	a5,a5,0x10
    8000177c:	fd843703          	ld	a4,-40(s0)
    80001780:	8fd9                	or	a5,a5,a4
    80001782:	fcf43c23          	sd	a5,-40(s0)
    word |= word << 16 << 16;
    80001786:	fd843783          	ld	a5,-40(s0)
    8000178a:	1782                	slli	a5,a5,0x20
    8000178c:	fd843703          	ld	a4,-40(s0)
    80001790:	8fd9                	or	a5,a5,a4
    80001792:	fcf43c23          	sd	a5,-40(s0)

    uintptr_t *d = dest;
    80001796:	fc843783          	ld	a5,-56(s0)
    8000179a:	fef43423          	sd	a5,-24(s0)
    while (d < (uintptr_t*)(dest + len))
    8000179e:	a811                	j	800017b2 <memset+0x7c>
      *d++ = word;
    800017a0:	fe843783          	ld	a5,-24(s0)
    800017a4:	00878713          	addi	a4,a5,8
    800017a8:	fee43423          	sd	a4,-24(s0)
    800017ac:	fd843703          	ld	a4,-40(s0)
    800017b0:	e398                	sd	a4,0(a5)
    while (d < (uintptr_t*)(dest + len))
    800017b2:	fc843703          	ld	a4,-56(s0)
    800017b6:	fb843783          	ld	a5,-72(s0)
    800017ba:	97ba                	add	a5,a5,a4
    800017bc:	fe843703          	ld	a4,-24(s0)
    800017c0:	fef760e3          	bltu	a4,a5,800017a0 <memset+0x6a>
    800017c4:	a81d                	j	800017fa <memset+0xc4>
  } else {
    char *d = dest;
    800017c6:	fc843783          	ld	a5,-56(s0)
    800017ca:	fef43023          	sd	a5,-32(s0)
    while (d < (char*)(dest + len))
    800017ce:	a829                	j	800017e8 <memset+0xb2>
      *d++ = byte;
    800017d0:	fe043783          	ld	a5,-32(s0)
    800017d4:	00178713          	addi	a4,a5,1
    800017d8:	fee43023          	sd	a4,-32(s0)
    800017dc:	fc442703          	lw	a4,-60(s0)
    800017e0:	0ff77713          	zext.b	a4,a4
    800017e4:	00e78023          	sb	a4,0(a5)
    while (d < (char*)(dest + len))
    800017e8:	fc843703          	ld	a4,-56(s0)
    800017ec:	fb843783          	ld	a5,-72(s0)
    800017f0:	97ba                	add	a5,a5,a4
    800017f2:	fe043703          	ld	a4,-32(s0)
    800017f6:	fcf76de3          	bltu	a4,a5,800017d0 <memset+0x9a>
  }
  return dest;
    800017fa:	fc843783          	ld	a5,-56(s0)
}
    800017fe:	853e                	mv	a0,a5
    80001800:	60a6                	ld	ra,72(sp)
    80001802:	6406                	ld	s0,64(sp)
    80001804:	6161                	addi	sp,sp,80
    80001806:	8082                	ret

0000000080001808 <strlen>:

size_t strlen(const char *s)
{
    80001808:	7179                	addi	sp,sp,-48
    8000180a:	f406                	sd	ra,40(sp)
    8000180c:	f022                	sd	s0,32(sp)
    8000180e:	1800                	addi	s0,sp,48
    80001810:	fca43c23          	sd	a0,-40(s0)
  const char *p = s;
    80001814:	fd843783          	ld	a5,-40(s0)
    80001818:	fef43423          	sd	a5,-24(s0)
  while (*p)
    8000181c:	a031                	j	80001828 <strlen+0x20>
    p++;
    8000181e:	fe843783          	ld	a5,-24(s0)
    80001822:	0785                	addi	a5,a5,1
    80001824:	fef43423          	sd	a5,-24(s0)
  while (*p)
    80001828:	fe843783          	ld	a5,-24(s0)
    8000182c:	0007c783          	lbu	a5,0(a5)
    80001830:	f7fd                	bnez	a5,8000181e <strlen+0x16>
  return p - s;
    80001832:	fe843703          	ld	a4,-24(s0)
    80001836:	fd843783          	ld	a5,-40(s0)
    8000183a:	40f707b3          	sub	a5,a4,a5
}
    8000183e:	853e                	mv	a0,a5
    80001840:	70a2                	ld	ra,40(sp)
    80001842:	7402                	ld	s0,32(sp)
    80001844:	6145                	addi	sp,sp,48
    80001846:	8082                	ret

0000000080001848 <strnlen>:

size_t strnlen(const char *s, size_t n)
{
    80001848:	7179                	addi	sp,sp,-48
    8000184a:	f406                	sd	ra,40(sp)
    8000184c:	f022                	sd	s0,32(sp)
    8000184e:	1800                	addi	s0,sp,48
    80001850:	fca43c23          	sd	a0,-40(s0)
    80001854:	fcb43823          	sd	a1,-48(s0)
  const char *p = s;
    80001858:	fd843783          	ld	a5,-40(s0)
    8000185c:	fef43423          	sd	a5,-24(s0)
  while (n-- && *p)
    80001860:	a031                	j	8000186c <strnlen+0x24>
    p++;
    80001862:	fe843783          	ld	a5,-24(s0)
    80001866:	0785                	addi	a5,a5,1
    80001868:	fef43423          	sd	a5,-24(s0)
  while (n-- && *p)
    8000186c:	fd043783          	ld	a5,-48(s0)
    80001870:	fff78713          	addi	a4,a5,-1
    80001874:	fce43823          	sd	a4,-48(s0)
    80001878:	c791                	beqz	a5,80001884 <strnlen+0x3c>
    8000187a:	fe843783          	ld	a5,-24(s0)
    8000187e:	0007c783          	lbu	a5,0(a5)
    80001882:	f3e5                	bnez	a5,80001862 <strnlen+0x1a>
  return p - s;
    80001884:	fe843703          	ld	a4,-24(s0)
    80001888:	fd843783          	ld	a5,-40(s0)
    8000188c:	40f707b3          	sub	a5,a4,a5
}
    80001890:	853e                	mv	a0,a5
    80001892:	70a2                	ld	ra,40(sp)
    80001894:	7402                	ld	s0,32(sp)
    80001896:	6145                	addi	sp,sp,48
    80001898:	8082                	ret

000000008000189a <strcmp>:

int strcmp(const char* s1, const char* s2)
{
    8000189a:	7179                	addi	sp,sp,-48
    8000189c:	f406                	sd	ra,40(sp)
    8000189e:	f022                	sd	s0,32(sp)
    800018a0:	1800                	addi	s0,sp,48
    800018a2:	fca43c23          	sd	a0,-40(s0)
    800018a6:	fcb43823          	sd	a1,-48(s0)
  unsigned char c1, c2;

  do {
    c1 = *s1++;
    800018aa:	fd843783          	ld	a5,-40(s0)
    800018ae:	00178713          	addi	a4,a5,1
    800018b2:	fce43c23          	sd	a4,-40(s0)
    800018b6:	0007c783          	lbu	a5,0(a5)
    800018ba:	fef407a3          	sb	a5,-17(s0)
    c2 = *s2++;
    800018be:	fd043783          	ld	a5,-48(s0)
    800018c2:	00178713          	addi	a4,a5,1
    800018c6:	fce43823          	sd	a4,-48(s0)
    800018ca:	0007c783          	lbu	a5,0(a5)
    800018ce:	fef40723          	sb	a5,-18(s0)
  } while (c1 != 0 && c1 == c2);
    800018d2:	fef44783          	lbu	a5,-17(s0)
    800018d6:	0ff7f793          	zext.b	a5,a5
    800018da:	cf81                	beqz	a5,800018f2 <strcmp+0x58>
    800018dc:	fef44783          	lbu	a5,-17(s0)
    800018e0:	873e                	mv	a4,a5
    800018e2:	fee44783          	lbu	a5,-18(s0)
    800018e6:	0ff77713          	zext.b	a4,a4
    800018ea:	0ff7f793          	zext.b	a5,a5
    800018ee:	faf70ee3          	beq	a4,a5,800018aa <strcmp+0x10>

  return c1 - c2;
    800018f2:	fef44783          	lbu	a5,-17(s0)
    800018f6:	0007871b          	sext.w	a4,a5
    800018fa:	fee44783          	lbu	a5,-18(s0)
    800018fe:	2781                	sext.w	a5,a5
    80001900:	40f707bb          	subw	a5,a4,a5
    80001904:	2781                	sext.w	a5,a5
}
    80001906:	853e                	mv	a0,a5
    80001908:	70a2                	ld	ra,40(sp)
    8000190a:	7402                	ld	s0,32(sp)
    8000190c:	6145                	addi	sp,sp,48
    8000190e:	8082                	ret

0000000080001910 <strcpy>:

char* strcpy(char* dest, const char* src)
{
    80001910:	7179                	addi	sp,sp,-48
    80001912:	f406                	sd	ra,40(sp)
    80001914:	f022                	sd	s0,32(sp)
    80001916:	1800                	addi	s0,sp,48
    80001918:	fca43c23          	sd	a0,-40(s0)
    8000191c:	fcb43823          	sd	a1,-48(s0)
  char* d = dest;
    80001920:	fd843783          	ld	a5,-40(s0)
    80001924:	fef43423          	sd	a5,-24(s0)
  while ((*d++ = *src++))
    80001928:	0001                	nop
    8000192a:	fd043703          	ld	a4,-48(s0)
    8000192e:	00170793          	addi	a5,a4,1
    80001932:	fcf43823          	sd	a5,-48(s0)
    80001936:	fe843783          	ld	a5,-24(s0)
    8000193a:	00178693          	addi	a3,a5,1
    8000193e:	fed43423          	sd	a3,-24(s0)
    80001942:	00074703          	lbu	a4,0(a4)
    80001946:	00e78023          	sb	a4,0(a5)
    8000194a:	0007c783          	lbu	a5,0(a5)
    8000194e:	fff1                	bnez	a5,8000192a <strcpy+0x1a>
    ;
  return dest;
    80001950:	fd843783          	ld	a5,-40(s0)
}
    80001954:	853e                	mv	a0,a5
    80001956:	70a2                	ld	ra,40(sp)
    80001958:	7402                	ld	s0,32(sp)
    8000195a:	6145                	addi	sp,sp,48
    8000195c:	8082                	ret

000000008000195e <atol>:

long atol(const char* str)
{
    8000195e:	7179                	addi	sp,sp,-48
    80001960:	f406                	sd	ra,40(sp)
    80001962:	f022                	sd	s0,32(sp)
    80001964:	1800                	addi	s0,sp,48
    80001966:	fca43c23          	sd	a0,-40(s0)
  long res = 0;
    8000196a:	fe043423          	sd	zero,-24(s0)
  int sign = 0;
    8000196e:	fe042223          	sw	zero,-28(s0)

  while (*str == ' ')
    80001972:	a031                	j	8000197e <atol+0x20>
    str++;
    80001974:	fd843783          	ld	a5,-40(s0)
    80001978:	0785                	addi	a5,a5,1
    8000197a:	fcf43c23          	sd	a5,-40(s0)
  while (*str == ' ')
    8000197e:	fd843783          	ld	a5,-40(s0)
    80001982:	0007c783          	lbu	a5,0(a5)
    80001986:	873e                	mv	a4,a5
    80001988:	02000793          	li	a5,32
    8000198c:	fef704e3          	beq	a4,a5,80001974 <atol+0x16>

  if (*str == '-' || *str == '+') {
    80001990:	fd843783          	ld	a5,-40(s0)
    80001994:	0007c783          	lbu	a5,0(a5)
    80001998:	873e                	mv	a4,a5
    8000199a:	02d00793          	li	a5,45
    8000199e:	00f70b63          	beq	a4,a5,800019b4 <atol+0x56>
    800019a2:	fd843783          	ld	a5,-40(s0)
    800019a6:	0007c783          	lbu	a5,0(a5)
    800019aa:	873e                	mv	a4,a5
    800019ac:	02b00793          	li	a5,43
    800019b0:	06f71263          	bne	a4,a5,80001a14 <atol+0xb6>
    sign = *str == '-';
    800019b4:	fd843783          	ld	a5,-40(s0)
    800019b8:	0007c783          	lbu	a5,0(a5)
    800019bc:	0007871b          	sext.w	a4,a5
    800019c0:	02d00793          	li	a5,45
    800019c4:	40f707b3          	sub	a5,a4,a5
    800019c8:	0017b793          	seqz	a5,a5
    800019cc:	0ff7f793          	zext.b	a5,a5
    800019d0:	fef42223          	sw	a5,-28(s0)
    str++;
    800019d4:	fd843783          	ld	a5,-40(s0)
    800019d8:	0785                	addi	a5,a5,1
    800019da:	fcf43c23          	sd	a5,-40(s0)
  }

  while (*str) {
    800019de:	a81d                	j	80001a14 <atol+0xb6>
    res *= 10;
    800019e0:	fe843703          	ld	a4,-24(s0)
    800019e4:	87ba                	mv	a5,a4
    800019e6:	078a                	slli	a5,a5,0x2
    800019e8:	97ba                	add	a5,a5,a4
    800019ea:	0786                	slli	a5,a5,0x1
    800019ec:	fef43423          	sd	a5,-24(s0)
    res += *str++ - '0';
    800019f0:	fd843783          	ld	a5,-40(s0)
    800019f4:	00178713          	addi	a4,a5,1
    800019f8:	fce43c23          	sd	a4,-40(s0)
    800019fc:	0007c783          	lbu	a5,0(a5)
    80001a00:	2781                	sext.w	a5,a5
    80001a02:	fd07879b          	addiw	a5,a5,-48
    80001a06:	2781                	sext.w	a5,a5
    80001a08:	873e                	mv	a4,a5
    80001a0a:	fe843783          	ld	a5,-24(s0)
    80001a0e:	97ba                	add	a5,a5,a4
    80001a10:	fef43423          	sd	a5,-24(s0)
  while (*str) {
    80001a14:	fd843783          	ld	a5,-40(s0)
    80001a18:	0007c783          	lbu	a5,0(a5)
    80001a1c:	f3f1                	bnez	a5,800019e0 <atol+0x82>
  }

  return sign ? -res : res;
    80001a1e:	fe442783          	lw	a5,-28(s0)
    80001a22:	2781                	sext.w	a5,a5
    80001a24:	c791                	beqz	a5,80001a30 <atol+0xd2>
    80001a26:	fe843783          	ld	a5,-24(s0)
    80001a2a:	40f007b3          	neg	a5,a5
    80001a2e:	a019                	j	80001a34 <atol+0xd6>
    80001a30:	fe843783          	ld	a5,-24(s0)
}
    80001a34:	853e                	mv	a0,a5
    80001a36:	70a2                	ld	ra,40(sp)
    80001a38:	7402                	ld	s0,32(sp)
    80001a3a:	6145                	addi	sp,sp,48
    80001a3c:	8082                	ret

Disassembly of section .tohost:

0000000080002000 <tohost>:
	...

0000000080002040 <fromhost>:
	...
