
fir1:     file format elf64-littleriscv


Disassembly of section .text.init:

0000000080000000 <_start>:
#endif

  .section ".text.init"
  .globl _start
_start:
  li  x1, 0
    80000000:	4081                	li	ra,0
  li  x2, 0
    80000002:	4101                	li	sp,0
  li  x3, 0
    80000004:	4181                	li	gp,0
  li  x4, 0
    80000006:	4201                	li	tp,0
  li  x5, 0
    80000008:	4281                	li	t0,0
  li  x6, 0
    8000000a:	4301                	li	t1,0
  li  x7, 0
    8000000c:	4381                	li	t2,0
  li  x8, 0
    8000000e:	4401                	li	s0,0
  li  x9, 0
    80000010:	4481                	li	s1,0
  li  x10,0
    80000012:	4501                	li	a0,0
  li  x11,0
    80000014:	4581                	li	a1,0
  li  x12,0
    80000016:	4601                	li	a2,0
  li  x13,0
    80000018:	4681                	li	a3,0
  li  x14,0
    8000001a:	4701                	li	a4,0
  li  x15,0
    8000001c:	4781                	li	a5,0
  li  x16,0
    8000001e:	4801                	li	a6,0
  li  x17,0
    80000020:	4881                	li	a7,0
  li  x18,0
    80000022:	4901                	li	s2,0
  li  x19,0
    80000024:	4981                	li	s3,0
  li  x20,0
    80000026:	4a01                	li	s4,0
  li  x21,0
    80000028:	4a81                	li	s5,0
  li  x22,0
    8000002a:	4b01                	li	s6,0
  li  x23,0
    8000002c:	4b81                	li	s7,0
  li  x24,0
    8000002e:	4c01                	li	s8,0
  li  x25,0
    80000030:	4c81                	li	s9,0
  li  x26,0
    80000032:	4d01                	li	s10,0
  li  x27,0
    80000034:	4d81                	li	s11,0
  li  x28,0
    80000036:	4e01                	li	t3,0
  li  x29,0
    80000038:	4e81                	li	t4,0
  li  x30,0
    8000003a:	4f01                	li	t5,0
  li  x31,0
    8000003c:	4f81                	li	t6,0

  # enable FPU and accelerator if present
  li t0, MSTATUS_FS | MSTATUS_XS
    8000003e:	62f9                	lui	t0,0x1e
  csrs mstatus, t0
    80000040:	3002a073          	csrs	mstatus,t0

  # make sure XLEN agrees with compilation choice
  li t0, 1
    80000044:	4285                	li	t0,1
  slli t0, t0, 31
    80000046:	02fe                	slli	t0,t0,0x1f
#if __riscv_xlen == 64
  bgez t0, 1f
    80000048:	0002d863          	bgez	t0,80000058 <_start+0x58>
#else
  bltz t0, 1f
#endif
2:
  li a0, 1
    8000004c:	4505                	li	a0,1
  sw a0, tohost, t0
    8000004e:	00002297          	auipc	t0,0x2
    80000052:	faa2a923          	sw	a0,-78(t0) # 80002000 <tohost>
  j 2b
    80000056:	bfdd                	j	8000004c <_start+0x4c>
1:

#ifdef __riscv_flen
  # initialize FPU if we have one
  la t0, 1f
    80000058:	00000297          	auipc	t0,0x0
    8000005c:	09028293          	addi	t0,t0,144 # 800000e8 <_start+0xe8>
  csrw mtvec, t0
    80000060:	30529073          	csrw	mtvec,t0

  fssr    x0
    80000064:	00301073          	fscsr	zero
  fmv.s.x f0, x0
    80000068:	f0000053          	fmv.w.x	ft0,zero
  fmv.s.x f1, x0
    8000006c:	f00000d3          	fmv.w.x	ft1,zero
  fmv.s.x f2, x0
    80000070:	f0000153          	fmv.w.x	ft2,zero
  fmv.s.x f3, x0
    80000074:	f00001d3          	fmv.w.x	ft3,zero
  fmv.s.x f4, x0
    80000078:	f0000253          	fmv.w.x	ft4,zero
  fmv.s.x f5, x0
    8000007c:	f00002d3          	fmv.w.x	ft5,zero
  fmv.s.x f6, x0
    80000080:	f0000353          	fmv.w.x	ft6,zero
  fmv.s.x f7, x0
    80000084:	f00003d3          	fmv.w.x	ft7,zero
  fmv.s.x f8, x0
    80000088:	f0000453          	fmv.w.x	fs0,zero
  fmv.s.x f9, x0
    8000008c:	f00004d3          	fmv.w.x	fs1,zero
  fmv.s.x f10,x0
    80000090:	f0000553          	fmv.w.x	fa0,zero
  fmv.s.x f11,x0
    80000094:	f00005d3          	fmv.w.x	fa1,zero
  fmv.s.x f12,x0
    80000098:	f0000653          	fmv.w.x	fa2,zero
  fmv.s.x f13,x0
    8000009c:	f00006d3          	fmv.w.x	fa3,zero
  fmv.s.x f14,x0
    800000a0:	f0000753          	fmv.w.x	fa4,zero
  fmv.s.x f15,x0
    800000a4:	f00007d3          	fmv.w.x	fa5,zero
  fmv.s.x f16,x0
    800000a8:	f0000853          	fmv.w.x	fa6,zero
  fmv.s.x f17,x0
    800000ac:	f00008d3          	fmv.w.x	fa7,zero
  fmv.s.x f18,x0
    800000b0:	f0000953          	fmv.w.x	fs2,zero
  fmv.s.x f19,x0
    800000b4:	f00009d3          	fmv.w.x	fs3,zero
  fmv.s.x f20,x0
    800000b8:	f0000a53          	fmv.w.x	fs4,zero
  fmv.s.x f21,x0
    800000bc:	f0000ad3          	fmv.w.x	fs5,zero
  fmv.s.x f22,x0
    800000c0:	f0000b53          	fmv.w.x	fs6,zero
  fmv.s.x f23,x0
    800000c4:	f0000bd3          	fmv.w.x	fs7,zero
  fmv.s.x f24,x0
    800000c8:	f0000c53          	fmv.w.x	fs8,zero
  fmv.s.x f25,x0
    800000cc:	f0000cd3          	fmv.w.x	fs9,zero
  fmv.s.x f26,x0
    800000d0:	f0000d53          	fmv.w.x	fs10,zero
  fmv.s.x f27,x0
    800000d4:	f0000dd3          	fmv.w.x	fs11,zero
  fmv.s.x f28,x0
    800000d8:	f0000e53          	fmv.w.x	ft8,zero
  fmv.s.x f29,x0
    800000dc:	f0000ed3          	fmv.w.x	ft9,zero
  fmv.s.x f30,x0
    800000e0:	f0000f53          	fmv.w.x	ft10,zero
  fmv.s.x f31,x0
    800000e4:	f0000fd3          	fmv.w.x	ft11,zero
1:
#endif

  # initialize trap vector
  la t0, trap_entry
    800000e8:	00000297          	auipc	t0,0x0
    800000ec:	03828293          	addi	t0,t0,56 # 80000120 <trap_entry>
  csrw mtvec, t0
    800000f0:	30529073          	csrw	mtvec,t0

  # initialize global pointer
.option push
.option norelax
  la gp, __global_pointer$
    800000f4:	00002197          	auipc	gp,0x2
    800000f8:	75418193          	addi	gp,gp,1876 # 80002848 <__global_pointer$>
.option pop

  la  tp, _end + 63
    800000fc:	86f18213          	addi	tp,gp,-1937 # 800020b7 <_tbss_end+0x37>
  and tp, tp, -64
    80000100:	fc027213          	andi	tp,tp,-64

  # get core id
  csrr a0, mhartid
    80000104:	f1402573          	csrr	a0,mhartid
  # for now, assume only 1 core
  li a1, 1
    80000108:	4585                	li	a1,1
1:bgeu a0, a1, 1b
    8000010a:	00b57063          	bgeu	a0,a1,8000010a <_start+0x10a>

  # give each core 128KB of stack + TLS
#define STKSHIFT 17
  add sp, a0, 1
    8000010e:	00150113          	addi	sp,a0,1
  sll sp, sp, STKSHIFT
    80000112:	0146                	slli	sp,sp,0x11
  add sp, sp, tp
    80000114:	9112                	add	sp,sp,tp
  sll a2, a0, STKSHIFT
    80000116:	01151613          	slli	a2,a0,0x11
  add tp, tp, a2
    8000011a:	9232                	add	tp,tp,a2

  j _init
    8000011c:	5310006f          	j	80000e4c <_init>

0000000080000120 <trap_entry>:

  .align 2
trap_entry:
  addi sp, sp, -272
    80000120:	716d                	addi	sp,sp,-272

  SREG x1, 1*REGBYTES(sp)
    80000122:	e406                	sd	ra,8(sp)
  SREG x2, 2*REGBYTES(sp)
    80000124:	e80a                	sd	sp,16(sp)
  SREG x3, 3*REGBYTES(sp)
    80000126:	ec0e                	sd	gp,24(sp)
  SREG x4, 4*REGBYTES(sp)
    80000128:	f012                	sd	tp,32(sp)
  SREG x5, 5*REGBYTES(sp)
    8000012a:	f416                	sd	t0,40(sp)
  SREG x6, 6*REGBYTES(sp)
    8000012c:	f81a                	sd	t1,48(sp)
  SREG x7, 7*REGBYTES(sp)
    8000012e:	fc1e                	sd	t2,56(sp)
  SREG x8, 8*REGBYTES(sp)
    80000130:	e0a2                	sd	s0,64(sp)
  SREG x9, 9*REGBYTES(sp)
    80000132:	e4a6                	sd	s1,72(sp)
  SREG x10, 10*REGBYTES(sp)
    80000134:	e8aa                	sd	a0,80(sp)
  SREG x11, 11*REGBYTES(sp)
    80000136:	ecae                	sd	a1,88(sp)
  SREG x12, 12*REGBYTES(sp)
    80000138:	f0b2                	sd	a2,96(sp)
  SREG x13, 13*REGBYTES(sp)
    8000013a:	f4b6                	sd	a3,104(sp)
  SREG x14, 14*REGBYTES(sp)
    8000013c:	f8ba                	sd	a4,112(sp)
  SREG x15, 15*REGBYTES(sp)
    8000013e:	fcbe                	sd	a5,120(sp)
  SREG x16, 16*REGBYTES(sp)
    80000140:	e142                	sd	a6,128(sp)
  SREG x17, 17*REGBYTES(sp)
    80000142:	e546                	sd	a7,136(sp)
  SREG x18, 18*REGBYTES(sp)
    80000144:	e94a                	sd	s2,144(sp)
  SREG x19, 19*REGBYTES(sp)
    80000146:	ed4e                	sd	s3,152(sp)
  SREG x20, 20*REGBYTES(sp)
    80000148:	f152                	sd	s4,160(sp)
  SREG x21, 21*REGBYTES(sp)
    8000014a:	f556                	sd	s5,168(sp)
  SREG x22, 22*REGBYTES(sp)
    8000014c:	f95a                	sd	s6,176(sp)
  SREG x23, 23*REGBYTES(sp)
    8000014e:	fd5e                	sd	s7,184(sp)
  SREG x24, 24*REGBYTES(sp)
    80000150:	e1e2                	sd	s8,192(sp)
  SREG x25, 25*REGBYTES(sp)
    80000152:	e5e6                	sd	s9,200(sp)
  SREG x26, 26*REGBYTES(sp)
    80000154:	e9ea                	sd	s10,208(sp)
  SREG x27, 27*REGBYTES(sp)
    80000156:	edee                	sd	s11,216(sp)
  SREG x28, 28*REGBYTES(sp)
    80000158:	f1f2                	sd	t3,224(sp)
  SREG x29, 29*REGBYTES(sp)
    8000015a:	f5f6                	sd	t4,232(sp)
  SREG x30, 30*REGBYTES(sp)
    8000015c:	f9fa                	sd	t5,240(sp)
  SREG x31, 31*REGBYTES(sp)
    8000015e:	fdfe                	sd	t6,248(sp)

  csrr a0, mcause
    80000160:	34202573          	csrr	a0,mcause
  csrr a1, mepc
    80000164:	341025f3          	csrr	a1,mepc
  mv a2, sp
    80000168:	860a                	mv	a2,sp
  jal handle_trap
    8000016a:	3b5000ef          	jal	80000d1e <handle_trap>
  csrw mepc, a0
    8000016e:	34151073          	csrw	mepc,a0

  # Remain in M-mode after eret
  li t0, MSTATUS_MPP
    80000172:	6289                	lui	t0,0x2
    80000174:	8002829b          	addiw	t0,t0,-2048 # 1800 <threadsense.3+0x17fc>
  csrs mstatus, t0
    80000178:	3002a073          	csrs	mstatus,t0

  LREG x1, 1*REGBYTES(sp)
    8000017c:	60a2                	ld	ra,8(sp)
  LREG x2, 2*REGBYTES(sp)
    8000017e:	6142                	ld	sp,16(sp)
  LREG x3, 3*REGBYTES(sp)
    80000180:	61e2                	ld	gp,24(sp)
  LREG x4, 4*REGBYTES(sp)
    80000182:	7202                	ld	tp,32(sp)
  LREG x5, 5*REGBYTES(sp)
    80000184:	72a2                	ld	t0,40(sp)
  LREG x6, 6*REGBYTES(sp)
    80000186:	7342                	ld	t1,48(sp)
  LREG x7, 7*REGBYTES(sp)
    80000188:	73e2                	ld	t2,56(sp)
  LREG x8, 8*REGBYTES(sp)
    8000018a:	6406                	ld	s0,64(sp)
  LREG x9, 9*REGBYTES(sp)
    8000018c:	64a6                	ld	s1,72(sp)
  LREG x10, 10*REGBYTES(sp)
    8000018e:	6546                	ld	a0,80(sp)
  LREG x11, 11*REGBYTES(sp)
    80000190:	65e6                	ld	a1,88(sp)
  LREG x12, 12*REGBYTES(sp)
    80000192:	7606                	ld	a2,96(sp)
  LREG x13, 13*REGBYTES(sp)
    80000194:	76a6                	ld	a3,104(sp)
  LREG x14, 14*REGBYTES(sp)
    80000196:	7746                	ld	a4,112(sp)
  LREG x15, 15*REGBYTES(sp)
    80000198:	77e6                	ld	a5,120(sp)
  LREG x16, 16*REGBYTES(sp)
    8000019a:	680a                	ld	a6,128(sp)
  LREG x17, 17*REGBYTES(sp)
    8000019c:	68aa                	ld	a7,136(sp)
  LREG x18, 18*REGBYTES(sp)
    8000019e:	694a                	ld	s2,144(sp)
  LREG x19, 19*REGBYTES(sp)
    800001a0:	69ea                	ld	s3,152(sp)
  LREG x20, 20*REGBYTES(sp)
    800001a2:	7a0a                	ld	s4,160(sp)
  LREG x21, 21*REGBYTES(sp)
    800001a4:	7aaa                	ld	s5,168(sp)
  LREG x22, 22*REGBYTES(sp)
    800001a6:	7b4a                	ld	s6,176(sp)
  LREG x23, 23*REGBYTES(sp)
    800001a8:	7bea                	ld	s7,184(sp)
  LREG x24, 24*REGBYTES(sp)
    800001aa:	6c0e                	ld	s8,192(sp)
  LREG x25, 25*REGBYTES(sp)
    800001ac:	6cae                	ld	s9,200(sp)
  LREG x26, 26*REGBYTES(sp)
    800001ae:	6d4e                	ld	s10,208(sp)
  LREG x27, 27*REGBYTES(sp)
    800001b0:	6dee                	ld	s11,216(sp)
  LREG x28, 28*REGBYTES(sp)
    800001b2:	7e0e                	ld	t3,224(sp)
  LREG x29, 29*REGBYTES(sp)
    800001b4:	7eae                	ld	t4,232(sp)
  LREG x30, 30*REGBYTES(sp)
    800001b6:	7f4e                	ld	t5,240(sp)
  LREG x31, 31*REGBYTES(sp)
    800001b8:	7fee                	ld	t6,248(sp)

  addi sp, sp, 272
    800001ba:	6151                	addi	sp,sp,272
  mret
    800001bc:	30200073          	mret
	...

Disassembly of section .text:

00000000800001c2 <verify>:
#include <stdint.h>

#define static_assert(cond) switch(0) { case 0: case !!(long)(cond): ; }

static int verify(int n, const volatile int* test, const int* verify)
{
    800001c2:	715d                	addi	sp,sp,-80
    800001c4:	e486                	sd	ra,72(sp)
    800001c6:	e0a2                	sd	s0,64(sp)
    800001c8:	0880                	addi	s0,sp,80
    800001ca:	87aa                	mv	a5,a0
    800001cc:	fcb43023          	sd	a1,-64(s0)
    800001d0:	fac43c23          	sd	a2,-72(s0)
    800001d4:	fcf42623          	sw	a5,-52(s0)
  int i;
  // Unrolled for faster verification
  for (i = 0; i < n/2*2; i+=2)
    800001d8:	fe042623          	sw	zero,-20(s0)
    800001dc:	a841                	j	8000026c <verify+0xaa>
  {
    int t0 = test[i], t1 = test[i+1];
    800001de:	fec42783          	lw	a5,-20(s0)
    800001e2:	078a                	slli	a5,a5,0x2
    800001e4:	fc043703          	ld	a4,-64(s0)
    800001e8:	97ba                	add	a5,a5,a4
    800001ea:	439c                	lw	a5,0(a5)
    800001ec:	fef42423          	sw	a5,-24(s0)
    800001f0:	fec42783          	lw	a5,-20(s0)
    800001f4:	0785                	addi	a5,a5,1
    800001f6:	078a                	slli	a5,a5,0x2
    800001f8:	fc043703          	ld	a4,-64(s0)
    800001fc:	97ba                	add	a5,a5,a4
    800001fe:	439c                	lw	a5,0(a5)
    80000200:	fef42223          	sw	a5,-28(s0)
    int v0 = verify[i], v1 = verify[i+1];
    80000204:	fec42783          	lw	a5,-20(s0)
    80000208:	078a                	slli	a5,a5,0x2
    8000020a:	fb843703          	ld	a4,-72(s0)
    8000020e:	97ba                	add	a5,a5,a4
    80000210:	439c                	lw	a5,0(a5)
    80000212:	fef42023          	sw	a5,-32(s0)
    80000216:	fec42783          	lw	a5,-20(s0)
    8000021a:	0785                	addi	a5,a5,1
    8000021c:	078a                	slli	a5,a5,0x2
    8000021e:	fb843703          	ld	a4,-72(s0)
    80000222:	97ba                	add	a5,a5,a4
    80000224:	439c                	lw	a5,0(a5)
    80000226:	fcf42e23          	sw	a5,-36(s0)
    if (t0 != v0) return i+1;
    8000022a:	fe842783          	lw	a5,-24(s0)
    8000022e:	873e                	mv	a4,a5
    80000230:	fe042783          	lw	a5,-32(s0)
    80000234:	2701                	sext.w	a4,a4
    80000236:	2781                	sext.w	a5,a5
    80000238:	00f70763          	beq	a4,a5,80000246 <verify+0x84>
    8000023c:	fec42783          	lw	a5,-20(s0)
    80000240:	2785                	addiw	a5,a5,1
    80000242:	2781                	sext.w	a5,a5
    80000244:	a049                	j	800002c6 <verify+0x104>
    if (t1 != v1) return i+2;
    80000246:	fe442783          	lw	a5,-28(s0)
    8000024a:	873e                	mv	a4,a5
    8000024c:	fdc42783          	lw	a5,-36(s0)
    80000250:	2701                	sext.w	a4,a4
    80000252:	2781                	sext.w	a5,a5
    80000254:	00f70763          	beq	a4,a5,80000262 <verify+0xa0>
    80000258:	fec42783          	lw	a5,-20(s0)
    8000025c:	2789                	addiw	a5,a5,2
    8000025e:	2781                	sext.w	a5,a5
    80000260:	a09d                	j	800002c6 <verify+0x104>
  for (i = 0; i < n/2*2; i+=2)
    80000262:	fec42783          	lw	a5,-20(s0)
    80000266:	2789                	addiw	a5,a5,2
    80000268:	fef42623          	sw	a5,-20(s0)
    8000026c:	fcc42783          	lw	a5,-52(s0)
    80000270:	01f7d71b          	srliw	a4,a5,0x1f
    80000274:	9fb9                	addw	a5,a5,a4
    80000276:	4017d79b          	sraiw	a5,a5,0x1
    8000027a:	2781                	sext.w	a5,a5
    8000027c:	0017979b          	slliw	a5,a5,0x1
    80000280:	2781                	sext.w	a5,a5
    80000282:	fec42703          	lw	a4,-20(s0)
    80000286:	2701                	sext.w	a4,a4
    80000288:	f4f74be3          	blt	a4,a5,800001de <verify+0x1c>
  }
  if (n % 2 != 0 && test[n-1] != verify[n-1])
    8000028c:	fcc42783          	lw	a5,-52(s0)
    80000290:	8b85                	andi	a5,a5,1
    80000292:	2781                	sext.w	a5,a5
    80000294:	cb85                	beqz	a5,800002c4 <verify+0x102>
    80000296:	fcc42783          	lw	a5,-52(s0)
    8000029a:	078a                	slli	a5,a5,0x2
    8000029c:	17f1                	addi	a5,a5,-4
    8000029e:	fc043703          	ld	a4,-64(s0)
    800002a2:	97ba                	add	a5,a5,a4
    800002a4:	439c                	lw	a5,0(a5)
    800002a6:	0007871b          	sext.w	a4,a5
    800002aa:	fcc42783          	lw	a5,-52(s0)
    800002ae:	078a                	slli	a5,a5,0x2
    800002b0:	17f1                	addi	a5,a5,-4
    800002b2:	fb843683          	ld	a3,-72(s0)
    800002b6:	97b6                	add	a5,a5,a3
    800002b8:	439c                	lw	a5,0(a5)
    800002ba:	00f70563          	beq	a4,a5,800002c4 <verify+0x102>
    return n;
    800002be:	fcc42783          	lw	a5,-52(s0)
    800002c2:	a011                	j	800002c6 <verify+0x104>
  return 0;
    800002c4:	4781                	li	a5,0
}
    800002c6:	853e                	mv	a0,a5
    800002c8:	60a6                	ld	ra,72(sp)
    800002ca:	6406                	ld	s0,64(sp)
    800002cc:	6161                	addi	sp,sp,80
    800002ce:	8082                	ret

00000000800002d0 <verifyDouble>:

static int verifyDouble(int n, const volatile double* test, const double* verify)
{
    800002d0:	711d                	addi	sp,sp,-96
    800002d2:	ec86                	sd	ra,88(sp)
    800002d4:	e8a2                	sd	s0,80(sp)
    800002d6:	1080                	addi	s0,sp,96
    800002d8:	87aa                	mv	a5,a0
    800002da:	fab43823          	sd	a1,-80(s0)
    800002de:	fac43423          	sd	a2,-88(s0)
    800002e2:	faf42e23          	sw	a5,-68(s0)
  int i;
  // Unrolled for faster verification
  for (i = 0; i < n/2*2; i+=2)
    800002e6:	fe042623          	sw	zero,-20(s0)
    800002ea:	a04d                	j	8000038c <verifyDouble+0xbc>
  {
    double t0 = test[i], t1 = test[i+1];
    800002ec:	fec42783          	lw	a5,-20(s0)
    800002f0:	078e                	slli	a5,a5,0x3
    800002f2:	fb043703          	ld	a4,-80(s0)
    800002f6:	97ba                	add	a5,a5,a4
    800002f8:	239c                	fld	fa5,0(a5)
    800002fa:	fef43027          	fsd	fa5,-32(s0)
    800002fe:	fec42783          	lw	a5,-20(s0)
    80000302:	0785                	addi	a5,a5,1
    80000304:	078e                	slli	a5,a5,0x3
    80000306:	fb043703          	ld	a4,-80(s0)
    8000030a:	97ba                	add	a5,a5,a4
    8000030c:	239c                	fld	fa5,0(a5)
    8000030e:	fcf43c27          	fsd	fa5,-40(s0)
    double v0 = verify[i], v1 = verify[i+1];
    80000312:	fec42783          	lw	a5,-20(s0)
    80000316:	078e                	slli	a5,a5,0x3
    80000318:	fa843703          	ld	a4,-88(s0)
    8000031c:	97ba                	add	a5,a5,a4
    8000031e:	239c                	fld	fa5,0(a5)
    80000320:	fcf43827          	fsd	fa5,-48(s0)
    80000324:	fec42783          	lw	a5,-20(s0)
    80000328:	0785                	addi	a5,a5,1
    8000032a:	078e                	slli	a5,a5,0x3
    8000032c:	fa843703          	ld	a4,-88(s0)
    80000330:	97ba                	add	a5,a5,a4
    80000332:	239c                	fld	fa5,0(a5)
    80000334:	fcf43427          	fsd	fa5,-56(s0)
    int eq1 = t0 == v0, eq2 = t1 == v1;
    80000338:	fe043707          	fld	fa4,-32(s0)
    8000033c:	fd043787          	fld	fa5,-48(s0)
    80000340:	a2f727d3          	feq.d	a5,fa4,fa5
    80000344:	0ff7f793          	zext.b	a5,a5
    80000348:	fcf42223          	sw	a5,-60(s0)
    8000034c:	fd843707          	fld	fa4,-40(s0)
    80000350:	fc843787          	fld	fa5,-56(s0)
    80000354:	a2f727d3          	feq.d	a5,fa4,fa5
    80000358:	0ff7f793          	zext.b	a5,a5
    8000035c:	fcf42023          	sw	a5,-64(s0)
    if (!(eq1 & eq2)) return i+1+eq1;
    80000360:	fc442783          	lw	a5,-60(s0)
    80000364:	873e                	mv	a4,a5
    80000366:	fc042783          	lw	a5,-64(s0)
    8000036a:	8ff9                	and	a5,a5,a4
    8000036c:	2781                	sext.w	a5,a5
    8000036e:	eb91                	bnez	a5,80000382 <verifyDouble+0xb2>
    80000370:	fec42783          	lw	a5,-20(s0)
    80000374:	2785                	addiw	a5,a5,1
    80000376:	2781                	sext.w	a5,a5
    80000378:	fc442703          	lw	a4,-60(s0)
    8000037c:	9fb9                	addw	a5,a5,a4
    8000037e:	2781                	sext.w	a5,a5
    80000380:	a095                	j	800003e4 <verifyDouble+0x114>
  for (i = 0; i < n/2*2; i+=2)
    80000382:	fec42783          	lw	a5,-20(s0)
    80000386:	2789                	addiw	a5,a5,2
    80000388:	fef42623          	sw	a5,-20(s0)
    8000038c:	fbc42783          	lw	a5,-68(s0)
    80000390:	01f7d71b          	srliw	a4,a5,0x1f
    80000394:	9fb9                	addw	a5,a5,a4
    80000396:	4017d79b          	sraiw	a5,a5,0x1
    8000039a:	2781                	sext.w	a5,a5
    8000039c:	0017979b          	slliw	a5,a5,0x1
    800003a0:	2781                	sext.w	a5,a5
    800003a2:	fec42703          	lw	a4,-20(s0)
    800003a6:	2701                	sext.w	a4,a4
    800003a8:	f4f742e3          	blt	a4,a5,800002ec <verifyDouble+0x1c>
  }
  if (n % 2 != 0 && test[n-1] != verify[n-1])
    800003ac:	fbc42783          	lw	a5,-68(s0)
    800003b0:	8b85                	andi	a5,a5,1
    800003b2:	2781                	sext.w	a5,a5
    800003b4:	c79d                	beqz	a5,800003e2 <verifyDouble+0x112>
    800003b6:	fbc42783          	lw	a5,-68(s0)
    800003ba:	078e                	slli	a5,a5,0x3
    800003bc:	17e1                	addi	a5,a5,-8
    800003be:	fb043703          	ld	a4,-80(s0)
    800003c2:	97ba                	add	a5,a5,a4
    800003c4:	2398                	fld	fa4,0(a5)
    800003c6:	fbc42783          	lw	a5,-68(s0)
    800003ca:	078e                	slli	a5,a5,0x3
    800003cc:	17e1                	addi	a5,a5,-8
    800003ce:	fa843703          	ld	a4,-88(s0)
    800003d2:	97ba                	add	a5,a5,a4
    800003d4:	239c                	fld	fa5,0(a5)
    800003d6:	a2f727d3          	feq.d	a5,fa4,fa5
    800003da:	e781                	bnez	a5,800003e2 <verifyDouble+0x112>
    return n;
    800003dc:	fbc42783          	lw	a5,-68(s0)
    800003e0:	a011                	j	800003e4 <verifyDouble+0x114>
  return 0;
    800003e2:	4781                	li	a5,0
}
    800003e4:	853e                	mv	a0,a5
    800003e6:	60e6                	ld	ra,88(sp)
    800003e8:	6446                	ld	s0,80(sp)
    800003ea:	6125                	addi	sp,sp,96
    800003ec:	8082                	ret

00000000800003ee <barrier>:

static void __attribute__((noinline)) barrier(int ncores)
{
    800003ee:	1101                	addi	sp,sp,-32
    800003f0:	ec06                	sd	ra,24(sp)
    800003f2:	e822                	sd	s0,16(sp)
    800003f4:	1000                	addi	s0,sp,32
    800003f6:	87aa                	mv	a5,a0
    800003f8:	fef42623          	sw	a5,-20(s0)
  static volatile int sense;
  static volatile int count;
  static __thread int threadsense;

  __sync_synchronize();
    800003fc:	0330000f          	fence	rw,rw

  threadsense = !threadsense;
    80000400:	00022783          	lw	a5,0(tp) # 0 <threadsense.2>
    80000404:	0017b793          	seqz	a5,a5
    80000408:	0ff7f793          	zext.b	a5,a5
    8000040c:	0007871b          	sext.w	a4,a5
    80000410:	00e22023          	sw	a4,0(tp) # 0 <threadsense.2>
  if (__sync_fetch_and_add(&count, 1) == ncores-1)
    80000414:	00002797          	auipc	a5,0x2
    80000418:	c3478793          	addi	a5,a5,-972 # 80002048 <count.1>
    8000041c:	4705                	li	a4,1
    8000041e:	06e7a6af          	amoadd.w.aqrl	a3,a4,(a5)
    80000422:	0006879b          	sext.w	a5,a3
    80000426:	873e                	mv	a4,a5
    80000428:	fec42783          	lw	a5,-20(s0)
    8000042c:	37fd                	addiw	a5,a5,-1
    8000042e:	2781                	sext.w	a5,a5
    80000430:	02f71063          	bne	a4,a5,80000450 <barrier+0x62>
  {
    count = 0;
    80000434:	00002797          	auipc	a5,0x2
    80000438:	c1478793          	addi	a5,a5,-1004 # 80002048 <count.1>
    8000043c:	0007a023          	sw	zero,0(a5)
    sense = threadsense;
    80000440:	00022703          	lw	a4,0(tp) # 0 <threadsense.2>
    80000444:	00002797          	auipc	a5,0x2
    80000448:	c0878793          	addi	a5,a5,-1016 # 8000204c <sense.0>
    8000044c:	c398                	sw	a4,0(a5)
    8000044e:	a829                	j	80000468 <barrier+0x7a>
  }
  else while(sense != threadsense)
    80000450:	0001                	nop
    80000452:	00002797          	auipc	a5,0x2
    80000456:	bfa78793          	addi	a5,a5,-1030 # 8000204c <sense.0>
    8000045a:	439c                	lw	a5,0(a5)
    8000045c:	0007871b          	sext.w	a4,a5
    80000460:	00022783          	lw	a5,0(tp) # 0 <threadsense.2>
    80000464:	fef717e3          	bne	a4,a5,80000452 <barrier+0x64>
    ;

  __sync_synchronize();
    80000468:	0330000f          	fence	rw,rw
}
    8000046c:	0001                	nop
    8000046e:	60e2                	ld	ra,24(sp)
    80000470:	6442                	ld	s0,16(sp)
    80000472:	6105                	addi	sp,sp,32
    80000474:	8082                	ret

0000000080000476 <lfsr>:

static uint64_t lfsr(uint64_t x)
{
    80000476:	7179                	addi	sp,sp,-48
    80000478:	f406                	sd	ra,40(sp)
    8000047a:	f022                	sd	s0,32(sp)
    8000047c:	1800                	addi	s0,sp,48
    8000047e:	fca43c23          	sd	a0,-40(s0)
  uint64_t bit = (x ^ (x >> 1)) & 1;
    80000482:	fd843783          	ld	a5,-40(s0)
    80000486:	0017d713          	srli	a4,a5,0x1
    8000048a:	fd843783          	ld	a5,-40(s0)
    8000048e:	8fb9                	xor	a5,a5,a4
    80000490:	8b85                	andi	a5,a5,1
    80000492:	fef43423          	sd	a5,-24(s0)
  return (x >> 1) | (bit << 62);
    80000496:	fd843783          	ld	a5,-40(s0)
    8000049a:	0017d713          	srli	a4,a5,0x1
    8000049e:	fe843783          	ld	a5,-24(s0)
    800004a2:	17fa                	slli	a5,a5,0x3e
    800004a4:	8fd9                	or	a5,a5,a4
}
    800004a6:	853e                	mv	a0,a5
    800004a8:	70a2                	ld	ra,40(sp)
    800004aa:	7402                	ld	s0,32(sp)
    800004ac:	6145                	addi	sp,sp,48
    800004ae:	8082                	ret

00000000800004b0 <insn_len>:

static uintptr_t insn_len(uintptr_t pc)
{
    800004b0:	1101                	addi	sp,sp,-32
    800004b2:	ec06                	sd	ra,24(sp)
    800004b4:	e822                	sd	s0,16(sp)
    800004b6:	1000                	addi	s0,sp,32
    800004b8:	fea43423          	sd	a0,-24(s0)
  return (*(unsigned short*)pc & 3) ? 4 : 2;
    800004bc:	fe843783          	ld	a5,-24(s0)
    800004c0:	0007d783          	lhu	a5,0(a5)
    800004c4:	2781                	sext.w	a5,a5
    800004c6:	8b8d                	andi	a5,a5,3
    800004c8:	2781                	sext.w	a5,a5
    800004ca:	c399                	beqz	a5,800004d0 <insn_len+0x20>
    800004cc:	4791                	li	a5,4
    800004ce:	a011                	j	800004d2 <insn_len+0x22>
    800004d0:	4789                	li	a5,2
}
    800004d2:	853e                	mv	a0,a5
    800004d4:	60e2                	ld	ra,24(sp)
    800004d6:	6442                	ld	s0,16(sp)
    800004d8:	6105                	addi	sp,sp,32
    800004da:	8082                	ret

00000000800004dc <add_q31>:
#include <stdio.h>  // supports printf
#include "util.h"   // supports verify

// Add two Q1.31 fixed point numbers
int add_q31(int a, int b) {
    800004dc:	1101                	addi	sp,sp,-32
    800004de:	ec06                	sd	ra,24(sp)
    800004e0:	e822                	sd	s0,16(sp)
    800004e2:	1000                	addi	s0,sp,32
    800004e4:	87aa                	mv	a5,a0
    800004e6:	872e                	mv	a4,a1
    800004e8:	fef42623          	sw	a5,-20(s0)
    800004ec:	87ba                	mv	a5,a4
    800004ee:	fef42423          	sw	a5,-24(s0)
  return a+b;
    800004f2:	fec42783          	lw	a5,-20(s0)
    800004f6:	873e                	mv	a4,a5
    800004f8:	fe842783          	lw	a5,-24(s0)
    800004fc:	9fb9                	addw	a5,a5,a4
    800004fe:	2781                	sext.w	a5,a5
}
    80000500:	853e                	mv	a0,a5
    80000502:	60e2                	ld	ra,24(sp)
    80000504:	6442                	ld	s0,16(sp)
    80000506:	6105                	addi	sp,sp,32
    80000508:	8082                	ret

000000008000050a <mul_q31>:

// Multiplly two Q1.31 fixed point numbers
int mul_q31(int a, int b) {
    8000050a:	7179                	addi	sp,sp,-48
    8000050c:	f406                	sd	ra,40(sp)
    8000050e:	f022                	sd	s0,32(sp)
    80000510:	1800                	addi	s0,sp,48
    80000512:	87aa                	mv	a5,a0
    80000514:	872e                	mv	a4,a1
    80000516:	fcf42e23          	sw	a5,-36(s0)
    8000051a:	87ba                	mv	a5,a4
    8000051c:	fcf42c23          	sw	a5,-40(s0)
  long res = (long)a * (long)b;
    80000520:	fdc42703          	lw	a4,-36(s0)
    80000524:	fd842783          	lw	a5,-40(s0)
    80000528:	02f707b3          	mul	a5,a4,a5
    8000052c:	fef43423          	sd	a5,-24(s0)
    int result = res >> 31; // shift right to get the 32-bit result; 
    80000530:	fe843783          	ld	a5,-24(s0)
    80000534:	87fd                	srai	a5,a5,0x1f
    80000536:	fef42223          	sw	a5,-28(s0)
        //this is equivalent to shifting left by 1 and discarding the bottom 32 bits
    //printf("mul_q31: a = %x, b = %x, res = %lx, result = %x\n", a, b, res, result);
    return result; 
    8000053a:	fe442783          	lw	a5,-28(s0)
}
    8000053e:	853e                	mv	a0,a5
    80000540:	70a2                	ld	ra,40(sp)
    80000542:	7402                	ld	s0,32(sp)
    80000544:	6145                	addi	sp,sp,48
    80000546:	8082                	ret

0000000080000548 <fir>:

// low pass filter x with coefficients c, result in y
// n is the length of x, m is the length of c
// y[i] = c[0]*x[i] + c[1]*x[i+1] + ... + c[m-1]*x[i+m-1]
// inputs in Q1.31 format
void fir(int x[], int c[], int y[], int n, int m) {
    80000548:	715d                	addi	sp,sp,-80
    8000054a:	e486                	sd	ra,72(sp)
    8000054c:	e0a2                	sd	s0,64(sp)
    8000054e:	fc26                	sd	s1,56(sp)
    80000550:	f84a                	sd	s2,48(sp)
    80000552:	0880                	addi	s0,sp,80
    80000554:	fca43423          	sd	a0,-56(s0)
    80000558:	fcb43023          	sd	a1,-64(s0)
    8000055c:	fac43c23          	sd	a2,-72(s0)
    80000560:	87b6                	mv	a5,a3
    80000562:	faf42a23          	sw	a5,-76(s0)
    80000566:	87ba                	mv	a5,a4
    80000568:	faf42823          	sw	a5,-80(s0)
    int i, j;
    for (j=0; j<n-m+1; j++) {
    8000056c:	fc042c23          	sw	zero,-40(s0)
    80000570:	a06d                	j	8000061a <fir+0xd2>
        y[j] = 0;
    80000572:	fd842783          	lw	a5,-40(s0)
    80000576:	078a                	slli	a5,a5,0x2
    80000578:	fb843703          	ld	a4,-72(s0)
    8000057c:	97ba                	add	a5,a5,a4
    8000057e:	0007a023          	sw	zero,0(a5)
        for (i=0; i<m; i++) 
    80000582:	fc042e23          	sw	zero,-36(s0)
    80000586:	a8a5                	j	800005fe <fir+0xb6>
            y[j] = add_q31(y[j], mul_q31(c[i], x[j-i+(m-1)]));
    80000588:	fd842783          	lw	a5,-40(s0)
    8000058c:	078a                	slli	a5,a5,0x2
    8000058e:	fb843703          	ld	a4,-72(s0)
    80000592:	97ba                	add	a5,a5,a4
    80000594:	0007a903          	lw	s2,0(a5)
    80000598:	fdc42783          	lw	a5,-36(s0)
    8000059c:	078a                	slli	a5,a5,0x2
    8000059e:	fc043703          	ld	a4,-64(s0)
    800005a2:	97ba                	add	a5,a5,a4
    800005a4:	4394                	lw	a3,0(a5)
    800005a6:	fd842783          	lw	a5,-40(s0)
    800005aa:	873e                	mv	a4,a5
    800005ac:	fdc42783          	lw	a5,-36(s0)
    800005b0:	40f707bb          	subw	a5,a4,a5
    800005b4:	0007871b          	sext.w	a4,a5
    800005b8:	fb042783          	lw	a5,-80(s0)
    800005bc:	37fd                	addiw	a5,a5,-1
    800005be:	2781                	sext.w	a5,a5
    800005c0:	9fb9                	addw	a5,a5,a4
    800005c2:	2781                	sext.w	a5,a5
    800005c4:	078a                	slli	a5,a5,0x2
    800005c6:	fc843703          	ld	a4,-56(s0)
    800005ca:	97ba                	add	a5,a5,a4
    800005cc:	439c                	lw	a5,0(a5)
    800005ce:	85be                	mv	a1,a5
    800005d0:	8536                	mv	a0,a3
    800005d2:	f39ff0ef          	jal	8000050a <mul_q31>
    800005d6:	87aa                	mv	a5,a0
    800005d8:	86be                	mv	a3,a5
    800005da:	fd842783          	lw	a5,-40(s0)
    800005de:	078a                	slli	a5,a5,0x2
    800005e0:	fb843703          	ld	a4,-72(s0)
    800005e4:	00f704b3          	add	s1,a4,a5
    800005e8:	85b6                	mv	a1,a3
    800005ea:	854a                	mv	a0,s2
    800005ec:	ef1ff0ef          	jal	800004dc <add_q31>
    800005f0:	87aa                	mv	a5,a0
    800005f2:	c09c                	sw	a5,0(s1)
        for (i=0; i<m; i++) 
    800005f4:	fdc42783          	lw	a5,-36(s0)
    800005f8:	2785                	addiw	a5,a5,1
    800005fa:	fcf42e23          	sw	a5,-36(s0)
    800005fe:	fdc42783          	lw	a5,-36(s0)
    80000602:	873e                	mv	a4,a5
    80000604:	fb042783          	lw	a5,-80(s0)
    80000608:	2701                	sext.w	a4,a4
    8000060a:	2781                	sext.w	a5,a5
    8000060c:	f6f74ee3          	blt	a4,a5,80000588 <fir+0x40>
    for (j=0; j<n-m+1; j++) {
    80000610:	fd842783          	lw	a5,-40(s0)
    80000614:	2785                	addiw	a5,a5,1
    80000616:	fcf42c23          	sw	a5,-40(s0)
    8000061a:	fb442783          	lw	a5,-76(s0)
    8000061e:	873e                	mv	a4,a5
    80000620:	fb042783          	lw	a5,-80(s0)
    80000624:	40f707bb          	subw	a5,a4,a5
    80000628:	2781                	sext.w	a5,a5
    8000062a:	fd842703          	lw	a4,-40(s0)
    8000062e:	2701                	sext.w	a4,a4
    80000630:	f4e7d1e3          	bge	a5,a4,80000572 <fir+0x2a>
    }
}
    80000634:	0001                	nop
    80000636:	0001                	nop
    80000638:	60a6                	ld	ra,72(sp)
    8000063a:	6406                	ld	s0,64(sp)
    8000063c:	74e2                	ld	s1,56(sp)
    8000063e:	7942                	ld	s2,48(sp)
    80000640:	6161                	addi	sp,sp,80
    80000642:	8082                	ret

0000000080000644 <main>:

int main(void) {
    80000644:	716d                	addi	sp,sp,-272
    80000646:	e606                	sd	ra,264(sp)
    80000648:	e222                	sd	s0,256(sp)
    8000064a:	0a00                	addi	s0,sp,272
    int32_t sin_table[20] = { // in Q1.31 format
    8000064c:	00001797          	auipc	a5,0x1
    80000650:	40478793          	addi	a5,a5,1028 # 80001a50 <atol+0xf2>
    80000654:	0007be03          	ld	t3,0(a5)
    80000658:	0087b303          	ld	t1,8(a5)
    8000065c:	0107b883          	ld	a7,16(a5)
    80000660:	0187b803          	ld	a6,24(a5)
    80000664:	7388                	ld	a0,32(a5)
    80000666:	778c                	ld	a1,40(a5)
    80000668:	7b90                	ld	a2,48(a5)
    8000066a:	7f94                	ld	a3,56(a5)
    8000066c:	63b8                	ld	a4,64(a5)
    8000066e:	67bc                	ld	a5,72(a5)
    80000670:	f9c43c23          	sd	t3,-104(s0)
    80000674:	fa643023          	sd	t1,-96(s0)
    80000678:	fb143423          	sd	a7,-88(s0)
    8000067c:	fb043823          	sd	a6,-80(s0)
    80000680:	faa43c23          	sd	a0,-72(s0)
    80000684:	fcb43023          	sd	a1,-64(s0)
    80000688:	fcc43423          	sd	a2,-56(s0)
    8000068c:	fcd43823          	sd	a3,-48(s0)
    80000690:	fce43c23          	sd	a4,-40(s0)
    80000694:	fef43023          	sd	a5,-32(s0)
        0xB4C373EE, // sin(16*2pi/10)
        0x8643C7B3, // sin(17*2pi/10)
        0x8643C7B3, // sin(18*2pi/10)
        0xB4C373EE  // sin(19*2pi/10)
    };  
    int lowpass[4] = {0x20000001, 0x20000002, 0x20000003, 0x20000004}; // 1/4 in Q1.31 format
    80000698:	00001797          	auipc	a5,0x1
    8000069c:	40878793          	addi	a5,a5,1032 # 80001aa0 <atol+0x142>
    800006a0:	6398                	ld	a4,0(a5)
    800006a2:	f8e43423          	sd	a4,-120(s0)
    800006a6:	679c                	ld	a5,8(a5)
    800006a8:	f8f43823          	sd	a5,-112(s0)
    int y[17];
    int expected[17] = { // in Q1.31 format
    800006ac:	00001797          	auipc	a5,0x1
    800006b0:	40478793          	addi	a5,a5,1028 # 80001ab0 <atol+0x152>
    800006b4:	0007b303          	ld	t1,0(a5)
    800006b8:	0087b883          	ld	a7,8(a5)
    800006bc:	0107b803          	ld	a6,16(a5)
    800006c0:	6f88                	ld	a0,24(a5)
    800006c2:	738c                	ld	a1,32(a5)
    800006c4:	7790                	ld	a2,40(a5)
    800006c6:	7b94                	ld	a3,48(a5)
    800006c8:	7f98                	ld	a4,56(a5)
    800006ca:	ee643c23          	sd	t1,-264(s0)
    800006ce:	f1143023          	sd	a7,-256(s0)
    800006d2:	f1043423          	sd	a6,-248(s0)
    800006d6:	f0a43823          	sd	a0,-240(s0)
    800006da:	f0b43c23          	sd	a1,-232(s0)
    800006de:	f2c43023          	sd	a2,-224(s0)
    800006e2:	f2d43423          	sd	a3,-216(s0)
    800006e6:	f2e43823          	sd	a4,-208(s0)
    800006ea:	43bc                	lw	a5,64(a5)
    800006ec:	f2f42c23          	sw	a5,-200(s0)
        0x1e6f0e17,
        0xe190f1eb,
        0xb052c0ce,
        0x9d839dc6
    };
    setStats(1);        // record initial mcycle and minstret
    800006f0:	4505                	li	a0,1
    800006f2:	4fe000ef          	jal	80000bf0 <setStats>
    fir(sin_table, lowpass, y, 20, 4);
    800006f6:	f4040613          	addi	a2,s0,-192
    800006fa:	f8840593          	addi	a1,s0,-120
    800006fe:	f9840793          	addi	a5,s0,-104
    80000702:	4711                	li	a4,4
    80000704:	46d1                	li	a3,20
    80000706:	853e                	mv	a0,a5
    80000708:	e41ff0ef          	jal	80000548 <fir>
    setStats(0);        // record elapsed mcycle and minstret
    8000070c:	4501                	li	a0,0
    8000070e:	4e2000ef          	jal	80000bf0 <setStats>
    for (int i=0; i<17; i++) {
    80000712:	fe042623          	sw	zero,-20(s0)
    80000716:	a03d                	j	80000744 <main+0x100>
        printf("y[%d] = %x\n", i, y[i]);
    80000718:	fec42703          	lw	a4,-20(s0)
    8000071c:	f4040793          	addi	a5,s0,-192
    80000720:	070a                	slli	a4,a4,0x2
    80000722:	97ba                	add	a5,a5,a4
    80000724:	4398                	lw	a4,0(a5)
    80000726:	fec42783          	lw	a5,-20(s0)
    8000072a:	863a                	mv	a2,a4
    8000072c:	85be                	mv	a1,a5
    8000072e:	00001517          	auipc	a0,0x1
    80000732:	31250513          	addi	a0,a0,786 # 80001a40 <atol+0xe2>
    80000736:	5e3000ef          	jal	80001518 <printf>
    for (int i=0; i<17; i++) {
    8000073a:	fec42783          	lw	a5,-20(s0)
    8000073e:	2785                	addiw	a5,a5,1
    80000740:	fef42623          	sw	a5,-20(s0)
    80000744:	fec42783          	lw	a5,-20(s0)
    80000748:	0007871b          	sext.w	a4,a5
    8000074c:	47c1                	li	a5,16
    8000074e:	fce7d5e3          	bge	a5,a4,80000718 <main+0xd4>
    }
    return verify(16, y, expected); 
    80000752:	ef840713          	addi	a4,s0,-264
    80000756:	f4040793          	addi	a5,s0,-192
    8000075a:	863a                	mv	a2,a4
    8000075c:	85be                	mv	a1,a5
    8000075e:	4541                	li	a0,16
    80000760:	a63ff0ef          	jal	800001c2 <verify>
    80000764:	87aa                	mv	a5,a0
// check the 1 element of s matches expected. 0 means success
}
    80000766:	853e                	mv	a0,a5
    80000768:	60b2                	ld	ra,264(sp)
    8000076a:	6412                	ld	s0,256(sp)
    8000076c:	6151                	addi	sp,sp,272
    8000076e:	8082                	ret

0000000080000770 <verify>:
#include <stdint.h>

#define static_assert(cond) switch(0) { case 0: case !!(long)(cond): ; }

static int verify(int n, const volatile int* test, const int* verify)
{
    80000770:	715d                	addi	sp,sp,-80
    80000772:	e486                	sd	ra,72(sp)
    80000774:	e0a2                	sd	s0,64(sp)
    80000776:	0880                	addi	s0,sp,80
    80000778:	87aa                	mv	a5,a0
    8000077a:	fcb43023          	sd	a1,-64(s0)
    8000077e:	fac43c23          	sd	a2,-72(s0)
    80000782:	fcf42623          	sw	a5,-52(s0)
  int i;
  // Unrolled for faster verification
  for (i = 0; i < n/2*2; i+=2)
    80000786:	fe042623          	sw	zero,-20(s0)
    8000078a:	a841                	j	8000081a <verify+0xaa>
  {
    int t0 = test[i], t1 = test[i+1];
    8000078c:	fec42783          	lw	a5,-20(s0)
    80000790:	078a                	slli	a5,a5,0x2
    80000792:	fc043703          	ld	a4,-64(s0)
    80000796:	97ba                	add	a5,a5,a4
    80000798:	439c                	lw	a5,0(a5)
    8000079a:	fef42423          	sw	a5,-24(s0)
    8000079e:	fec42783          	lw	a5,-20(s0)
    800007a2:	0785                	addi	a5,a5,1
    800007a4:	078a                	slli	a5,a5,0x2
    800007a6:	fc043703          	ld	a4,-64(s0)
    800007aa:	97ba                	add	a5,a5,a4
    800007ac:	439c                	lw	a5,0(a5)
    800007ae:	fef42223          	sw	a5,-28(s0)
    int v0 = verify[i], v1 = verify[i+1];
    800007b2:	fec42783          	lw	a5,-20(s0)
    800007b6:	078a                	slli	a5,a5,0x2
    800007b8:	fb843703          	ld	a4,-72(s0)
    800007bc:	97ba                	add	a5,a5,a4
    800007be:	439c                	lw	a5,0(a5)
    800007c0:	fef42023          	sw	a5,-32(s0)
    800007c4:	fec42783          	lw	a5,-20(s0)
    800007c8:	0785                	addi	a5,a5,1
    800007ca:	078a                	slli	a5,a5,0x2
    800007cc:	fb843703          	ld	a4,-72(s0)
    800007d0:	97ba                	add	a5,a5,a4
    800007d2:	439c                	lw	a5,0(a5)
    800007d4:	fcf42e23          	sw	a5,-36(s0)
    if (t0 != v0) return i+1;
    800007d8:	fe842783          	lw	a5,-24(s0)
    800007dc:	873e                	mv	a4,a5
    800007de:	fe042783          	lw	a5,-32(s0)
    800007e2:	2701                	sext.w	a4,a4
    800007e4:	2781                	sext.w	a5,a5
    800007e6:	00f70763          	beq	a4,a5,800007f4 <verify+0x84>
    800007ea:	fec42783          	lw	a5,-20(s0)
    800007ee:	2785                	addiw	a5,a5,1
    800007f0:	2781                	sext.w	a5,a5
    800007f2:	a049                	j	80000874 <verify+0x104>
    if (t1 != v1) return i+2;
    800007f4:	fe442783          	lw	a5,-28(s0)
    800007f8:	873e                	mv	a4,a5
    800007fa:	fdc42783          	lw	a5,-36(s0)
    800007fe:	2701                	sext.w	a4,a4
    80000800:	2781                	sext.w	a5,a5
    80000802:	00f70763          	beq	a4,a5,80000810 <verify+0xa0>
    80000806:	fec42783          	lw	a5,-20(s0)
    8000080a:	2789                	addiw	a5,a5,2
    8000080c:	2781                	sext.w	a5,a5
    8000080e:	a09d                	j	80000874 <verify+0x104>
  for (i = 0; i < n/2*2; i+=2)
    80000810:	fec42783          	lw	a5,-20(s0)
    80000814:	2789                	addiw	a5,a5,2
    80000816:	fef42623          	sw	a5,-20(s0)
    8000081a:	fcc42783          	lw	a5,-52(s0)
    8000081e:	01f7d71b          	srliw	a4,a5,0x1f
    80000822:	9fb9                	addw	a5,a5,a4
    80000824:	4017d79b          	sraiw	a5,a5,0x1
    80000828:	2781                	sext.w	a5,a5
    8000082a:	0017979b          	slliw	a5,a5,0x1
    8000082e:	2781                	sext.w	a5,a5
    80000830:	fec42703          	lw	a4,-20(s0)
    80000834:	2701                	sext.w	a4,a4
    80000836:	f4f74be3          	blt	a4,a5,8000078c <verify+0x1c>
  }
  if (n % 2 != 0 && test[n-1] != verify[n-1])
    8000083a:	fcc42783          	lw	a5,-52(s0)
    8000083e:	8b85                	andi	a5,a5,1
    80000840:	2781                	sext.w	a5,a5
    80000842:	cb85                	beqz	a5,80000872 <verify+0x102>
    80000844:	fcc42783          	lw	a5,-52(s0)
    80000848:	078a                	slli	a5,a5,0x2
    8000084a:	17f1                	addi	a5,a5,-4
    8000084c:	fc043703          	ld	a4,-64(s0)
    80000850:	97ba                	add	a5,a5,a4
    80000852:	439c                	lw	a5,0(a5)
    80000854:	0007871b          	sext.w	a4,a5
    80000858:	fcc42783          	lw	a5,-52(s0)
    8000085c:	078a                	slli	a5,a5,0x2
    8000085e:	17f1                	addi	a5,a5,-4
    80000860:	fb843683          	ld	a3,-72(s0)
    80000864:	97b6                	add	a5,a5,a3
    80000866:	439c                	lw	a5,0(a5)
    80000868:	00f70563          	beq	a4,a5,80000872 <verify+0x102>
    return n;
    8000086c:	fcc42783          	lw	a5,-52(s0)
    80000870:	a011                	j	80000874 <verify+0x104>
  return 0;
    80000872:	4781                	li	a5,0
}
    80000874:	853e                	mv	a0,a5
    80000876:	60a6                	ld	ra,72(sp)
    80000878:	6406                	ld	s0,64(sp)
    8000087a:	6161                	addi	sp,sp,80
    8000087c:	8082                	ret

000000008000087e <verifyDouble>:

static int verifyDouble(int n, const volatile double* test, const double* verify)
{
    8000087e:	711d                	addi	sp,sp,-96
    80000880:	ec86                	sd	ra,88(sp)
    80000882:	e8a2                	sd	s0,80(sp)
    80000884:	1080                	addi	s0,sp,96
    80000886:	87aa                	mv	a5,a0
    80000888:	fab43823          	sd	a1,-80(s0)
    8000088c:	fac43423          	sd	a2,-88(s0)
    80000890:	faf42e23          	sw	a5,-68(s0)
  int i;
  // Unrolled for faster verification
  for (i = 0; i < n/2*2; i+=2)
    80000894:	fe042623          	sw	zero,-20(s0)
    80000898:	a04d                	j	8000093a <verifyDouble+0xbc>
  {
    double t0 = test[i], t1 = test[i+1];
    8000089a:	fec42783          	lw	a5,-20(s0)
    8000089e:	078e                	slli	a5,a5,0x3
    800008a0:	fb043703          	ld	a4,-80(s0)
    800008a4:	97ba                	add	a5,a5,a4
    800008a6:	239c                	fld	fa5,0(a5)
    800008a8:	fef43027          	fsd	fa5,-32(s0)
    800008ac:	fec42783          	lw	a5,-20(s0)
    800008b0:	0785                	addi	a5,a5,1
    800008b2:	078e                	slli	a5,a5,0x3
    800008b4:	fb043703          	ld	a4,-80(s0)
    800008b8:	97ba                	add	a5,a5,a4
    800008ba:	239c                	fld	fa5,0(a5)
    800008bc:	fcf43c27          	fsd	fa5,-40(s0)
    double v0 = verify[i], v1 = verify[i+1];
    800008c0:	fec42783          	lw	a5,-20(s0)
    800008c4:	078e                	slli	a5,a5,0x3
    800008c6:	fa843703          	ld	a4,-88(s0)
    800008ca:	97ba                	add	a5,a5,a4
    800008cc:	239c                	fld	fa5,0(a5)
    800008ce:	fcf43827          	fsd	fa5,-48(s0)
    800008d2:	fec42783          	lw	a5,-20(s0)
    800008d6:	0785                	addi	a5,a5,1
    800008d8:	078e                	slli	a5,a5,0x3
    800008da:	fa843703          	ld	a4,-88(s0)
    800008de:	97ba                	add	a5,a5,a4
    800008e0:	239c                	fld	fa5,0(a5)
    800008e2:	fcf43427          	fsd	fa5,-56(s0)
    int eq1 = t0 == v0, eq2 = t1 == v1;
    800008e6:	fe043707          	fld	fa4,-32(s0)
    800008ea:	fd043787          	fld	fa5,-48(s0)
    800008ee:	a2f727d3          	feq.d	a5,fa4,fa5
    800008f2:	0ff7f793          	zext.b	a5,a5
    800008f6:	fcf42223          	sw	a5,-60(s0)
    800008fa:	fd843707          	fld	fa4,-40(s0)
    800008fe:	fc843787          	fld	fa5,-56(s0)
    80000902:	a2f727d3          	feq.d	a5,fa4,fa5
    80000906:	0ff7f793          	zext.b	a5,a5
    8000090a:	fcf42023          	sw	a5,-64(s0)
    if (!(eq1 & eq2)) return i+1+eq1;
    8000090e:	fc442783          	lw	a5,-60(s0)
    80000912:	873e                	mv	a4,a5
    80000914:	fc042783          	lw	a5,-64(s0)
    80000918:	8ff9                	and	a5,a5,a4
    8000091a:	2781                	sext.w	a5,a5
    8000091c:	eb91                	bnez	a5,80000930 <verifyDouble+0xb2>
    8000091e:	fec42783          	lw	a5,-20(s0)
    80000922:	2785                	addiw	a5,a5,1
    80000924:	2781                	sext.w	a5,a5
    80000926:	fc442703          	lw	a4,-60(s0)
    8000092a:	9fb9                	addw	a5,a5,a4
    8000092c:	2781                	sext.w	a5,a5
    8000092e:	a095                	j	80000992 <verifyDouble+0x114>
  for (i = 0; i < n/2*2; i+=2)
    80000930:	fec42783          	lw	a5,-20(s0)
    80000934:	2789                	addiw	a5,a5,2
    80000936:	fef42623          	sw	a5,-20(s0)
    8000093a:	fbc42783          	lw	a5,-68(s0)
    8000093e:	01f7d71b          	srliw	a4,a5,0x1f
    80000942:	9fb9                	addw	a5,a5,a4
    80000944:	4017d79b          	sraiw	a5,a5,0x1
    80000948:	2781                	sext.w	a5,a5
    8000094a:	0017979b          	slliw	a5,a5,0x1
    8000094e:	2781                	sext.w	a5,a5
    80000950:	fec42703          	lw	a4,-20(s0)
    80000954:	2701                	sext.w	a4,a4
    80000956:	f4f742e3          	blt	a4,a5,8000089a <verifyDouble+0x1c>
  }
  if (n % 2 != 0 && test[n-1] != verify[n-1])
    8000095a:	fbc42783          	lw	a5,-68(s0)
    8000095e:	8b85                	andi	a5,a5,1
    80000960:	2781                	sext.w	a5,a5
    80000962:	c79d                	beqz	a5,80000990 <verifyDouble+0x112>
    80000964:	fbc42783          	lw	a5,-68(s0)
    80000968:	078e                	slli	a5,a5,0x3
    8000096a:	17e1                	addi	a5,a5,-8
    8000096c:	fb043703          	ld	a4,-80(s0)
    80000970:	97ba                	add	a5,a5,a4
    80000972:	2398                	fld	fa4,0(a5)
    80000974:	fbc42783          	lw	a5,-68(s0)
    80000978:	078e                	slli	a5,a5,0x3
    8000097a:	17e1                	addi	a5,a5,-8
    8000097c:	fa843703          	ld	a4,-88(s0)
    80000980:	97ba                	add	a5,a5,a4
    80000982:	239c                	fld	fa5,0(a5)
    80000984:	a2f727d3          	feq.d	a5,fa4,fa5
    80000988:	e781                	bnez	a5,80000990 <verifyDouble+0x112>
    return n;
    8000098a:	fbc42783          	lw	a5,-68(s0)
    8000098e:	a011                	j	80000992 <verifyDouble+0x114>
  return 0;
    80000990:	4781                	li	a5,0
}
    80000992:	853e                	mv	a0,a5
    80000994:	60e6                	ld	ra,88(sp)
    80000996:	6446                	ld	s0,80(sp)
    80000998:	6125                	addi	sp,sp,96
    8000099a:	8082                	ret

000000008000099c <barrier>:

static void __attribute__((noinline)) barrier(int ncores)
{
    8000099c:	1101                	addi	sp,sp,-32
    8000099e:	ec06                	sd	ra,24(sp)
    800009a0:	e822                	sd	s0,16(sp)
    800009a2:	1000                	addi	s0,sp,32
    800009a4:	87aa                	mv	a5,a0
    800009a6:	fef42623          	sw	a5,-20(s0)
  static volatile int sense;
  static volatile int count;
  static __thread int threadsense;

  __sync_synchronize();
    800009aa:	0330000f          	fence	rw,rw

  threadsense = !threadsense;
    800009ae:	00422783          	lw	a5,4(tp) # 4 <threadsense.3>
    800009b2:	0017b793          	seqz	a5,a5
    800009b6:	0ff7f793          	zext.b	a5,a5
    800009ba:	0007871b          	sext.w	a4,a5
    800009be:	00e22223          	sw	a4,4(tp) # 4 <threadsense.3>
  if (__sync_fetch_and_add(&count, 1) == ncores-1)
    800009c2:	82818793          	addi	a5,gp,-2008 # 80002070 <count.2>
    800009c6:	4705                	li	a4,1
    800009c8:	06e7a6af          	amoadd.w.aqrl	a3,a4,(a5)
    800009cc:	0006879b          	sext.w	a5,a3
    800009d0:	873e                	mv	a4,a5
    800009d2:	fec42783          	lw	a5,-20(s0)
    800009d6:	37fd                	addiw	a5,a5,-1
    800009d8:	2781                	sext.w	a5,a5
    800009da:	00f71c63          	bne	a4,a5,800009f2 <barrier+0x56>
  {
    count = 0;
    800009de:	82818793          	addi	a5,gp,-2008 # 80002070 <count.2>
    800009e2:	0007a023          	sw	zero,0(a5)
    sense = threadsense;
    800009e6:	00422703          	lw	a4,4(tp) # 4 <threadsense.3>
    800009ea:	82c18793          	addi	a5,gp,-2004 # 80002074 <sense.1>
    800009ee:	c398                	sw	a4,0(a5)
    800009f0:	a819                	j	80000a06 <barrier+0x6a>
  }
  else while(sense != threadsense)
    800009f2:	0001                	nop
    800009f4:	82c18793          	addi	a5,gp,-2004 # 80002074 <sense.1>
    800009f8:	439c                	lw	a5,0(a5)
    800009fa:	0007871b          	sext.w	a4,a5
    800009fe:	00422783          	lw	a5,4(tp) # 4 <threadsense.3>
    80000a02:	fef719e3          	bne	a4,a5,800009f4 <barrier+0x58>
    ;

  __sync_synchronize();
    80000a06:	0330000f          	fence	rw,rw
}
    80000a0a:	0001                	nop
    80000a0c:	60e2                	ld	ra,24(sp)
    80000a0e:	6442                	ld	s0,16(sp)
    80000a10:	6105                	addi	sp,sp,32
    80000a12:	8082                	ret

0000000080000a14 <lfsr>:

static uint64_t lfsr(uint64_t x)
{
    80000a14:	7179                	addi	sp,sp,-48
    80000a16:	f406                	sd	ra,40(sp)
    80000a18:	f022                	sd	s0,32(sp)
    80000a1a:	1800                	addi	s0,sp,48
    80000a1c:	fca43c23          	sd	a0,-40(s0)
  uint64_t bit = (x ^ (x >> 1)) & 1;
    80000a20:	fd843783          	ld	a5,-40(s0)
    80000a24:	0017d713          	srli	a4,a5,0x1
    80000a28:	fd843783          	ld	a5,-40(s0)
    80000a2c:	8fb9                	xor	a5,a5,a4
    80000a2e:	8b85                	andi	a5,a5,1
    80000a30:	fef43423          	sd	a5,-24(s0)
  return (x >> 1) | (bit << 62);
    80000a34:	fd843783          	ld	a5,-40(s0)
    80000a38:	0017d713          	srli	a4,a5,0x1
    80000a3c:	fe843783          	ld	a5,-24(s0)
    80000a40:	17fa                	slli	a5,a5,0x3e
    80000a42:	8fd9                	or	a5,a5,a4
}
    80000a44:	853e                	mv	a0,a5
    80000a46:	70a2                	ld	ra,40(sp)
    80000a48:	7402                	ld	s0,32(sp)
    80000a4a:	6145                	addi	sp,sp,48
    80000a4c:	8082                	ret

0000000080000a4e <insn_len>:

static uintptr_t insn_len(uintptr_t pc)
{
    80000a4e:	1101                	addi	sp,sp,-32
    80000a50:	ec06                	sd	ra,24(sp)
    80000a52:	e822                	sd	s0,16(sp)
    80000a54:	1000                	addi	s0,sp,32
    80000a56:	fea43423          	sd	a0,-24(s0)
  return (*(unsigned short*)pc & 3) ? 4 : 2;
    80000a5a:	fe843783          	ld	a5,-24(s0)
    80000a5e:	0007d783          	lhu	a5,0(a5)
    80000a62:	2781                	sext.w	a5,a5
    80000a64:	8b8d                	andi	a5,a5,3
    80000a66:	2781                	sext.w	a5,a5
    80000a68:	c399                	beqz	a5,80000a6e <insn_len+0x20>
    80000a6a:	4791                	li	a5,4
    80000a6c:	a011                	j	80000a70 <insn_len+0x22>
    80000a6e:	4789                	li	a5,2
}
    80000a70:	853e                	mv	a0,a5
    80000a72:	60e2                	ld	ra,24(sp)
    80000a74:	6442                	ld	s0,16(sp)
    80000a76:	6105                	addi	sp,sp,32
    80000a78:	8082                	ret

0000000080000a7a <uartInit>:
//   Use UART rather than syscall host interface for printing
//////////////////////////////

#include <stdint.h>

void uartInit(void) {
    80000a7a:	1101                	addi	sp,sp,-32
    80000a7c:	ec06                	sd	ra,24(sp)
    80000a7e:	e822                	sd	s0,16(sp)
    80000a80:	1000                	addi	s0,sp,32
  volatile uint8_t *UART_LCR = (uint8_t*)0x10000003;
    80000a82:	100007b7          	lui	a5,0x10000
    80000a86:	078d                	addi	a5,a5,3 # 10000003 <threadsense.3+0xfffffff>
    80000a88:	fef43423          	sd	a5,-24(s0)
	*UART_LCR = 0b0000011; // 8-bit characters, 1 stop bit, no parity
    80000a8c:	fe843783          	ld	a5,-24(s0)
    80000a90:	470d                	li	a4,3
    80000a92:	00e78023          	sb	a4,0(a5)
}
    80000a96:	0001                	nop
    80000a98:	60e2                	ld	ra,24(sp)
    80000a9a:	6442                	ld	s0,16(sp)
    80000a9c:	6105                	addi	sp,sp,32
    80000a9e:	8082                	ret

0000000080000aa0 <uartSend>:

void uartSend(char c) {
    80000aa0:	7179                	addi	sp,sp,-48
    80000aa2:	f406                	sd	ra,40(sp)
    80000aa4:	f022                	sd	s0,32(sp)
    80000aa6:	1800                	addi	s0,sp,48
    80000aa8:	87aa                	mv	a5,a0
    80000aaa:	fcf40fa3          	sb	a5,-33(s0)
  volatile uint8_t *UART_THR = (uint8_t*)0x10000000;
    80000aae:	100007b7          	lui	a5,0x10000
    80000ab2:	fef43423          	sd	a5,-24(s0)
  volatile uint8_t *UART_LSR = (uint8_t*)0x10000005;
    80000ab6:	100007b7          	lui	a5,0x10000
    80000aba:	0795                	addi	a5,a5,5 # 10000005 <threadsense.3+0x10000001>
    80000abc:	fef43023          	sd	a5,-32(s0)

	while (!(*UART_LSR & (1<<5))); // wait for THRE (trans hold reg empty)
    80000ac0:	0001                	nop
    80000ac2:	fe043783          	ld	a5,-32(s0)
    80000ac6:	0007c783          	lbu	a5,0(a5)
    80000aca:	0ff7f793          	zext.b	a5,a5
    80000ace:	2781                	sext.w	a5,a5
    80000ad0:	0207f793          	andi	a5,a5,32
    80000ad4:	2781                	sext.w	a5,a5
    80000ad6:	d7f5                	beqz	a5,80000ac2 <uartSend+0x22>
	*UART_THR = c;
    80000ad8:	fe843783          	ld	a5,-24(s0)
    80000adc:	fdf44703          	lbu	a4,-33(s0)
    80000ae0:	00e78023          	sb	a4,0(a5)
}
    80000ae4:	0001                	nop
    80000ae6:	70a2                	ld	ra,40(sp)
    80000ae8:	7402                	ld	s0,32(sp)
    80000aea:	6145                	addi	sp,sp,48
    80000aec:	8082                	ret

0000000080000aee <uartReceive>:

char uartReceive(void) {
    80000aee:	1101                	addi	sp,sp,-32
    80000af0:	ec06                	sd	ra,24(sp)
    80000af2:	e822                	sd	s0,16(sp)
    80000af4:	1000                	addi	s0,sp,32
  volatile uint8_t *UART_RBR = (uint8_t*)0x10000000;
    80000af6:	100007b7          	lui	a5,0x10000
    80000afa:	fef43423          	sd	a5,-24(s0)
  volatile uint8_t *UART_LSR = (uint8_t*)0x10000005;
    80000afe:	100007b7          	lui	a5,0x10000
    80000b02:	0795                	addi	a5,a5,5 # 10000005 <threadsense.3+0x10000001>
    80000b04:	fef43023          	sd	a5,-32(s0)

	while (!(*UART_LSR & (1<<0))); // wait for DR (Data Ready)
    80000b08:	0001                	nop
    80000b0a:	fe043783          	ld	a5,-32(s0)
    80000b0e:	0007c783          	lbu	a5,0(a5)
    80000b12:	0ff7f793          	zext.b	a5,a5
    80000b16:	2781                	sext.w	a5,a5
    80000b18:	8b85                	andi	a5,a5,1
    80000b1a:	2781                	sext.w	a5,a5
    80000b1c:	d7fd                	beqz	a5,80000b0a <uartReceive+0x1c>
	return *UART_RBR;
    80000b1e:	fe843783          	ld	a5,-24(s0)
    80000b22:	0007c783          	lbu	a5,0(a5)
    80000b26:	0ff7f793          	zext.b	a5,a5
}
    80000b2a:	853e                	mv	a0,a5
    80000b2c:	60e2                	ld	ra,24(sp)
    80000b2e:	6442                	ld	s0,16(sp)
    80000b30:	6105                	addi	sp,sp,32
    80000b32:	8082                	ret

0000000080000b34 <uartPutStr>:

char uartPutStr(const char *str) {
    80000b34:	1101                	addi	sp,sp,-32
    80000b36:	ec06                	sd	ra,24(sp)
    80000b38:	e822                	sd	s0,16(sp)
    80000b3a:	1000                	addi	s0,sp,32
    80000b3c:	fea43423          	sd	a0,-24(s0)
    while (*str) {
    80000b40:	a821                	j	80000b58 <uartPutStr+0x24>
        uartSend(*str++);
    80000b42:	fe843783          	ld	a5,-24(s0)
    80000b46:	00178713          	addi	a4,a5,1
    80000b4a:	fee43423          	sd	a4,-24(s0)
    80000b4e:	0007c783          	lbu	a5,0(a5)
    80000b52:	853e                	mv	a0,a5
    80000b54:	f4dff0ef          	jal	80000aa0 <uartSend>
    while (*str) {
    80000b58:	fe843783          	ld	a5,-24(s0)
    80000b5c:	0007c783          	lbu	a5,0(a5)
    80000b60:	f3ed                	bnez	a5,80000b42 <uartPutStr+0xe>
    }
}
    80000b62:	0001                	nop
    80000b64:	853e                	mv	a0,a5
    80000b66:	60e2                	ld	ra,24(sp)
    80000b68:	6442                	ld	s0,16(sp)
    80000b6a:	6105                	addi	sp,sp,32
    80000b6c:	8082                	ret

0000000080000b6e <syscall>:
/////////////////////////////
// End of code added for Wally
//////////////////////////////

static uintptr_t syscall(uintptr_t which, uint64_t arg0, uint64_t arg1, uint64_t arg2)
{
    80000b6e:	7171                	addi	sp,sp,-176
    80000b70:	f506                	sd	ra,168(sp)
    80000b72:	f122                	sd	s0,160(sp)
    80000b74:	1900                	addi	s0,sp,176
    80000b76:	f6a43c23          	sd	a0,-136(s0)
    80000b7a:	f6b43823          	sd	a1,-144(s0)
    80000b7e:	f6c43423          	sd	a2,-152(s0)
    80000b82:	f6d43023          	sd	a3,-160(s0)
    80000b86:	ff040793          	addi	a5,s0,-16
    80000b8a:	f4f43c23          	sd	a5,-168(s0)
    80000b8e:	f5843783          	ld	a5,-168(s0)
    80000b92:	f9078793          	addi	a5,a5,-112
    80000b96:	03f78793          	addi	a5,a5,63
    80000b9a:	8399                	srli	a5,a5,0x6
    80000b9c:	079a                	slli	a5,a5,0x6
  volatile uint64_t magic_mem[8] __attribute__((aligned(64)));
  magic_mem[0] = which;
    80000b9e:	f7843703          	ld	a4,-136(s0)
    80000ba2:	e398                	sd	a4,0(a5)
  magic_mem[1] = arg0;
    80000ba4:	f7043703          	ld	a4,-144(s0)
    80000ba8:	e798                	sd	a4,8(a5)
  magic_mem[2] = arg1;
    80000baa:	f6843703          	ld	a4,-152(s0)
    80000bae:	eb98                	sd	a4,16(a5)
  magic_mem[3] = arg2;
    80000bb0:	f6043703          	ld	a4,-160(s0)
    80000bb4:	ef98                	sd	a4,24(a5)
  __sync_synchronize();
    80000bb6:	0330000f          	fence	rw,rw

  tohost = (uintptr_t)magic_mem;
    80000bba:	86be                	mv	a3,a5
    80000bbc:	00001717          	auipc	a4,0x1
    80000bc0:	44470713          	addi	a4,a4,1092 # 80002000 <tohost>
    80000bc4:	e314                	sd	a3,0(a4)
  while (fromhost == 0)
    80000bc6:	0001                	nop
    80000bc8:	00001717          	auipc	a4,0x1
    80000bcc:	47870713          	addi	a4,a4,1144 # 80002040 <fromhost>
    80000bd0:	6318                	ld	a4,0(a4)
    80000bd2:	db7d                	beqz	a4,80000bc8 <syscall+0x5a>
    ;
  fromhost = 0;
    80000bd4:	00001717          	auipc	a4,0x1
    80000bd8:	46c70713          	addi	a4,a4,1132 # 80002040 <fromhost>
    80000bdc:	00073023          	sd	zero,0(a4)

  __sync_synchronize();
    80000be0:	0330000f          	fence	rw,rw
  return magic_mem[0];
    80000be4:	639c                	ld	a5,0(a5)
}
    80000be6:	853e                	mv	a0,a5
    80000be8:	70aa                	ld	ra,168(sp)
    80000bea:	740a                	ld	s0,160(sp)
    80000bec:	614d                	addi	sp,sp,176
    80000bee:	8082                	ret

0000000080000bf0 <setStats>:
#define NUM_COUNTERS 2
static uintptr_t counters[NUM_COUNTERS];
static char* counter_names[NUM_COUNTERS];

void setStats(int enable)
{
    80000bf0:	715d                	addi	sp,sp,-80
    80000bf2:	e486                	sd	ra,72(sp)
    80000bf4:	e0a2                	sd	s0,64(sp)
    80000bf6:	0880                	addi	s0,sp,80
    80000bf8:	87aa                	mv	a5,a0
    80000bfa:	faf42e23          	sw	a5,-68(s0)
  int i = 0;
    80000bfe:	fc042e23          	sw	zero,-36(s0)
    uintptr_t csr = read_csr(name); \
    if (!enable) { csr -= counters[i]; counter_names[i] = #name; } \
    counters[i++] = csr; \
  } while (0)

  READ_CTR(mcycle);
    80000c02:	fdc42783          	lw	a5,-36(s0)
    80000c06:	0007871b          	sext.w	a4,a5
    80000c0a:	4785                	li	a5,1
    80000c0c:	fee7cbe3          	blt	a5,a4,80000c02 <setStats+0x12>
    80000c10:	b00027f3          	csrr	a5,mcycle
    80000c14:	fcf43823          	sd	a5,-48(s0)
    80000c18:	fd043783          	ld	a5,-48(s0)
    80000c1c:	fef43423          	sd	a5,-24(s0)
    80000c20:	fbc42783          	lw	a5,-68(s0)
    80000c24:	2781                	sext.w	a5,a5
    80000c26:	eb9d                	bnez	a5,80000c5c <setStats+0x6c>
    80000c28:	00001717          	auipc	a4,0x1
    80000c2c:	42870713          	addi	a4,a4,1064 # 80002050 <counters>
    80000c30:	fdc42783          	lw	a5,-36(s0)
    80000c34:	078e                	slli	a5,a5,0x3
    80000c36:	97ba                	add	a5,a5,a4
    80000c38:	639c                	ld	a5,0(a5)
    80000c3a:	fe843703          	ld	a4,-24(s0)
    80000c3e:	40f707b3          	sub	a5,a4,a5
    80000c42:	fef43423          	sd	a5,-24(s0)
    80000c46:	81818713          	addi	a4,gp,-2024 # 80002060 <counter_names>
    80000c4a:	fdc42783          	lw	a5,-36(s0)
    80000c4e:	078e                	slli	a5,a5,0x3
    80000c50:	97ba                	add	a5,a5,a4
    80000c52:	00001717          	auipc	a4,0x1
    80000c56:	ea670713          	addi	a4,a4,-346 # 80001af8 <atol+0x19a>
    80000c5a:	e398                	sd	a4,0(a5)
    80000c5c:	fdc42783          	lw	a5,-36(s0)
    80000c60:	0017871b          	addiw	a4,a5,1
    80000c64:	fce42e23          	sw	a4,-36(s0)
    80000c68:	00001717          	auipc	a4,0x1
    80000c6c:	3e870713          	addi	a4,a4,1000 # 80002050 <counters>
    80000c70:	078e                	slli	a5,a5,0x3
    80000c72:	97ba                	add	a5,a5,a4
    80000c74:	fe843703          	ld	a4,-24(s0)
    80000c78:	e398                	sd	a4,0(a5)
  READ_CTR(minstret);
    80000c7a:	fdc42783          	lw	a5,-36(s0)
    80000c7e:	0007871b          	sext.w	a4,a5
    80000c82:	4785                	li	a5,1
    80000c84:	fee7cbe3          	blt	a5,a4,80000c7a <setStats+0x8a>
    80000c88:	b02027f3          	csrr	a5,minstret
    80000c8c:	fcf43423          	sd	a5,-56(s0)
    80000c90:	fc843783          	ld	a5,-56(s0)
    80000c94:	fef43023          	sd	a5,-32(s0)
    80000c98:	fbc42783          	lw	a5,-68(s0)
    80000c9c:	2781                	sext.w	a5,a5
    80000c9e:	eb9d                	bnez	a5,80000cd4 <setStats+0xe4>
    80000ca0:	00001717          	auipc	a4,0x1
    80000ca4:	3b070713          	addi	a4,a4,944 # 80002050 <counters>
    80000ca8:	fdc42783          	lw	a5,-36(s0)
    80000cac:	078e                	slli	a5,a5,0x3
    80000cae:	97ba                	add	a5,a5,a4
    80000cb0:	639c                	ld	a5,0(a5)
    80000cb2:	fe043703          	ld	a4,-32(s0)
    80000cb6:	40f707b3          	sub	a5,a4,a5
    80000cba:	fef43023          	sd	a5,-32(s0)
    80000cbe:	81818713          	addi	a4,gp,-2024 # 80002060 <counter_names>
    80000cc2:	fdc42783          	lw	a5,-36(s0)
    80000cc6:	078e                	slli	a5,a5,0x3
    80000cc8:	97ba                	add	a5,a5,a4
    80000cca:	00001717          	auipc	a4,0x1
    80000cce:	e3670713          	addi	a4,a4,-458 # 80001b00 <atol+0x1a2>
    80000cd2:	e398                	sd	a4,0(a5)
    80000cd4:	fdc42783          	lw	a5,-36(s0)
    80000cd8:	0017871b          	addiw	a4,a5,1
    80000cdc:	fce42e23          	sw	a4,-36(s0)
    80000ce0:	00001717          	auipc	a4,0x1
    80000ce4:	37070713          	addi	a4,a4,880 # 80002050 <counters>
    80000ce8:	078e                	slli	a5,a5,0x3
    80000cea:	97ba                	add	a5,a5,a4
    80000cec:	fe043703          	ld	a4,-32(s0)
    80000cf0:	e398                	sd	a4,0(a5)

#undef READ_CTR
}
    80000cf2:	0001                	nop
    80000cf4:	60a6                	ld	ra,72(sp)
    80000cf6:	6406                	ld	s0,64(sp)
    80000cf8:	6161                	addi	sp,sp,80
    80000cfa:	8082                	ret

0000000080000cfc <tohost_exit>:

void __attribute__((noreturn)) tohost_exit(uintptr_t code)
{
    80000cfc:	1101                	addi	sp,sp,-32
    80000cfe:	ec06                	sd	ra,24(sp)
    80000d00:	e822                	sd	s0,16(sp)
    80000d02:	1000                	addi	s0,sp,32
    80000d04:	fea43423          	sd	a0,-24(s0)
  tohost = (code << 1) | 1;
    80000d08:	fe843783          	ld	a5,-24(s0)
    80000d0c:	0786                	slli	a5,a5,0x1
    80000d0e:	0017e713          	ori	a4,a5,1
    80000d12:	00001797          	auipc	a5,0x1
    80000d16:	2ee78793          	addi	a5,a5,750 # 80002000 <tohost>
    80000d1a:	e398                	sd	a4,0(a5)
  while (1);
    80000d1c:	a001                	j	80000d1c <tohost_exit+0x20>

0000000080000d1e <handle_trap>:
}

uintptr_t __attribute__((weak)) handle_trap(uintptr_t cause, uintptr_t epc, uintptr_t regs[32])
{
    80000d1e:	7179                	addi	sp,sp,-48
    80000d20:	f406                	sd	ra,40(sp)
    80000d22:	f022                	sd	s0,32(sp)
    80000d24:	1800                	addi	s0,sp,48
    80000d26:	fea43423          	sd	a0,-24(s0)
    80000d2a:	feb43023          	sd	a1,-32(s0)
    80000d2e:	fcc43c23          	sd	a2,-40(s0)
  tohost_exit(1337);
    80000d32:	53900513          	li	a0,1337
    80000d36:	fc7ff0ef          	jal	80000cfc <tohost_exit>

0000000080000d3a <exit>:
}

void exit(int code)
{
    80000d3a:	1101                	addi	sp,sp,-32
    80000d3c:	ec06                	sd	ra,24(sp)
    80000d3e:	e822                	sd	s0,16(sp)
    80000d40:	1000                	addi	s0,sp,32
    80000d42:	87aa                	mv	a5,a0
    80000d44:	fef42623          	sw	a5,-20(s0)
  tohost_exit(code);
    80000d48:	fec42783          	lw	a5,-20(s0)
    80000d4c:	853e                	mv	a0,a5
    80000d4e:	fafff0ef          	jal	80000cfc <tohost_exit>

0000000080000d52 <abort>:
}

void abort()
{
    80000d52:	1141                	addi	sp,sp,-16
    80000d54:	e406                	sd	ra,8(sp)
    80000d56:	e022                	sd	s0,0(sp)
    80000d58:	0800                	addi	s0,sp,16
  exit(128 + SIGABRT);
    80000d5a:	08600513          	li	a0,134
    80000d5e:	fddff0ef          	jal	80000d3a <exit>

0000000080000d62 <printstr>:
}

void printstr(const char* s)
{
    80000d62:	1101                	addi	sp,sp,-32
    80000d64:	ec06                	sd	ra,24(sp)
    80000d66:	e822                	sd	s0,16(sp)
    80000d68:	1000                	addi	s0,sp,32
    80000d6a:	fea43423          	sd	a0,-24(s0)
  // david_harris@hmc.edu 11/30/24 switch to printing via UART rather than syscall
  // This works on both Spike and Wally simulations
  //syscall(SYS_write, 1, (uintptr_t)s, strlen(s));
  uartPutStr(s);
    80000d6e:	fe843503          	ld	a0,-24(s0)
    80000d72:	dc3ff0ef          	jal	80000b34 <uartPutStr>
}
    80000d76:	0001                	nop
    80000d78:	60e2                	ld	ra,24(sp)
    80000d7a:	6442                	ld	s0,16(sp)
    80000d7c:	6105                	addi	sp,sp,32
    80000d7e:	8082                	ret

0000000080000d80 <puts>:

// Added 30 November 2024 David_Harris@hmc.edu
// The compiler encountering printf with a pure string argument tries to invoke puts
// rather than the usual printf, so puts must be defined.
int puts(const char* s)
{
    80000d80:	1101                	addi	sp,sp,-32
    80000d82:	ec06                	sd	ra,24(sp)
    80000d84:	e822                	sd	s0,16(sp)
    80000d86:	1000                	addi	s0,sp,32
    80000d88:	fea43423          	sd	a0,-24(s0)
  printstr(s);
    80000d8c:	fe843503          	ld	a0,-24(s0)
    80000d90:	fd3ff0ef          	jal	80000d62 <printstr>
  return 0;
    80000d94:	4781                	li	a5,0
}
    80000d96:	853e                	mv	a0,a5
    80000d98:	60e2                	ld	ra,24(sp)
    80000d9a:	6442                	ld	s0,16(sp)
    80000d9c:	6105                	addi	sp,sp,32
    80000d9e:	8082                	ret

0000000080000da0 <thread_entry>:

void __attribute__((weak)) thread_entry(int cid, int nc)
{
    80000da0:	1101                	addi	sp,sp,-32
    80000da2:	ec06                	sd	ra,24(sp)
    80000da4:	e822                	sd	s0,16(sp)
    80000da6:	1000                	addi	s0,sp,32
    80000da8:	87aa                	mv	a5,a0
    80000daa:	872e                	mv	a4,a1
    80000dac:	fef42623          	sw	a5,-20(s0)
    80000db0:	87ba                	mv	a5,a4
    80000db2:	fef42423          	sw	a5,-24(s0)
  // multi-threaded programs override this function.
  // for the case of single-threaded programs, only let core 0 proceed.
  while (cid != 0);
    80000db6:	0001                	nop
    80000db8:	fec42783          	lw	a5,-20(s0)
    80000dbc:	2781                	sext.w	a5,a5
    80000dbe:	ffed                	bnez	a5,80000db8 <thread_entry+0x18>
}
    80000dc0:	0001                	nop
    80000dc2:	0001                	nop
    80000dc4:	60e2                	ld	ra,24(sp)
    80000dc6:	6442                	ld	s0,16(sp)
    80000dc8:	6105                	addi	sp,sp,32
    80000dca:	8082                	ret

int __attribute__((weak)) main(int argc, char** argv)
{
    80000dcc:	1101                	addi	sp,sp,-32
    80000dce:	ec06                	sd	ra,24(sp)
    80000dd0:	e822                	sd	s0,16(sp)
    80000dd2:	1000                	addi	s0,sp,32
    80000dd4:	87aa                	mv	a5,a0
    80000dd6:	feb43023          	sd	a1,-32(s0)
    80000dda:	fef42623          	sw	a5,-20(s0)
  // single-threaded programs override this function.
  printstr("Implement main(), foo!\n");
    80000dde:	00001517          	auipc	a0,0x1
    80000de2:	d3250513          	addi	a0,a0,-718 # 80001b10 <atol+0x1b2>
    80000de6:	f7dff0ef          	jal	80000d62 <printstr>
  return -1;
    80000dea:	57fd                	li	a5,-1
}
    80000dec:	853e                	mv	a0,a5
    80000dee:	60e2                	ld	ra,24(sp)
    80000df0:	6442                	ld	s0,16(sp)
    80000df2:	6105                	addi	sp,sp,32
    80000df4:	8082                	ret

0000000080000df6 <init_tls>:

static void init_tls()
{
    80000df6:	1101                	addi	sp,sp,-32
    80000df8:	ec06                	sd	ra,24(sp)
    80000dfa:	e822                	sd	s0,16(sp)
    80000dfc:	1000                	addi	s0,sp,32
  register void* thread_pointer asm("tp");
  extern char _tdata_begin, _tdata_end, _tbss_end;
  size_t tdata_size = &_tdata_end - &_tdata_begin;
    80000dfe:	83018713          	addi	a4,gp,-2000 # 80002078 <_end>
    80000e02:	83018793          	addi	a5,gp,-2000 # 80002078 <_end>
    80000e06:	40f707b3          	sub	a5,a4,a5
    80000e0a:	fef43423          	sd	a5,-24(s0)
  memcpy(thread_pointer, &_tdata_begin, tdata_size);
    80000e0e:	8792                	mv	a5,tp
    80000e10:	fe843603          	ld	a2,-24(s0)
    80000e14:	83018593          	addi	a1,gp,-2000 # 80002078 <_end>
    80000e18:	853e                	mv	a0,a5
    80000e1a:	061000ef          	jal	8000167a <memcpy>
  size_t tbss_size = &_tbss_end - &_tdata_end;
    80000e1e:	83818713          	addi	a4,gp,-1992 # 80002080 <_tbss_end>
    80000e22:	83018793          	addi	a5,gp,-2000 # 80002078 <_end>
    80000e26:	40f707b3          	sub	a5,a4,a5
    80000e2a:	fef43023          	sd	a5,-32(s0)
  memset(thread_pointer + tdata_size, 0, tbss_size);
    80000e2e:	8712                	mv	a4,tp
    80000e30:	fe843783          	ld	a5,-24(s0)
    80000e34:	97ba                	add	a5,a5,a4
    80000e36:	fe043603          	ld	a2,-32(s0)
    80000e3a:	4581                	li	a1,0
    80000e3c:	853e                	mv	a0,a5
    80000e3e:	0f9000ef          	jal	80001736 <memset>
}
    80000e42:	0001                	nop
    80000e44:	60e2                	ld	ra,24(sp)
    80000e46:	6442                	ld	s0,16(sp)
    80000e48:	6105                	addi	sp,sp,32
    80000e4a:	8082                	ret

0000000080000e4c <_init>:

void _init(int cid, int nc)
{
    80000e4c:	7171                	addi	sp,sp,-176
    80000e4e:	f506                	sd	ra,168(sp)
    80000e50:	f122                	sd	s0,160(sp)
    80000e52:	ed26                	sd	s1,152(sp)
    80000e54:	1900                	addi	s0,sp,176
    80000e56:	87aa                	mv	a5,a0
    80000e58:	872e                	mv	a4,a1
    80000e5a:	f4f42e23          	sw	a5,-164(s0)
    80000e5e:	87ba                	mv	a5,a4
    80000e60:	f4f42c23          	sw	a5,-168(s0)
    80000e64:	fe040793          	addi	a5,s0,-32
    80000e68:	f4f43823          	sd	a5,-176(s0)
    80000e6c:	f5043783          	ld	a5,-176(s0)
    80000e70:	f8078793          	addi	a5,a5,-128
    80000e74:	03f78793          	addi	a5,a5,63
    80000e78:	8399                	srli	a5,a5,0x6
    80000e7a:	00679493          	slli	s1,a5,0x6
  init_tls();
    80000e7e:	f79ff0ef          	jal	80000df6 <init_tls>
  thread_entry(cid, nc);
    80000e82:	f5842703          	lw	a4,-168(s0)
    80000e86:	f5c42783          	lw	a5,-164(s0)
    80000e8a:	85ba                	mv	a1,a4
    80000e8c:	853e                	mv	a0,a5
    80000e8e:	f13ff0ef          	jal	80000da0 <thread_entry>
  uartInit(); // added 11/30/2024 David_Harris@hmc.edu for printing via UART
    80000e92:	be9ff0ef          	jal	80000a7a <uartInit>

  // only single-threaded programs should ever get here.
  int ret = main(0, 0);
    80000e96:	4581                	li	a1,0
    80000e98:	4501                	li	a0,0
    80000e9a:	faaff0ef          	jal	80000644 <main>
    80000e9e:	87aa                	mv	a5,a0
    80000ea0:	fcf42823          	sw	a5,-48(s0)

  char buf[NUM_COUNTERS * 32] __attribute__((aligned(64)));
  char* pbuf = buf;
    80000ea4:	fc943c23          	sd	s1,-40(s0)
  for (int i = 0; i < NUM_COUNTERS; i++)
    80000ea8:	fc042a23          	sw	zero,-44(s0)
    80000eac:	a085                	j	80000f0c <_init+0xc0>
    if (counters[i])
    80000eae:	00001717          	auipc	a4,0x1
    80000eb2:	1a270713          	addi	a4,a4,418 # 80002050 <counters>
    80000eb6:	fd442783          	lw	a5,-44(s0)
    80000eba:	078e                	slli	a5,a5,0x3
    80000ebc:	97ba                	add	a5,a5,a4
    80000ebe:	639c                	ld	a5,0(a5)
    80000ec0:	c3a9                	beqz	a5,80000f02 <_init+0xb6>
      pbuf += sprintf(pbuf, "%s = %d\n", counter_names[i], counters[i]);
    80000ec2:	81818713          	addi	a4,gp,-2024 # 80002060 <counter_names>
    80000ec6:	fd442783          	lw	a5,-44(s0)
    80000eca:	078e                	slli	a5,a5,0x3
    80000ecc:	97ba                	add	a5,a5,a4
    80000ece:	6390                	ld	a2,0(a5)
    80000ed0:	00001717          	auipc	a4,0x1
    80000ed4:	18070713          	addi	a4,a4,384 # 80002050 <counters>
    80000ed8:	fd442783          	lw	a5,-44(s0)
    80000edc:	078e                	slli	a5,a5,0x3
    80000ede:	97ba                	add	a5,a5,a4
    80000ee0:	639c                	ld	a5,0(a5)
    80000ee2:	86be                	mv	a3,a5
    80000ee4:	00001597          	auipc	a1,0x1
    80000ee8:	c4458593          	addi	a1,a1,-956 # 80001b28 <atol+0x1ca>
    80000eec:	fd843503          	ld	a0,-40(s0)
    80000ef0:	6c8000ef          	jal	800015b8 <sprintf>
    80000ef4:	87aa                	mv	a5,a0
    80000ef6:	873e                	mv	a4,a5
    80000ef8:	fd843783          	ld	a5,-40(s0)
    80000efc:	97ba                	add	a5,a5,a4
    80000efe:	fcf43c23          	sd	a5,-40(s0)
  for (int i = 0; i < NUM_COUNTERS; i++)
    80000f02:	fd442783          	lw	a5,-44(s0)
    80000f06:	2785                	addiw	a5,a5,1
    80000f08:	fcf42a23          	sw	a5,-44(s0)
    80000f0c:	fd442783          	lw	a5,-44(s0)
    80000f10:	0007871b          	sext.w	a4,a5
    80000f14:	4785                	li	a5,1
    80000f16:	f8e7dce3          	bge	a5,a4,80000eae <_init+0x62>
  if (pbuf != buf)
    80000f1a:	fd843783          	ld	a5,-40(s0)
    80000f1e:	00f48563          	beq	s1,a5,80000f28 <_init+0xdc>
    printstr(buf);
    80000f22:	8526                	mv	a0,s1
    80000f24:	e3fff0ef          	jal	80000d62 <printstr>

  exit(ret);
    80000f28:	fd042783          	lw	a5,-48(s0)
    80000f2c:	853e                	mv	a0,a5
    80000f2e:	e0dff0ef          	jal	80000d3a <exit>

0000000080000f32 <putchar>:
}

#undef putchar
int putchar(int ch)
{
    80000f32:	1101                	addi	sp,sp,-32
    80000f34:	ec06                	sd	ra,24(sp)
    80000f36:	e822                	sd	s0,16(sp)
    80000f38:	1000                	addi	s0,sp,32
    80000f3a:	87aa                	mv	a5,a0
    80000f3c:	fef42623          	sw	a5,-20(s0)
  // David_Harris@hmc.edu 11/30/2024
  // Replaced syscall with uartSend
  uartSend(ch);
    80000f40:	fec42783          	lw	a5,-20(s0)
    80000f44:	0ff7f793          	zext.b	a5,a5
    80000f48:	853e                	mv	a0,a5
    80000f4a:	b57ff0ef          	jal	80000aa0 <uartSend>
  {
    syscall(SYS_write, 1, (uintptr_t)buf, buflen);
    buflen = 0;
  } */

  return 0;
    80000f4e:	4781                	li	a5,0
}
    80000f50:	853e                	mv	a0,a5
    80000f52:	60e2                	ld	ra,24(sp)
    80000f54:	6442                	ld	s0,16(sp)
    80000f56:	6105                	addi	sp,sp,32
    80000f58:	8082                	ret

0000000080000f5a <printhex>:

void printhex(uint64_t x)
{
    80000f5a:	7139                	addi	sp,sp,-64
    80000f5c:	fc06                	sd	ra,56(sp)
    80000f5e:	f822                	sd	s0,48(sp)
    80000f60:	0080                	addi	s0,sp,64
    80000f62:	fca43423          	sd	a0,-56(s0)
  char str[17];
  int i;
  for (i = 0; i < 16; i++)
    80000f66:	fe042623          	sw	zero,-20(s0)
    80000f6a:	a899                	j	80000fc0 <printhex+0x66>
  {
    str[15-i] = (x & 0xF) + ((x & 0xF) < 10 ? '0' : 'a'-10);
    80000f6c:	fc843783          	ld	a5,-56(s0)
    80000f70:	0ff7f793          	zext.b	a5,a5
    80000f74:	8bbd                	andi	a5,a5,15
    80000f76:	0ff7f713          	zext.b	a4,a5
    80000f7a:	fc843783          	ld	a5,-56(s0)
    80000f7e:	00f7f693          	andi	a3,a5,15
    80000f82:	47a5                	li	a5,9
    80000f84:	00d7e563          	bltu	a5,a3,80000f8e <printhex+0x34>
    80000f88:	03000793          	li	a5,48
    80000f8c:	a019                	j	80000f92 <printhex+0x38>
    80000f8e:	05700793          	li	a5,87
    80000f92:	46bd                	li	a3,15
    80000f94:	fec42603          	lw	a2,-20(s0)
    80000f98:	9e91                	subw	a3,a3,a2
    80000f9a:	2681                	sext.w	a3,a3
    80000f9c:	9fb9                	addw	a5,a5,a4
    80000f9e:	0ff7f713          	zext.b	a4,a5
    80000fa2:	ff068793          	addi	a5,a3,-16
    80000fa6:	97a2                	add	a5,a5,s0
    80000fa8:	fee78423          	sb	a4,-24(a5)
    x >>= 4;
    80000fac:	fc843783          	ld	a5,-56(s0)
    80000fb0:	8391                	srli	a5,a5,0x4
    80000fb2:	fcf43423          	sd	a5,-56(s0)
  for (i = 0; i < 16; i++)
    80000fb6:	fec42783          	lw	a5,-20(s0)
    80000fba:	2785                	addiw	a5,a5,1
    80000fbc:	fef42623          	sw	a5,-20(s0)
    80000fc0:	fec42783          	lw	a5,-20(s0)
    80000fc4:	0007871b          	sext.w	a4,a5
    80000fc8:	47bd                	li	a5,15
    80000fca:	fae7d1e3          	bge	a5,a4,80000f6c <printhex+0x12>
  }
  str[16] = 0;
    80000fce:	fe040423          	sb	zero,-24(s0)

  printstr(str);
    80000fd2:	fd840793          	addi	a5,s0,-40
    80000fd6:	853e                	mv	a0,a5
    80000fd8:	d8bff0ef          	jal	80000d62 <printstr>
}
    80000fdc:	0001                	nop
    80000fde:	70e2                	ld	ra,56(sp)
    80000fe0:	7442                	ld	s0,48(sp)
    80000fe2:	6121                	addi	sp,sp,64
    80000fe4:	8082                	ret

0000000080000fe6 <printnum>:

static inline void printnum(void (*putch)(int, void**), void **putdat,
                    unsigned long long num, unsigned base, int width, int padc)
{
    80000fe6:	714d                	addi	sp,sp,-336
    80000fe8:	e686                	sd	ra,328(sp)
    80000fea:	e2a2                	sd	s0,320(sp)
    80000fec:	0a80                	addi	s0,sp,336
    80000fee:	eca43c23          	sd	a0,-296(s0)
    80000ff2:	ecb43823          	sd	a1,-304(s0)
    80000ff6:	ecc43423          	sd	a2,-312(s0)
    80000ffa:	8636                	mv	a2,a3
    80000ffc:	86ba                	mv	a3,a4
    80000ffe:	873e                	mv	a4,a5
    80001000:	87b2                	mv	a5,a2
    80001002:	ecf42223          	sw	a5,-316(s0)
    80001006:	87b6                	mv	a5,a3
    80001008:	ecf42023          	sw	a5,-320(s0)
    8000100c:	87ba                	mv	a5,a4
    8000100e:	eaf42e23          	sw	a5,-324(s0)
  unsigned digs[sizeof(num)*CHAR_BIT];
  int pos = 0;
    80001012:	fe042623          	sw	zero,-20(s0)

  while (1)
  {
    digs[pos++] = num % base;
    80001016:	ec446783          	lwu	a5,-316(s0)
    8000101a:	ec843703          	ld	a4,-312(s0)
    8000101e:	02f77733          	remu	a4,a4,a5
    80001022:	fec42783          	lw	a5,-20(s0)
    80001026:	0017869b          	addiw	a3,a5,1
    8000102a:	fed42623          	sw	a3,-20(s0)
    8000102e:	2701                	sext.w	a4,a4
    80001030:	ee840693          	addi	a3,s0,-280
    80001034:	078a                	slli	a5,a5,0x2
    80001036:	97b6                	add	a5,a5,a3
    80001038:	c398                	sw	a4,0(a5)
    if (num < base)
    8000103a:	ec446783          	lwu	a5,-316(s0)
    8000103e:	ec843703          	ld	a4,-312(s0)
    80001042:	00f76b63          	bltu	a4,a5,80001058 <printnum+0x72>
      break;
    num /= base;
    80001046:	ec446783          	lwu	a5,-316(s0)
    8000104a:	ec843703          	ld	a4,-312(s0)
    8000104e:	02f757b3          	divu	a5,a4,a5
    80001052:	ecf43423          	sd	a5,-312(s0)
    digs[pos++] = num % base;
    80001056:	b7c1                	j	80001016 <printnum+0x30>
      break;
    80001058:	0001                	nop
  }

  while (width-- > pos)
    8000105a:	a809                	j	8000106c <printnum+0x86>
    putch(padc, putdat);
    8000105c:	ebc42703          	lw	a4,-324(s0)
    80001060:	ed843783          	ld	a5,-296(s0)
    80001064:	ed043583          	ld	a1,-304(s0)
    80001068:	853a                	mv	a0,a4
    8000106a:	9782                	jalr	a5
  while (width-- > pos)
    8000106c:	ec042783          	lw	a5,-320(s0)
    80001070:	fff7871b          	addiw	a4,a5,-1
    80001074:	ece42023          	sw	a4,-320(s0)
    80001078:	fec42703          	lw	a4,-20(s0)
    8000107c:	2701                	sext.w	a4,a4
    8000107e:	fcf74fe3          	blt	a4,a5,8000105c <printnum+0x76>

  while (pos-- > 0)
    80001082:	a081                	j	800010c2 <printnum+0xdc>
    putch(digs[pos] + (digs[pos] >= 10 ? 'a' - 10 : '0'), putdat);
    80001084:	fec42703          	lw	a4,-20(s0)
    80001088:	ee840793          	addi	a5,s0,-280
    8000108c:	070a                	slli	a4,a4,0x2
    8000108e:	97ba                	add	a5,a5,a4
    80001090:	4398                	lw	a4,0(a5)
    80001092:	fec42683          	lw	a3,-20(s0)
    80001096:	ee840793          	addi	a5,s0,-280
    8000109a:	068a                	slli	a3,a3,0x2
    8000109c:	97b6                	add	a5,a5,a3
    8000109e:	4394                	lw	a3,0(a5)
    800010a0:	47a5                	li	a5,9
    800010a2:	00d7f563          	bgeu	a5,a3,800010ac <printnum+0xc6>
    800010a6:	05700793          	li	a5,87
    800010aa:	a019                	j	800010b0 <printnum+0xca>
    800010ac:	03000793          	li	a5,48
    800010b0:	9fb9                	addw	a5,a5,a4
    800010b2:	2781                	sext.w	a5,a5
    800010b4:	873e                	mv	a4,a5
    800010b6:	ed843783          	ld	a5,-296(s0)
    800010ba:	ed043583          	ld	a1,-304(s0)
    800010be:	853a                	mv	a0,a4
    800010c0:	9782                	jalr	a5
  while (pos-- > 0)
    800010c2:	fec42783          	lw	a5,-20(s0)
    800010c6:	fff7871b          	addiw	a4,a5,-1
    800010ca:	fee42623          	sw	a4,-20(s0)
    800010ce:	faf04be3          	bgtz	a5,80001084 <printnum+0x9e>
}
    800010d2:	0001                	nop
    800010d4:	0001                	nop
    800010d6:	60b6                	ld	ra,328(sp)
    800010d8:	6416                	ld	s0,320(sp)
    800010da:	6171                	addi	sp,sp,336
    800010dc:	8082                	ret

00000000800010de <getuint>:

static unsigned long long getuint(va_list *ap, int lflag)
{
    800010de:	1101                	addi	sp,sp,-32
    800010e0:	ec06                	sd	ra,24(sp)
    800010e2:	e822                	sd	s0,16(sp)
    800010e4:	1000                	addi	s0,sp,32
    800010e6:	fea43423          	sd	a0,-24(s0)
    800010ea:	87ae                	mv	a5,a1
    800010ec:	fef42223          	sw	a5,-28(s0)
  if (lflag >= 2)
    800010f0:	fe442783          	lw	a5,-28(s0)
    800010f4:	0007871b          	sext.w	a4,a5
    800010f8:	4785                	li	a5,1
    800010fa:	00e7dc63          	bge	a5,a4,80001112 <getuint+0x34>
    return va_arg(*ap, unsigned long long);
    800010fe:	fe843783          	ld	a5,-24(s0)
    80001102:	639c                	ld	a5,0(a5)
    80001104:	00878693          	addi	a3,a5,8
    80001108:	fe843703          	ld	a4,-24(s0)
    8000110c:	e314                	sd	a3,0(a4)
    8000110e:	639c                	ld	a5,0(a5)
    80001110:	a815                	j	80001144 <getuint+0x66>
  else if (lflag)
    80001112:	fe442783          	lw	a5,-28(s0)
    80001116:	2781                	sext.w	a5,a5
    80001118:	cb99                	beqz	a5,8000112e <getuint+0x50>
    return va_arg(*ap, unsigned long);
    8000111a:	fe843783          	ld	a5,-24(s0)
    8000111e:	639c                	ld	a5,0(a5)
    80001120:	00878693          	addi	a3,a5,8
    80001124:	fe843703          	ld	a4,-24(s0)
    80001128:	e314                	sd	a3,0(a4)
    8000112a:	639c                	ld	a5,0(a5)
    8000112c:	a821                	j	80001144 <getuint+0x66>
  else
    return va_arg(*ap, unsigned int);
    8000112e:	fe843783          	ld	a5,-24(s0)
    80001132:	639c                	ld	a5,0(a5)
    80001134:	00878693          	addi	a3,a5,8
    80001138:	fe843703          	ld	a4,-24(s0)
    8000113c:	e314                	sd	a3,0(a4)
    8000113e:	439c                	lw	a5,0(a5)
    80001140:	1782                	slli	a5,a5,0x20
    80001142:	9381                	srli	a5,a5,0x20
}
    80001144:	853e                	mv	a0,a5
    80001146:	60e2                	ld	ra,24(sp)
    80001148:	6442                	ld	s0,16(sp)
    8000114a:	6105                	addi	sp,sp,32
    8000114c:	8082                	ret

000000008000114e <getint>:

static long long getint(va_list *ap, int lflag)
{
    8000114e:	1101                	addi	sp,sp,-32
    80001150:	ec06                	sd	ra,24(sp)
    80001152:	e822                	sd	s0,16(sp)
    80001154:	1000                	addi	s0,sp,32
    80001156:	fea43423          	sd	a0,-24(s0)
    8000115a:	87ae                	mv	a5,a1
    8000115c:	fef42223          	sw	a5,-28(s0)
  if (lflag >= 2)
    80001160:	fe442783          	lw	a5,-28(s0)
    80001164:	0007871b          	sext.w	a4,a5
    80001168:	4785                	li	a5,1
    8000116a:	00e7dc63          	bge	a5,a4,80001182 <getint+0x34>
    return va_arg(*ap, long long);
    8000116e:	fe843783          	ld	a5,-24(s0)
    80001172:	639c                	ld	a5,0(a5)
    80001174:	00878693          	addi	a3,a5,8
    80001178:	fe843703          	ld	a4,-24(s0)
    8000117c:	e314                	sd	a3,0(a4)
    8000117e:	639c                	ld	a5,0(a5)
    80001180:	a805                	j	800011b0 <getint+0x62>
  else if (lflag)
    80001182:	fe442783          	lw	a5,-28(s0)
    80001186:	2781                	sext.w	a5,a5
    80001188:	cb99                	beqz	a5,8000119e <getint+0x50>
    return va_arg(*ap, long);
    8000118a:	fe843783          	ld	a5,-24(s0)
    8000118e:	639c                	ld	a5,0(a5)
    80001190:	00878693          	addi	a3,a5,8
    80001194:	fe843703          	ld	a4,-24(s0)
    80001198:	e314                	sd	a3,0(a4)
    8000119a:	639c                	ld	a5,0(a5)
    8000119c:	a811                	j	800011b0 <getint+0x62>
  else
    return va_arg(*ap, int);
    8000119e:	fe843783          	ld	a5,-24(s0)
    800011a2:	639c                	ld	a5,0(a5)
    800011a4:	00878693          	addi	a3,a5,8
    800011a8:	fe843703          	ld	a4,-24(s0)
    800011ac:	e314                	sd	a3,0(a4)
    800011ae:	439c                	lw	a5,0(a5)
}
    800011b0:	853e                	mv	a0,a5
    800011b2:	60e2                	ld	ra,24(sp)
    800011b4:	6442                	ld	s0,16(sp)
    800011b6:	6105                	addi	sp,sp,32
    800011b8:	8082                	ret

00000000800011ba <vprintfmt>:

static void vprintfmt(void (*putch)(int, void**), void **putdat, const char *fmt, va_list ap)
{
    800011ba:	7159                	addi	sp,sp,-112
    800011bc:	f486                	sd	ra,104(sp)
    800011be:	f0a2                	sd	s0,96(sp)
    800011c0:	eca6                	sd	s1,88(sp)
    800011c2:	e8ca                	sd	s2,80(sp)
    800011c4:	1880                	addi	s0,sp,112
    800011c6:	faa43423          	sd	a0,-88(s0)
    800011ca:	fab43023          	sd	a1,-96(s0)
    800011ce:	f8c43c23          	sd	a2,-104(s0)
    800011d2:	f8d43823          	sd	a3,-112(s0)
  unsigned long long num;
  int base, lflag, width, precision, altflag;
  char padc;

  while (1) {
    while ((ch = *(unsigned char *) fmt) != '%') {
    800011d6:	a831                	j	800011f2 <vprintfmt+0x38>
      if (ch == '\0')
    800011d8:	32048963          	beqz	s1,8000150a <vprintfmt+0x350>
        return;
      fmt++;
    800011dc:	f9843783          	ld	a5,-104(s0)
    800011e0:	0785                	addi	a5,a5,1
    800011e2:	f8f43c23          	sd	a5,-104(s0)
      putch(ch, putdat);
    800011e6:	fa843783          	ld	a5,-88(s0)
    800011ea:	fa043583          	ld	a1,-96(s0)
    800011ee:	8526                	mv	a0,s1
    800011f0:	9782                	jalr	a5
    while ((ch = *(unsigned char *) fmt) != '%') {
    800011f2:	f9843783          	ld	a5,-104(s0)
    800011f6:	0007c783          	lbu	a5,0(a5)
    800011fa:	0007849b          	sext.w	s1,a5
    800011fe:	02500793          	li	a5,37
    80001202:	fcf49be3          	bne	s1,a5,800011d8 <vprintfmt+0x1e>
    }
    fmt++;
    80001206:	f9843783          	ld	a5,-104(s0)
    8000120a:	0785                	addi	a5,a5,1
    8000120c:	f8f43c23          	sd	a5,-104(s0)

    // Process a %-escape sequence
    last_fmt = fmt;
    80001210:	f9843783          	ld	a5,-104(s0)
    80001214:	faf43c23          	sd	a5,-72(s0)
    padc = ' ';
    80001218:	02000793          	li	a5,32
    8000121c:	fcf403a3          	sb	a5,-57(s0)
    width = -1;
    80001220:	57fd                	li	a5,-1
    80001222:	fcf42623          	sw	a5,-52(s0)
    precision = -1;
    80001226:	57fd                	li	a5,-1
    80001228:	fcf42423          	sw	a5,-56(s0)
    lflag = 0;
    8000122c:	fc042823          	sw	zero,-48(s0)
    altflag = 0;
    80001230:	fa042a23          	sw	zero,-76(s0)
  reswitch:
    switch (ch = *(unsigned char *) fmt++) {
    80001234:	f9843783          	ld	a5,-104(s0)
    80001238:	00178713          	addi	a4,a5,1
    8000123c:	f8e43c23          	sd	a4,-104(s0)
    80001240:	0007c783          	lbu	a5,0(a5)
    80001244:	0007849b          	sext.w	s1,a5
    80001248:	fdd4879b          	addiw	a5,s1,-35
    8000124c:	86be                	mv	a3,a5
    8000124e:	0006871b          	sext.w	a4,a3
    80001252:	05500793          	li	a5,85
    80001256:	28e7ed63          	bltu	a5,a4,800014f0 <vprintfmt+0x336>
    8000125a:	02069793          	slli	a5,a3,0x20
    8000125e:	9381                	srli	a5,a5,0x20
    80001260:	00279713          	slli	a4,a5,0x2
    80001264:	00001797          	auipc	a5,0x1
    80001268:	8dc78793          	addi	a5,a5,-1828 # 80001b40 <atol+0x1e2>
    8000126c:	97ba                	add	a5,a5,a4
    8000126e:	439c                	lw	a5,0(a5)
    80001270:	0007871b          	sext.w	a4,a5
    80001274:	00001797          	auipc	a5,0x1
    80001278:	8cc78793          	addi	a5,a5,-1844 # 80001b40 <atol+0x1e2>
    8000127c:	97ba                	add	a5,a5,a4
    8000127e:	8782                	jr	a5

    // flag to pad on the right
    case '-':
      padc = '-';
    80001280:	02d00793          	li	a5,45
    80001284:	fcf403a3          	sb	a5,-57(s0)
      goto reswitch;
    80001288:	b775                	j	80001234 <vprintfmt+0x7a>
      
    // flag to pad with 0's instead of spaces
    case '0':
      padc = '0';
    8000128a:	03000793          	li	a5,48
    8000128e:	fcf403a3          	sb	a5,-57(s0)
      goto reswitch;
    80001292:	b74d                	j	80001234 <vprintfmt+0x7a>
    case '5':
    case '6':
    case '7':
    case '8':
    case '9':
      for (precision = 0; ; ++fmt) {
    80001294:	fc042423          	sw	zero,-56(s0)
        precision = precision * 10 + ch - '0';
    80001298:	fc842783          	lw	a5,-56(s0)
    8000129c:	873e                	mv	a4,a5
    8000129e:	87ba                	mv	a5,a4
    800012a0:	0027979b          	slliw	a5,a5,0x2
    800012a4:	9fb9                	addw	a5,a5,a4
    800012a6:	0017979b          	slliw	a5,a5,0x1
    800012aa:	2781                	sext.w	a5,a5
    800012ac:	9fa5                	addw	a5,a5,s1
    800012ae:	2781                	sext.w	a5,a5
    800012b0:	fd07879b          	addiw	a5,a5,-48
    800012b4:	fcf42423          	sw	a5,-56(s0)
        ch = *fmt;
    800012b8:	f9843783          	ld	a5,-104(s0)
    800012bc:	0007c783          	lbu	a5,0(a5)
    800012c0:	0007849b          	sext.w	s1,a5
        if (ch < '0' || ch > '9')
    800012c4:	02f00793          	li	a5,47
    800012c8:	0497d263          	bge	a5,s1,8000130c <vprintfmt+0x152>
    800012cc:	03900793          	li	a5,57
    800012d0:	0297ce63          	blt	a5,s1,8000130c <vprintfmt+0x152>
      for (precision = 0; ; ++fmt) {
    800012d4:	f9843783          	ld	a5,-104(s0)
    800012d8:	0785                	addi	a5,a5,1
    800012da:	f8f43c23          	sd	a5,-104(s0)
        precision = precision * 10 + ch - '0';
    800012de:	bf6d                	j	80001298 <vprintfmt+0xde>
          break;
      }
      goto process_precision;

    case '*':
      precision = va_arg(ap, int);
    800012e0:	f9043783          	ld	a5,-112(s0)
    800012e4:	00878713          	addi	a4,a5,8
    800012e8:	f8e43823          	sd	a4,-112(s0)
    800012ec:	439c                	lw	a5,0(a5)
    800012ee:	fcf42423          	sw	a5,-56(s0)
      goto process_precision;
    800012f2:	a831                	j	8000130e <vprintfmt+0x154>

    case '.':
      if (width < 0)
    800012f4:	fcc42783          	lw	a5,-52(s0)
    800012f8:	2781                	sext.w	a5,a5
    800012fa:	f207dde3          	bgez	a5,80001234 <vprintfmt+0x7a>
        width = 0;
    800012fe:	fc042623          	sw	zero,-52(s0)
      goto reswitch;
    80001302:	bf0d                	j	80001234 <vprintfmt+0x7a>

    case '#':
      altflag = 1;
    80001304:	4785                	li	a5,1
    80001306:	faf42a23          	sw	a5,-76(s0)
      goto reswitch;
    8000130a:	b72d                	j	80001234 <vprintfmt+0x7a>
      goto process_precision;
    8000130c:	0001                	nop

    process_precision:
      if (width < 0)
    8000130e:	fcc42783          	lw	a5,-52(s0)
    80001312:	2781                	sext.w	a5,a5
    80001314:	f207d0e3          	bgez	a5,80001234 <vprintfmt+0x7a>
        width = precision, precision = -1;
    80001318:	fc842783          	lw	a5,-56(s0)
    8000131c:	fcf42623          	sw	a5,-52(s0)
    80001320:	57fd                	li	a5,-1
    80001322:	fcf42423          	sw	a5,-56(s0)
      goto reswitch;
    80001326:	b739                	j	80001234 <vprintfmt+0x7a>

    // long flag (doubled for long long)
    case 'l':
      lflag++;
    80001328:	fd042783          	lw	a5,-48(s0)
    8000132c:	2785                	addiw	a5,a5,1
    8000132e:	fcf42823          	sw	a5,-48(s0)
      goto reswitch;
    80001332:	b709                	j	80001234 <vprintfmt+0x7a>

    // character
    case 'c':
      putch(va_arg(ap, int), putdat);
    80001334:	f9043783          	ld	a5,-112(s0)
    80001338:	00878713          	addi	a4,a5,8
    8000133c:	f8e43823          	sd	a4,-112(s0)
    80001340:	4398                	lw	a4,0(a5)
    80001342:	fa843783          	ld	a5,-88(s0)
    80001346:	fa043583          	ld	a1,-96(s0)
    8000134a:	853a                	mv	a0,a4
    8000134c:	9782                	jalr	a5
      break;
    8000134e:	aa6d                	j	80001508 <vprintfmt+0x34e>

    // string
    case 's':
      if ((p = va_arg(ap, char *)) == NULL)
    80001350:	f9043783          	ld	a5,-112(s0)
    80001354:	00878713          	addi	a4,a5,8
    80001358:	f8e43823          	sd	a4,-112(s0)
    8000135c:	0007b903          	ld	s2,0(a5)
    80001360:	00091663          	bnez	s2,8000136c <vprintfmt+0x1b2>
        p = "(null)";
    80001364:	00000917          	auipc	s2,0x0
    80001368:	7d490913          	addi	s2,s2,2004 # 80001b38 <atol+0x1da>
      if (width > 0 && padc != '-')
    8000136c:	fcc42783          	lw	a5,-52(s0)
    80001370:	2781                	sext.w	a5,a5
    80001372:	06f05b63          	blez	a5,800013e8 <vprintfmt+0x22e>
    80001376:	fc744783          	lbu	a5,-57(s0)
    8000137a:	0ff7f713          	zext.b	a4,a5
    8000137e:	02d00793          	li	a5,45
    80001382:	06f70363          	beq	a4,a5,800013e8 <vprintfmt+0x22e>
        for (width -= strnlen(p, precision); width > 0; width--)
    80001386:	fcc42483          	lw	s1,-52(s0)
    8000138a:	fc842783          	lw	a5,-56(s0)
    8000138e:	85be                	mv	a1,a5
    80001390:	854a                	mv	a0,s2
    80001392:	4b6000ef          	jal	80001848 <strnlen>
    80001396:	87aa                	mv	a5,a0
    80001398:	2781                	sext.w	a5,a5
    8000139a:	40f487bb          	subw	a5,s1,a5
    8000139e:	2781                	sext.w	a5,a5
    800013a0:	fcf42623          	sw	a5,-52(s0)
    800013a4:	a005                	j	800013c4 <vprintfmt+0x20a>
          putch(padc, putdat);
    800013a6:	fc744783          	lbu	a5,-57(s0)
    800013aa:	0007871b          	sext.w	a4,a5
    800013ae:	fa843783          	ld	a5,-88(s0)
    800013b2:	fa043583          	ld	a1,-96(s0)
    800013b6:	853a                	mv	a0,a4
    800013b8:	9782                	jalr	a5
        for (width -= strnlen(p, precision); width > 0; width--)
    800013ba:	fcc42783          	lw	a5,-52(s0)
    800013be:	37fd                	addiw	a5,a5,-1
    800013c0:	fcf42623          	sw	a5,-52(s0)
    800013c4:	fcc42783          	lw	a5,-52(s0)
    800013c8:	2781                	sext.w	a5,a5
    800013ca:	fcf04ee3          	bgtz	a5,800013a6 <vprintfmt+0x1ec>
      for (; (ch = *p) != '\0' && (precision < 0 || --precision >= 0); width--) {
    800013ce:	a829                	j	800013e8 <vprintfmt+0x22e>
        putch(ch, putdat);
    800013d0:	fa843783          	ld	a5,-88(s0)
    800013d4:	fa043583          	ld	a1,-96(s0)
    800013d8:	8526                	mv	a0,s1
    800013da:	9782                	jalr	a5
        p++;
    800013dc:	0905                	addi	s2,s2,1
      for (; (ch = *p) != '\0' && (precision < 0 || --precision >= 0); width--) {
    800013de:	fcc42783          	lw	a5,-52(s0)
    800013e2:	37fd                	addiw	a5,a5,-1
    800013e4:	fcf42623          	sw	a5,-52(s0)
    800013e8:	00094783          	lbu	a5,0(s2)
    800013ec:	0007849b          	sext.w	s1,a5
    800013f0:	cc8d                	beqz	s1,8000142a <vprintfmt+0x270>
    800013f2:	fc842783          	lw	a5,-56(s0)
    800013f6:	2781                	sext.w	a5,a5
    800013f8:	fc07cce3          	bltz	a5,800013d0 <vprintfmt+0x216>
    800013fc:	fc842783          	lw	a5,-56(s0)
    80001400:	37fd                	addiw	a5,a5,-1
    80001402:	fcf42423          	sw	a5,-56(s0)
    80001406:	fc842783          	lw	a5,-56(s0)
    8000140a:	2781                	sext.w	a5,a5
    8000140c:	fc07d2e3          	bgez	a5,800013d0 <vprintfmt+0x216>
      }
      for (; width > 0; width--)
    80001410:	a829                	j	8000142a <vprintfmt+0x270>
        putch(' ', putdat);
    80001412:	fa843783          	ld	a5,-88(s0)
    80001416:	fa043583          	ld	a1,-96(s0)
    8000141a:	02000513          	li	a0,32
    8000141e:	9782                	jalr	a5
      for (; width > 0; width--)
    80001420:	fcc42783          	lw	a5,-52(s0)
    80001424:	37fd                	addiw	a5,a5,-1
    80001426:	fcf42623          	sw	a5,-52(s0)
    8000142a:	fcc42783          	lw	a5,-52(s0)
    8000142e:	2781                	sext.w	a5,a5
    80001430:	fef041e3          	bgtz	a5,80001412 <vprintfmt+0x258>
      break;
    80001434:	a8d1                	j	80001508 <vprintfmt+0x34e>

    // (signed) decimal
    case 'd':
      num = getint(&ap, lflag);
    80001436:	fd042703          	lw	a4,-48(s0)
    8000143a:	f9040793          	addi	a5,s0,-112
    8000143e:	85ba                	mv	a1,a4
    80001440:	853e                	mv	a0,a5
    80001442:	d0dff0ef          	jal	8000114e <getint>
    80001446:	87aa                	mv	a5,a0
    80001448:	fcf43c23          	sd	a5,-40(s0)
      if ((long long) num < 0) {
    8000144c:	fd843783          	ld	a5,-40(s0)
    80001450:	0007df63          	bgez	a5,8000146e <vprintfmt+0x2b4>
        putch('-', putdat);
    80001454:	fa843783          	ld	a5,-88(s0)
    80001458:	fa043583          	ld	a1,-96(s0)
    8000145c:	02d00513          	li	a0,45
    80001460:	9782                	jalr	a5
        num = -(long long) num;
    80001462:	fd843783          	ld	a5,-40(s0)
    80001466:	40f007b3          	neg	a5,a5
    8000146a:	fcf43c23          	sd	a5,-40(s0)
      }
      base = 10;
    8000146e:	47a9                	li	a5,10
    80001470:	fcf42a23          	sw	a5,-44(s0)
      goto signed_number;
    80001474:	a0b9                	j	800014c2 <vprintfmt+0x308>

    // unsigned decimal
    case 'u':
      base = 10;
    80001476:	47a9                	li	a5,10
    80001478:	fcf42a23          	sw	a5,-44(s0)
      goto unsigned_number;
    8000147c:	a80d                	j	800014ae <vprintfmt+0x2f4>

    // (unsigned) octal
    case 'o':
      // should do something with padding so it's always 3 octits
      base = 8;
    8000147e:	47a1                	li	a5,8
    80001480:	fcf42a23          	sw	a5,-44(s0)
      goto unsigned_number;
    80001484:	a02d                	j	800014ae <vprintfmt+0x2f4>

    // pointer
    case 'p':
      static_assert(sizeof(long) == sizeof(void*));
      lflag = 1;
    80001486:	4785                	li	a5,1
    80001488:	fcf42823          	sw	a5,-48(s0)
      putch('0', putdat);
    8000148c:	fa843783          	ld	a5,-88(s0)
    80001490:	fa043583          	ld	a1,-96(s0)
    80001494:	03000513          	li	a0,48
    80001498:	9782                	jalr	a5
      putch('x', putdat);
    8000149a:	fa843783          	ld	a5,-88(s0)
    8000149e:	fa043583          	ld	a1,-96(s0)
    800014a2:	07800513          	li	a0,120
    800014a6:	9782                	jalr	a5
      /* fall through to 'x' */

    // (unsigned) hexadecimal
    case 'x':
      base = 16;
    800014a8:	47c1                	li	a5,16
    800014aa:	fcf42a23          	sw	a5,-44(s0)
    unsigned_number:
      num = getuint(&ap, lflag);
    800014ae:	fd042703          	lw	a4,-48(s0)
    800014b2:	f9040793          	addi	a5,s0,-112
    800014b6:	85ba                	mv	a1,a4
    800014b8:	853e                	mv	a0,a5
    800014ba:	c25ff0ef          	jal	800010de <getuint>
    800014be:	fca43c23          	sd	a0,-40(s0)
    signed_number:
      printnum(putch, putdat, num, base, width, padc);
    800014c2:	fd442683          	lw	a3,-44(s0)
    800014c6:	fc744783          	lbu	a5,-57(s0)
    800014ca:	2781                	sext.w	a5,a5
    800014cc:	fcc42703          	lw	a4,-52(s0)
    800014d0:	fd843603          	ld	a2,-40(s0)
    800014d4:	fa043583          	ld	a1,-96(s0)
    800014d8:	fa843503          	ld	a0,-88(s0)
    800014dc:	b0bff0ef          	jal	80000fe6 <printnum>
      break;
    800014e0:	a025                	j	80001508 <vprintfmt+0x34e>

    // escaped '%' character
    case '%':
      putch(ch, putdat);
    800014e2:	fa843783          	ld	a5,-88(s0)
    800014e6:	fa043583          	ld	a1,-96(s0)
    800014ea:	8526                	mv	a0,s1
    800014ec:	9782                	jalr	a5
      break;
    800014ee:	a829                	j	80001508 <vprintfmt+0x34e>
      
    // unrecognized escape sequence - just print it literally
    default:
      putch('%', putdat);
    800014f0:	fa843783          	ld	a5,-88(s0)
    800014f4:	fa043583          	ld	a1,-96(s0)
    800014f8:	02500513          	li	a0,37
    800014fc:	9782                	jalr	a5
      fmt = last_fmt;
    800014fe:	fb843783          	ld	a5,-72(s0)
    80001502:	f8f43c23          	sd	a5,-104(s0)
      break;
    80001506:	0001                	nop
    while ((ch = *(unsigned char *) fmt) != '%') {
    80001508:	b1ed                	j	800011f2 <vprintfmt+0x38>
        return;
    8000150a:	0001                	nop
    }
  }
}
    8000150c:	70a6                	ld	ra,104(sp)
    8000150e:	7406                	ld	s0,96(sp)
    80001510:	64e6                	ld	s1,88(sp)
    80001512:	6946                	ld	s2,80(sp)
    80001514:	6165                	addi	sp,sp,112
    80001516:	8082                	ret

0000000080001518 <printf>:

int printf(const char* fmt, ...)
{
    80001518:	7159                	addi	sp,sp,-112
    8000151a:	f406                	sd	ra,40(sp)
    8000151c:	f022                	sd	s0,32(sp)
    8000151e:	1800                	addi	s0,sp,48
    80001520:	fca43c23          	sd	a0,-40(s0)
    80001524:	e40c                	sd	a1,8(s0)
    80001526:	e810                	sd	a2,16(s0)
    80001528:	ec14                	sd	a3,24(s0)
    8000152a:	f018                	sd	a4,32(s0)
    8000152c:	f41c                	sd	a5,40(s0)
    8000152e:	03043823          	sd	a6,48(s0)
    80001532:	03143c23          	sd	a7,56(s0)
  va_list ap;
  va_start(ap, fmt);
    80001536:	04040793          	addi	a5,s0,64
    8000153a:	fcf43823          	sd	a5,-48(s0)
    8000153e:	fd043783          	ld	a5,-48(s0)
    80001542:	fc878793          	addi	a5,a5,-56
    80001546:	fef43423          	sd	a5,-24(s0)

  vprintfmt((void*)putchar, 0, fmt, ap);
    8000154a:	fe843783          	ld	a5,-24(s0)
    8000154e:	86be                	mv	a3,a5
    80001550:	fd843603          	ld	a2,-40(s0)
    80001554:	4581                	li	a1,0
    80001556:	00000517          	auipc	a0,0x0
    8000155a:	9dc50513          	addi	a0,a0,-1572 # 80000f32 <putchar>
    8000155e:	c5dff0ef          	jal	800011ba <vprintfmt>

  va_end(ap);
  return 0; // incorrect return value, but who cares, anyway?
    80001562:	4781                	li	a5,0
}
    80001564:	853e                	mv	a0,a5
    80001566:	70a2                	ld	ra,40(sp)
    80001568:	7402                	ld	s0,32(sp)
    8000156a:	6165                	addi	sp,sp,112
    8000156c:	8082                	ret

000000008000156e <sprintf_putch.0>:
  va_list ap;
  char* str0 = str;
  va_start(ap, fmt);

  void sprintf_putch(int ch, void** data)
  {
    8000156e:	7139                	addi	sp,sp,-64
    80001570:	fc06                	sd	ra,56(sp)
    80001572:	f822                	sd	s0,48(sp)
    80001574:	0080                	addi	s0,sp,64
    80001576:	87aa                	mv	a5,a0
    80001578:	fcb43823          	sd	a1,-48(s0)
    8000157c:	fcf42e23          	sw	a5,-36(s0)
    80001580:	fc743423          	sd	t2,-56(s0)
    char** pstr = (char**)data;
    80001584:	fd043783          	ld	a5,-48(s0)
    80001588:	fef43423          	sd	a5,-24(s0)
    **pstr = ch;
    8000158c:	fe843783          	ld	a5,-24(s0)
    80001590:	639c                	ld	a5,0(a5)
    80001592:	fdc42703          	lw	a4,-36(s0)
    80001596:	0ff77713          	zext.b	a4,a4
    8000159a:	00e78023          	sb	a4,0(a5)
    (*pstr)++;
    8000159e:	fe843783          	ld	a5,-24(s0)
    800015a2:	639c                	ld	a5,0(a5)
    800015a4:	00178713          	addi	a4,a5,1
    800015a8:	fe843783          	ld	a5,-24(s0)
    800015ac:	e398                	sd	a4,0(a5)
  }
    800015ae:	0001                	nop
    800015b0:	70e2                	ld	ra,56(sp)
    800015b2:	7442                	ld	s0,48(sp)
    800015b4:	6121                	addi	sp,sp,64
    800015b6:	8082                	ret

00000000800015b8 <sprintf>:
{
    800015b8:	716d                	addi	sp,sp,-272
    800015ba:	ed86                	sd	ra,216(sp)
    800015bc:	e9a2                	sd	s0,208(sp)
    800015be:	1180                	addi	s0,sp,224
    800015c0:	f2a43c23          	sd	a0,-200(s0)
    800015c4:	f2b43823          	sd	a1,-208(s0)
    800015c8:	e010                	sd	a2,0(s0)
    800015ca:	e414                	sd	a3,8(s0)
    800015cc:	e818                	sd	a4,16(s0)
    800015ce:	ec1c                	sd	a5,24(s0)
    800015d0:	03043023          	sd	a6,32(s0)
    800015d4:	03143423          	sd	a7,40(s0)
int	feof (FILE *);
int	ferror (FILE *);
void    perror (const char *);
#ifndef _REENT_ONLY
FILE *	fopen (const char *__restrict _name, const char *__restrict _type);
int	sprintf (char *__restrict, const char *__restrict, ...)
    800015d8:	03040793          	addi	a5,s0,48
    800015dc:	f2f43423          	sd	a5,-216(s0)
    800015e0:	f2843783          	ld	a5,-216(s0)
    800015e4:	fcf43c23          	sd	a5,-40(s0)
    800015e8:	f4840793          	addi	a5,s0,-184
    800015ec:	f4840713          	addi	a4,s0,-184
    800015f0:	39700693          	li	a3,919
    800015f4:	c394                	sw	a3,0(a5)
    800015f6:	0183b6b7          	lui	a3,0x183b
    800015fa:	28368693          	addi	a3,a3,643 # 183b283 <threadsense.3+0x183b27f>
    800015fe:	c3d4                	sw	a3,4(a5)
    80001600:	0103b6b7          	lui	a3,0x103b
    80001604:	38368693          	addi	a3,a3,899 # 103b383 <threadsense.3+0x103b37f>
    80001608:	c794                	sw	a3,8(a5)
    8000160a:	000286b7          	lui	a3,0x28
    8000160e:	06768693          	addi	a3,a3,103 # 28067 <threadsense.3+0x28063>
    80001612:	c7d4                	sw	a3,12(a5)
    80001614:	eb98                	sd	a4,16(a5)
    80001616:	00000717          	auipc	a4,0x0
    8000161a:	f5870713          	addi	a4,a4,-168 # 8000156e <sprintf_putch.0>
    8000161e:	ef98                	sd	a4,24(a5)
    80001620:	0000100f          	fence.i
  char* str0 = str;
    80001624:	f3843783          	ld	a5,-200(s0)
    80001628:	fef43423          	sd	a5,-24(s0)
  va_start(ap, fmt);
    8000162c:	03040793          	addi	a5,s0,48
    80001630:	f2f43423          	sd	a5,-216(s0)
    80001634:	f2843783          	ld	a5,-216(s0)
    80001638:	fd078793          	addi	a5,a5,-48
    8000163c:	fef43023          	sd	a5,-32(s0)

  vprintfmt(sprintf_putch, (void**)&str, fmt, ap);
    80001640:	fe043703          	ld	a4,-32(s0)
    80001644:	f4840793          	addi	a5,s0,-184
    80001648:	853e                	mv	a0,a5
    8000164a:	f3840793          	addi	a5,s0,-200
    8000164e:	86ba                	mv	a3,a4
    80001650:	f3043603          	ld	a2,-208(s0)
    80001654:	85be                	mv	a1,a5
    80001656:	b65ff0ef          	jal	800011ba <vprintfmt>
  *str = 0;
    8000165a:	f3843783          	ld	a5,-200(s0)
    8000165e:	00078023          	sb	zero,0(a5)

  va_end(ap);
  return str - str0;
    80001662:	f3843703          	ld	a4,-200(s0)
    80001666:	fe843783          	ld	a5,-24(s0)
    8000166a:	40f707b3          	sub	a5,a4,a5
    8000166e:	2781                	sext.w	a5,a5
}
    80001670:	853e                	mv	a0,a5
    80001672:	60ee                	ld	ra,216(sp)
    80001674:	644e                	ld	s0,208(sp)
    80001676:	6151                	addi	sp,sp,272
    80001678:	8082                	ret

000000008000167a <memcpy>:

void* memcpy(void* dest, const void* src, size_t len)
{
    8000167a:	715d                	addi	sp,sp,-80
    8000167c:	e486                	sd	ra,72(sp)
    8000167e:	e0a2                	sd	s0,64(sp)
    80001680:	0880                	addi	s0,sp,80
    80001682:	fca43423          	sd	a0,-56(s0)
    80001686:	fcb43023          	sd	a1,-64(s0)
    8000168a:	fac43c23          	sd	a2,-72(s0)
  if ((((uintptr_t)dest | (uintptr_t)src | len) & (sizeof(uintptr_t)-1)) == 0) {
    8000168e:	fc843703          	ld	a4,-56(s0)
    80001692:	fc043783          	ld	a5,-64(s0)
    80001696:	8f5d                	or	a4,a4,a5
    80001698:	fb843783          	ld	a5,-72(s0)
    8000169c:	8fd9                	or	a5,a5,a4
    8000169e:	8b9d                	andi	a5,a5,7
    800016a0:	e3b1                	bnez	a5,800016e4 <memcpy+0x6a>
    const uintptr_t* s = src;
    800016a2:	fc043783          	ld	a5,-64(s0)
    800016a6:	fef43423          	sd	a5,-24(s0)
    uintptr_t *d = dest;
    800016aa:	fc843783          	ld	a5,-56(s0)
    800016ae:	fef43023          	sd	a5,-32(s0)
    while (d < (uintptr_t*)(dest + len))
    800016b2:	a839                	j	800016d0 <memcpy+0x56>
      *d++ = *s++;
    800016b4:	fe843703          	ld	a4,-24(s0)
    800016b8:	00870793          	addi	a5,a4,8
    800016bc:	fef43423          	sd	a5,-24(s0)
    800016c0:	fe043783          	ld	a5,-32(s0)
    800016c4:	00878693          	addi	a3,a5,8
    800016c8:	fed43023          	sd	a3,-32(s0)
    800016cc:	6318                	ld	a4,0(a4)
    800016ce:	e398                	sd	a4,0(a5)
    while (d < (uintptr_t*)(dest + len))
    800016d0:	fc843703          	ld	a4,-56(s0)
    800016d4:	fb843783          	ld	a5,-72(s0)
    800016d8:	97ba                	add	a5,a5,a4
    800016da:	fe043703          	ld	a4,-32(s0)
    800016de:	fcf76be3          	bltu	a4,a5,800016b4 <memcpy+0x3a>
    800016e2:	a099                	j	80001728 <memcpy+0xae>
  } else {
    const char* s = src;
    800016e4:	fc043783          	ld	a5,-64(s0)
    800016e8:	fcf43c23          	sd	a5,-40(s0)
    char *d = dest;
    800016ec:	fc843783          	ld	a5,-56(s0)
    800016f0:	fcf43823          	sd	a5,-48(s0)
    while (d < (char*)(dest + len))
    800016f4:	a00d                	j	80001716 <memcpy+0x9c>
      *d++ = *s++;
    800016f6:	fd843703          	ld	a4,-40(s0)
    800016fa:	00170793          	addi	a5,a4,1
    800016fe:	fcf43c23          	sd	a5,-40(s0)
    80001702:	fd043783          	ld	a5,-48(s0)
    80001706:	00178693          	addi	a3,a5,1
    8000170a:	fcd43823          	sd	a3,-48(s0)
    8000170e:	00074703          	lbu	a4,0(a4)
    80001712:	00e78023          	sb	a4,0(a5)
    while (d < (char*)(dest + len))
    80001716:	fc843703          	ld	a4,-56(s0)
    8000171a:	fb843783          	ld	a5,-72(s0)
    8000171e:	97ba                	add	a5,a5,a4
    80001720:	fd043703          	ld	a4,-48(s0)
    80001724:	fcf769e3          	bltu	a4,a5,800016f6 <memcpy+0x7c>
  }
  return dest;
    80001728:	fc843783          	ld	a5,-56(s0)
}
    8000172c:	853e                	mv	a0,a5
    8000172e:	60a6                	ld	ra,72(sp)
    80001730:	6406                	ld	s0,64(sp)
    80001732:	6161                	addi	sp,sp,80
    80001734:	8082                	ret

0000000080001736 <memset>:

void* memset(void* dest, int byte, size_t len)
{
    80001736:	715d                	addi	sp,sp,-80
    80001738:	e486                	sd	ra,72(sp)
    8000173a:	e0a2                	sd	s0,64(sp)
    8000173c:	0880                	addi	s0,sp,80
    8000173e:	fca43423          	sd	a0,-56(s0)
    80001742:	87ae                	mv	a5,a1
    80001744:	fac43c23          	sd	a2,-72(s0)
    80001748:	fcf42223          	sw	a5,-60(s0)
  if ((((uintptr_t)dest | len) & (sizeof(uintptr_t)-1)) == 0) {
    8000174c:	fc843703          	ld	a4,-56(s0)
    80001750:	fb843783          	ld	a5,-72(s0)
    80001754:	8fd9                	or	a5,a5,a4
    80001756:	8b9d                	andi	a5,a5,7
    80001758:	e7bd                	bnez	a5,800017c6 <memset+0x90>
    uintptr_t word = byte & 0xFF;
    8000175a:	fc442783          	lw	a5,-60(s0)
    8000175e:	0ff7f793          	zext.b	a5,a5
    80001762:	fcf43c23          	sd	a5,-40(s0)
    word |= word << 8;
    80001766:	fd843783          	ld	a5,-40(s0)
    8000176a:	07a2                	slli	a5,a5,0x8
    8000176c:	fd843703          	ld	a4,-40(s0)
    80001770:	8fd9                	or	a5,a5,a4
    80001772:	fcf43c23          	sd	a5,-40(s0)
    word |= word << 16;
    80001776:	fd843783          	ld	a5,-40(s0)
    8000177a:	07c2                	slli	a5,a5,0x10
    8000177c:	fd843703          	ld	a4,-40(s0)
    80001780:	8fd9                	or	a5,a5,a4
    80001782:	fcf43c23          	sd	a5,-40(s0)
    word |= word << 16 << 16;
    80001786:	fd843783          	ld	a5,-40(s0)
    8000178a:	1782                	slli	a5,a5,0x20
    8000178c:	fd843703          	ld	a4,-40(s0)
    80001790:	8fd9                	or	a5,a5,a4
    80001792:	fcf43c23          	sd	a5,-40(s0)

    uintptr_t *d = dest;
    80001796:	fc843783          	ld	a5,-56(s0)
    8000179a:	fef43423          	sd	a5,-24(s0)
    while (d < (uintptr_t*)(dest + len))
    8000179e:	a811                	j	800017b2 <memset+0x7c>
      *d++ = word;
    800017a0:	fe843783          	ld	a5,-24(s0)
    800017a4:	00878713          	addi	a4,a5,8
    800017a8:	fee43423          	sd	a4,-24(s0)
    800017ac:	fd843703          	ld	a4,-40(s0)
    800017b0:	e398                	sd	a4,0(a5)
    while (d < (uintptr_t*)(dest + len))
    800017b2:	fc843703          	ld	a4,-56(s0)
    800017b6:	fb843783          	ld	a5,-72(s0)
    800017ba:	97ba                	add	a5,a5,a4
    800017bc:	fe843703          	ld	a4,-24(s0)
    800017c0:	fef760e3          	bltu	a4,a5,800017a0 <memset+0x6a>
    800017c4:	a81d                	j	800017fa <memset+0xc4>
  } else {
    char *d = dest;
    800017c6:	fc843783          	ld	a5,-56(s0)
    800017ca:	fef43023          	sd	a5,-32(s0)
    while (d < (char*)(dest + len))
    800017ce:	a829                	j	800017e8 <memset+0xb2>
      *d++ = byte;
    800017d0:	fe043783          	ld	a5,-32(s0)
    800017d4:	00178713          	addi	a4,a5,1
    800017d8:	fee43023          	sd	a4,-32(s0)
    800017dc:	fc442703          	lw	a4,-60(s0)
    800017e0:	0ff77713          	zext.b	a4,a4
    800017e4:	00e78023          	sb	a4,0(a5)
    while (d < (char*)(dest + len))
    800017e8:	fc843703          	ld	a4,-56(s0)
    800017ec:	fb843783          	ld	a5,-72(s0)
    800017f0:	97ba                	add	a5,a5,a4
    800017f2:	fe043703          	ld	a4,-32(s0)
    800017f6:	fcf76de3          	bltu	a4,a5,800017d0 <memset+0x9a>
  }
  return dest;
    800017fa:	fc843783          	ld	a5,-56(s0)
}
    800017fe:	853e                	mv	a0,a5
    80001800:	60a6                	ld	ra,72(sp)
    80001802:	6406                	ld	s0,64(sp)
    80001804:	6161                	addi	sp,sp,80
    80001806:	8082                	ret

0000000080001808 <strlen>:

size_t strlen(const char *s)
{
    80001808:	7179                	addi	sp,sp,-48
    8000180a:	f406                	sd	ra,40(sp)
    8000180c:	f022                	sd	s0,32(sp)
    8000180e:	1800                	addi	s0,sp,48
    80001810:	fca43c23          	sd	a0,-40(s0)
  const char *p = s;
    80001814:	fd843783          	ld	a5,-40(s0)
    80001818:	fef43423          	sd	a5,-24(s0)
  while (*p)
    8000181c:	a031                	j	80001828 <strlen+0x20>
    p++;
    8000181e:	fe843783          	ld	a5,-24(s0)
    80001822:	0785                	addi	a5,a5,1
    80001824:	fef43423          	sd	a5,-24(s0)
  while (*p)
    80001828:	fe843783          	ld	a5,-24(s0)
    8000182c:	0007c783          	lbu	a5,0(a5)
    80001830:	f7fd                	bnez	a5,8000181e <strlen+0x16>
  return p - s;
    80001832:	fe843703          	ld	a4,-24(s0)
    80001836:	fd843783          	ld	a5,-40(s0)
    8000183a:	40f707b3          	sub	a5,a4,a5
}
    8000183e:	853e                	mv	a0,a5
    80001840:	70a2                	ld	ra,40(sp)
    80001842:	7402                	ld	s0,32(sp)
    80001844:	6145                	addi	sp,sp,48
    80001846:	8082                	ret

0000000080001848 <strnlen>:

size_t strnlen(const char *s, size_t n)
{
    80001848:	7179                	addi	sp,sp,-48
    8000184a:	f406                	sd	ra,40(sp)
    8000184c:	f022                	sd	s0,32(sp)
    8000184e:	1800                	addi	s0,sp,48
    80001850:	fca43c23          	sd	a0,-40(s0)
    80001854:	fcb43823          	sd	a1,-48(s0)
  const char *p = s;
    80001858:	fd843783          	ld	a5,-40(s0)
    8000185c:	fef43423          	sd	a5,-24(s0)
  while (n-- && *p)
    80001860:	a031                	j	8000186c <strnlen+0x24>
    p++;
    80001862:	fe843783          	ld	a5,-24(s0)
    80001866:	0785                	addi	a5,a5,1
    80001868:	fef43423          	sd	a5,-24(s0)
  while (n-- && *p)
    8000186c:	fd043783          	ld	a5,-48(s0)
    80001870:	fff78713          	addi	a4,a5,-1
    80001874:	fce43823          	sd	a4,-48(s0)
    80001878:	c791                	beqz	a5,80001884 <strnlen+0x3c>
    8000187a:	fe843783          	ld	a5,-24(s0)
    8000187e:	0007c783          	lbu	a5,0(a5)
    80001882:	f3e5                	bnez	a5,80001862 <strnlen+0x1a>
  return p - s;
    80001884:	fe843703          	ld	a4,-24(s0)
    80001888:	fd843783          	ld	a5,-40(s0)
    8000188c:	40f707b3          	sub	a5,a4,a5
}
    80001890:	853e                	mv	a0,a5
    80001892:	70a2                	ld	ra,40(sp)
    80001894:	7402                	ld	s0,32(sp)
    80001896:	6145                	addi	sp,sp,48
    80001898:	8082                	ret

000000008000189a <strcmp>:

int strcmp(const char* s1, const char* s2)
{
    8000189a:	7179                	addi	sp,sp,-48
    8000189c:	f406                	sd	ra,40(sp)
    8000189e:	f022                	sd	s0,32(sp)
    800018a0:	1800                	addi	s0,sp,48
    800018a2:	fca43c23          	sd	a0,-40(s0)
    800018a6:	fcb43823          	sd	a1,-48(s0)
  unsigned char c1, c2;

  do {
    c1 = *s1++;
    800018aa:	fd843783          	ld	a5,-40(s0)
    800018ae:	00178713          	addi	a4,a5,1
    800018b2:	fce43c23          	sd	a4,-40(s0)
    800018b6:	0007c783          	lbu	a5,0(a5)
    800018ba:	fef407a3          	sb	a5,-17(s0)
    c2 = *s2++;
    800018be:	fd043783          	ld	a5,-48(s0)
    800018c2:	00178713          	addi	a4,a5,1
    800018c6:	fce43823          	sd	a4,-48(s0)
    800018ca:	0007c783          	lbu	a5,0(a5)
    800018ce:	fef40723          	sb	a5,-18(s0)
  } while (c1 != 0 && c1 == c2);
    800018d2:	fef44783          	lbu	a5,-17(s0)
    800018d6:	0ff7f793          	zext.b	a5,a5
    800018da:	cf81                	beqz	a5,800018f2 <strcmp+0x58>
    800018dc:	fef44783          	lbu	a5,-17(s0)
    800018e0:	873e                	mv	a4,a5
    800018e2:	fee44783          	lbu	a5,-18(s0)
    800018e6:	0ff77713          	zext.b	a4,a4
    800018ea:	0ff7f793          	zext.b	a5,a5
    800018ee:	faf70ee3          	beq	a4,a5,800018aa <strcmp+0x10>

  return c1 - c2;
    800018f2:	fef44783          	lbu	a5,-17(s0)
    800018f6:	0007871b          	sext.w	a4,a5
    800018fa:	fee44783          	lbu	a5,-18(s0)
    800018fe:	2781                	sext.w	a5,a5
    80001900:	40f707bb          	subw	a5,a4,a5
    80001904:	2781                	sext.w	a5,a5
}
    80001906:	853e                	mv	a0,a5
    80001908:	70a2                	ld	ra,40(sp)
    8000190a:	7402                	ld	s0,32(sp)
    8000190c:	6145                	addi	sp,sp,48
    8000190e:	8082                	ret

0000000080001910 <strcpy>:

char* strcpy(char* dest, const char* src)
{
    80001910:	7179                	addi	sp,sp,-48
    80001912:	f406                	sd	ra,40(sp)
    80001914:	f022                	sd	s0,32(sp)
    80001916:	1800                	addi	s0,sp,48
    80001918:	fca43c23          	sd	a0,-40(s0)
    8000191c:	fcb43823          	sd	a1,-48(s0)
  char* d = dest;
    80001920:	fd843783          	ld	a5,-40(s0)
    80001924:	fef43423          	sd	a5,-24(s0)
  while ((*d++ = *src++))
    80001928:	0001                	nop
    8000192a:	fd043703          	ld	a4,-48(s0)
    8000192e:	00170793          	addi	a5,a4,1
    80001932:	fcf43823          	sd	a5,-48(s0)
    80001936:	fe843783          	ld	a5,-24(s0)
    8000193a:	00178693          	addi	a3,a5,1
    8000193e:	fed43423          	sd	a3,-24(s0)
    80001942:	00074703          	lbu	a4,0(a4)
    80001946:	00e78023          	sb	a4,0(a5)
    8000194a:	0007c783          	lbu	a5,0(a5)
    8000194e:	fff1                	bnez	a5,8000192a <strcpy+0x1a>
    ;
  return dest;
    80001950:	fd843783          	ld	a5,-40(s0)
}
    80001954:	853e                	mv	a0,a5
    80001956:	70a2                	ld	ra,40(sp)
    80001958:	7402                	ld	s0,32(sp)
    8000195a:	6145                	addi	sp,sp,48
    8000195c:	8082                	ret

000000008000195e <atol>:

long atol(const char* str)
{
    8000195e:	7179                	addi	sp,sp,-48
    80001960:	f406                	sd	ra,40(sp)
    80001962:	f022                	sd	s0,32(sp)
    80001964:	1800                	addi	s0,sp,48
    80001966:	fca43c23          	sd	a0,-40(s0)
  long res = 0;
    8000196a:	fe043423          	sd	zero,-24(s0)
  int sign = 0;
    8000196e:	fe042223          	sw	zero,-28(s0)

  while (*str == ' ')
    80001972:	a031                	j	8000197e <atol+0x20>
    str++;
    80001974:	fd843783          	ld	a5,-40(s0)
    80001978:	0785                	addi	a5,a5,1
    8000197a:	fcf43c23          	sd	a5,-40(s0)
  while (*str == ' ')
    8000197e:	fd843783          	ld	a5,-40(s0)
    80001982:	0007c783          	lbu	a5,0(a5)
    80001986:	873e                	mv	a4,a5
    80001988:	02000793          	li	a5,32
    8000198c:	fef704e3          	beq	a4,a5,80001974 <atol+0x16>

  if (*str == '-' || *str == '+') {
    80001990:	fd843783          	ld	a5,-40(s0)
    80001994:	0007c783          	lbu	a5,0(a5)
    80001998:	873e                	mv	a4,a5
    8000199a:	02d00793          	li	a5,45
    8000199e:	00f70b63          	beq	a4,a5,800019b4 <atol+0x56>
    800019a2:	fd843783          	ld	a5,-40(s0)
    800019a6:	0007c783          	lbu	a5,0(a5)
    800019aa:	873e                	mv	a4,a5
    800019ac:	02b00793          	li	a5,43
    800019b0:	06f71263          	bne	a4,a5,80001a14 <atol+0xb6>
    sign = *str == '-';
    800019b4:	fd843783          	ld	a5,-40(s0)
    800019b8:	0007c783          	lbu	a5,0(a5)
    800019bc:	0007871b          	sext.w	a4,a5
    800019c0:	02d00793          	li	a5,45
    800019c4:	40f707b3          	sub	a5,a4,a5
    800019c8:	0017b793          	seqz	a5,a5
    800019cc:	0ff7f793          	zext.b	a5,a5
    800019d0:	fef42223          	sw	a5,-28(s0)
    str++;
    800019d4:	fd843783          	ld	a5,-40(s0)
    800019d8:	0785                	addi	a5,a5,1
    800019da:	fcf43c23          	sd	a5,-40(s0)
  }

  while (*str) {
    800019de:	a81d                	j	80001a14 <atol+0xb6>
    res *= 10;
    800019e0:	fe843703          	ld	a4,-24(s0)
    800019e4:	87ba                	mv	a5,a4
    800019e6:	078a                	slli	a5,a5,0x2
    800019e8:	97ba                	add	a5,a5,a4
    800019ea:	0786                	slli	a5,a5,0x1
    800019ec:	fef43423          	sd	a5,-24(s0)
    res += *str++ - '0';
    800019f0:	fd843783          	ld	a5,-40(s0)
    800019f4:	00178713          	addi	a4,a5,1
    800019f8:	fce43c23          	sd	a4,-40(s0)
    800019fc:	0007c783          	lbu	a5,0(a5)
    80001a00:	2781                	sext.w	a5,a5
    80001a02:	fd07879b          	addiw	a5,a5,-48
    80001a06:	2781                	sext.w	a5,a5
    80001a08:	873e                	mv	a4,a5
    80001a0a:	fe843783          	ld	a5,-24(s0)
    80001a0e:	97ba                	add	a5,a5,a4
    80001a10:	fef43423          	sd	a5,-24(s0)
  while (*str) {
    80001a14:	fd843783          	ld	a5,-40(s0)
    80001a18:	0007c783          	lbu	a5,0(a5)
    80001a1c:	f3f1                	bnez	a5,800019e0 <atol+0x82>
  }

  return sign ? -res : res;
    80001a1e:	fe442783          	lw	a5,-28(s0)
    80001a22:	2781                	sext.w	a5,a5
    80001a24:	c791                	beqz	a5,80001a30 <atol+0xd2>
    80001a26:	fe843783          	ld	a5,-24(s0)
    80001a2a:	40f007b3          	neg	a5,a5
    80001a2e:	a019                	j	80001a34 <atol+0xd6>
    80001a30:	fe843783          	ld	a5,-24(s0)
}
    80001a34:	853e                	mv	a0,a5
    80001a36:	70a2                	ld	ra,40(sp)
    80001a38:	7402                	ld	s0,32(sp)
    80001a3a:	6145                	addi	sp,sp,48
    80001a3c:	8082                	ret

Disassembly of section .rodata:

0000000080001a40 <.rodata>:
    80001a40:	5b79                	li	s6,-2
    80001a42:	6425                	lui	s0,0x9
    80001a44:	205d                	.insn	2, 0x205d
    80001a46:	203d                	.insn	2, 0x203d
    80001a48:	7825                	lui	a6,0xfffe9
    80001a4a:	000a                	c.slli	zero,0x2
	...
    80001a54:	8c12                	mv	s8,tp
    80001a56:	4b3c                	lw	a5,80(a4)
    80001a58:	384d                	addiw	a6,a6,-13 # fffffffffffe8ff3 <__global_pointer$+0xffffffff7ffe67ab>
    80001a5a:	79bc                	ld	a5,112(a1)
    80001a5c:	384d                	addiw	a6,a6,-13
    80001a5e:	79bc                	ld	a5,112(a1)
    80001a60:	8c12                	mv	s8,tp
    80001a62:	4b3c                	lw	a5,80(a4)
    80001a64:	0000                	unimp
    80001a66:	0000                	unimp
    80001a68:	73ee                	ld	t2,248(sp)
    80001a6a:	c7b3b4c3          	.insn	4, 0xc7b3b4c3
    80001a6e:	c7b38643          	.insn	4, 0xc7b38643
    80001a72:	73ee8643          	fmadd.d	fa2,ft9,ft10,fa4,rne
    80001a76:	0000b4c3          	fmadd.s	fs1,ft1,ft0,ft0,rup
    80001a7a:	0000                	unimp
    80001a7c:	8c12                	mv	s8,tp
    80001a7e:	4b3c                	lw	a5,80(a4)
    80001a80:	384d                	addiw	a6,a6,-13
    80001a82:	79bc                	ld	a5,112(a1)
    80001a84:	384d                	addiw	a6,a6,-13
    80001a86:	79bc                	ld	a5,112(a1)
    80001a88:	8c12                	mv	s8,tp
    80001a8a:	4b3c                	lw	a5,80(a4)
    80001a8c:	0000                	unimp
    80001a8e:	0000                	unimp
    80001a90:	73ee                	ld	t2,248(sp)
    80001a92:	c7b3b4c3          	.insn	4, 0xc7b3b4c3
    80001a96:	c7b38643          	.insn	4, 0xc7b38643
    80001a9a:	73ee8643          	fmadd.d	fa2,ft9,ft10,fa4,rne
    80001a9e:	0001b4c3          	fmadd.s	fs1,ft3,ft0,ft0,rup
    80001aa2:	2000                	fld	fs0,0(s0)
    80001aa4:	0002                	c.slli64	zero
    80001aa6:	2000                	fld	fs0,0(s0)
    80001aa8:	20000003          	lb	zero,512(zero) # 200 <threadsense.3+0x1fc>
    80001aac:	0004                	.insn	2, 0x0004
    80001aae:	2000                	fld	fs0,0(s0)
    80001ab0:	4fad3f2f          	.insn	4, 0x4fad3f2f
    80001ab4:	6236                	ld	tp,328(sp)
    80001ab6:	627c                	ld	a5,192(a2)
    80001ab8:	3f32                	fld	ft10,296(sp)
    80001aba:	4fad                	li	t6,11
    80001abc:	1e6f0e17          	auipc	t3,0x1e6f0
    80001ac0:	e190f1eb          	.insn	4, 0xe190f1eb
    80001ac4:	c0ce                	sw	s3,64(sp)
    80001ac6:	b052                	fsd	fs4,32(sp)
    80001ac8:	9dc6                	add	s11,s11,a7
    80001aca:	c0cb9d83          	lh	s11,-1012(s7)
    80001ace:	b052                	fsd	fs4,32(sp)
    80001ad0:	f1e6                	sd	s9,224(sp)
    80001ad2:	e190                	sd	a2,0(a1)
    80001ad4:	0e12                	slli	t3,t3,0x4
    80001ad6:	3f2f1e6f          	jal	t3,800f2ec8 <__global_pointer$+0xf0680>
    80001ada:	4fad                	li	t6,11
    80001adc:	6236                	ld	tp,328(sp)
    80001ade:	627c                	ld	a5,192(a2)
    80001ae0:	3f32                	fld	ft10,296(sp)
    80001ae2:	4fad                	li	t6,11
    80001ae4:	1e6f0e17          	auipc	t3,0x1e6f0
    80001ae8:	e190f1eb          	.insn	4, 0xe190f1eb
    80001aec:	c0ce                	sw	s3,64(sp)
    80001aee:	b052                	fsd	fs4,32(sp)
    80001af0:	9dc6                	add	s11,s11,a7
    80001af2:	00009d83          	lh	s11,0(ra)
    80001af6:	0000                	unimp
    80001af8:	636d                	lui	t1,0x1b
    80001afa:	6379                	lui	t1,0x1e
    80001afc:	656c                	ld	a1,200(a0)
    80001afe:	0000                	unimp
    80001b00:	696d                	lui	s2,0x1b
    80001b02:	736e                	ld	t1,248(sp)
    80001b04:	7274                	ld	a3,224(a2)
    80001b06:	7465                	lui	s0,0xffff9
	...
    80001b10:	6d49                	lui	s10,0x12
    80001b12:	6c70                	ld	a2,216(s0)
    80001b14:	6d65                	lui	s10,0x19
    80001b16:	6e65                	lui	t3,0x19
    80001b18:	2074                	fld	fa3,192(s0)
    80001b1a:	616d                	addi	sp,sp,240
    80001b1c:	6e69                	lui	t3,0x1a
    80001b1e:	2928                	fld	fa0,80(a0)
    80001b20:	202c                	fld	fa1,64(s0)
    80001b22:	6f66                	ld	t5,88(sp)
    80001b24:	000a216f          	jal	sp,800a3b24 <__global_pointer$+0xa12dc>
    80001b28:	7325                	lui	t1,0xfffe9
    80001b2a:	3d20                	fld	fs0,120(a0)
    80001b2c:	2520                	fld	fs0,72(a0)
    80001b2e:	0a64                	addi	s1,sp,284
	...
    80001b38:	6e28                	ld	a0,88(a2)
    80001b3a:	6c75                	lui	s8,0x1d
    80001b3c:	296c                	fld	fa1,208(a0)
    80001b3e:	0000                	unimp
    80001b40:	f7c4                	sd	s1,168(a5)
    80001b42:	ffff                	.insn	2, 0xffff
    80001b44:	f9b0                	sd	a2,112(a1)
    80001b46:	ffff                	.insn	2, 0xffff
    80001b48:	f9a2                	sd	s0,240(sp)
    80001b4a:	ffff                	.insn	2, 0xffff
    80001b4c:	f9b0                	sd	a2,112(a1)
    80001b4e:	ffff                	.insn	2, 0xffff
    80001b50:	f9b0                	sd	a2,112(a1)
    80001b52:	ffff                	.insn	2, 0xffff
    80001b54:	f9b0                	sd	a2,112(a1)
    80001b56:	ffff                	.insn	2, 0xffff
    80001b58:	f9b0                	sd	a2,112(a1)
    80001b5a:	ffff                	.insn	2, 0xffff
    80001b5c:	f7a0                	sd	s0,104(a5)
    80001b5e:	ffff                	.insn	2, 0xffff
    80001b60:	f9b0                	sd	a2,112(a1)
    80001b62:	ffff                	.insn	2, 0xffff
    80001b64:	f9b0                	sd	a2,112(a1)
    80001b66:	ffff                	.insn	2, 0xffff
    80001b68:	f740                	sd	s0,168(a4)
    80001b6a:	ffff                	.insn	2, 0xffff
    80001b6c:	f7b4                	sd	a3,104(a5)
    80001b6e:	ffff                	.insn	2, 0xffff
    80001b70:	f9b0                	sd	a2,112(a1)
    80001b72:	ffff                	.insn	2, 0xffff
    80001b74:	f74a                	sd	s2,424(sp)
    80001b76:	ffff                	.insn	2, 0xffff
    80001b78:	f754                	sd	a3,168(a4)
    80001b7a:	ffff                	.insn	2, 0xffff
    80001b7c:	f754                	sd	a3,168(a4)
    80001b7e:	ffff                	.insn	2, 0xffff
    80001b80:	f754                	sd	a3,168(a4)
    80001b82:	ffff                	.insn	2, 0xffff
    80001b84:	f754                	sd	a3,168(a4)
    80001b86:	ffff                	.insn	2, 0xffff
    80001b88:	f754                	sd	a3,168(a4)
    80001b8a:	ffff                	.insn	2, 0xffff
    80001b8c:	f754                	sd	a3,168(a4)
    80001b8e:	ffff                	.insn	2, 0xffff
    80001b90:	f754                	sd	a3,168(a4)
    80001b92:	ffff                	.insn	2, 0xffff
    80001b94:	f754                	sd	a3,168(a4)
    80001b96:	ffff                	.insn	2, 0xffff
    80001b98:	f754                	sd	a3,168(a4)
    80001b9a:	ffff                	.insn	2, 0xffff
    80001b9c:	f9b0                	sd	a2,112(a1)
    80001b9e:	ffff                	.insn	2, 0xffff
    80001ba0:	f9b0                	sd	a2,112(a1)
    80001ba2:	ffff                	.insn	2, 0xffff
    80001ba4:	f9b0                	sd	a2,112(a1)
    80001ba6:	ffff                	.insn	2, 0xffff
    80001ba8:	f9b0                	sd	a2,112(a1)
    80001baa:	ffff                	.insn	2, 0xffff
    80001bac:	f9b0                	sd	a2,112(a1)
    80001bae:	ffff                	.insn	2, 0xffff
    80001bb0:	f9b0                	sd	a2,112(a1)
    80001bb2:	ffff                	.insn	2, 0xffff
    80001bb4:	f9b0                	sd	a2,112(a1)
    80001bb6:	ffff                	.insn	2, 0xffff
    80001bb8:	f9b0                	sd	a2,112(a1)
    80001bba:	ffff                	.insn	2, 0xffff
    80001bbc:	f9b0                	sd	a2,112(a1)
    80001bbe:	ffff                	.insn	2, 0xffff
    80001bc0:	f9b0                	sd	a2,112(a1)
    80001bc2:	ffff                	.insn	2, 0xffff
    80001bc4:	f9b0                	sd	a2,112(a1)
    80001bc6:	ffff                	.insn	2, 0xffff
    80001bc8:	f9b0                	sd	a2,112(a1)
    80001bca:	ffff                	.insn	2, 0xffff
    80001bcc:	f9b0                	sd	a2,112(a1)
    80001bce:	ffff                	.insn	2, 0xffff
    80001bd0:	f9b0                	sd	a2,112(a1)
    80001bd2:	ffff                	.insn	2, 0xffff
    80001bd4:	f9b0                	sd	a2,112(a1)
    80001bd6:	ffff                	.insn	2, 0xffff
    80001bd8:	f9b0                	sd	a2,112(a1)
    80001bda:	ffff                	.insn	2, 0xffff
    80001bdc:	f9b0                	sd	a2,112(a1)
    80001bde:	ffff                	.insn	2, 0xffff
    80001be0:	f9b0                	sd	a2,112(a1)
    80001be2:	ffff                	.insn	2, 0xffff
    80001be4:	f9b0                	sd	a2,112(a1)
    80001be6:	ffff                	.insn	2, 0xffff
    80001be8:	f9b0                	sd	a2,112(a1)
    80001bea:	ffff                	.insn	2, 0xffff
    80001bec:	f9b0                	sd	a2,112(a1)
    80001bee:	ffff                	.insn	2, 0xffff
    80001bf0:	f9b0                	sd	a2,112(a1)
    80001bf2:	ffff                	.insn	2, 0xffff
    80001bf4:	f9b0                	sd	a2,112(a1)
    80001bf6:	ffff                	.insn	2, 0xffff
    80001bf8:	f9b0                	sd	a2,112(a1)
    80001bfa:	ffff                	.insn	2, 0xffff
    80001bfc:	f9b0                	sd	a2,112(a1)
    80001bfe:	ffff                	.insn	2, 0xffff
    80001c00:	f9b0                	sd	a2,112(a1)
    80001c02:	ffff                	.insn	2, 0xffff
    80001c04:	f9b0                	sd	a2,112(a1)
    80001c06:	ffff                	.insn	2, 0xffff
    80001c08:	f9b0                	sd	a2,112(a1)
    80001c0a:	ffff                	.insn	2, 0xffff
    80001c0c:	f9b0                	sd	a2,112(a1)
    80001c0e:	ffff                	.insn	2, 0xffff
    80001c10:	f9b0                	sd	a2,112(a1)
    80001c12:	ffff                	.insn	2, 0xffff
    80001c14:	f9b0                	sd	a2,112(a1)
    80001c16:	ffff                	.insn	2, 0xffff
    80001c18:	f9b0                	sd	a2,112(a1)
    80001c1a:	ffff                	.insn	2, 0xffff
    80001c1c:	f9b0                	sd	a2,112(a1)
    80001c1e:	ffff                	.insn	2, 0xffff
    80001c20:	f9b0                	sd	a2,112(a1)
    80001c22:	ffff                	.insn	2, 0xffff
    80001c24:	f9b0                	sd	a2,112(a1)
    80001c26:	ffff                	.insn	2, 0xffff
    80001c28:	f9b0                	sd	a2,112(a1)
    80001c2a:	ffff                	.insn	2, 0xffff
    80001c2c:	f9b0                	sd	a2,112(a1)
    80001c2e:	ffff                	.insn	2, 0xffff
    80001c30:	f9b0                	sd	a2,112(a1)
    80001c32:	ffff                	.insn	2, 0xffff
    80001c34:	f9b0                	sd	a2,112(a1)
    80001c36:	ffff                	.insn	2, 0xffff
    80001c38:	f9b0                	sd	a2,112(a1)
    80001c3a:	ffff                	.insn	2, 0xffff
    80001c3c:	f9b0                	sd	a2,112(a1)
    80001c3e:	ffff                	.insn	2, 0xffff
    80001c40:	f7f4                	sd	a3,232(a5)
    80001c42:	ffff                	.insn	2, 0xffff
    80001c44:	f8f6                	sd	t4,112(sp)
    80001c46:	ffff                	.insn	2, 0xffff
    80001c48:	f9b0                	sd	a2,112(a1)
    80001c4a:	ffff                	.insn	2, 0xffff
    80001c4c:	f9b0                	sd	a2,112(a1)
    80001c4e:	ffff                	.insn	2, 0xffff
    80001c50:	f9b0                	sd	a2,112(a1)
    80001c52:	ffff                	.insn	2, 0xffff
    80001c54:	f9b0                	sd	a2,112(a1)
    80001c56:	ffff                	.insn	2, 0xffff
    80001c58:	f9b0                	sd	a2,112(a1)
    80001c5a:	ffff                	.insn	2, 0xffff
    80001c5c:	f9b0                	sd	a2,112(a1)
    80001c5e:	ffff                	.insn	2, 0xffff
    80001c60:	f9b0                	sd	a2,112(a1)
    80001c62:	ffff                	.insn	2, 0xffff
    80001c64:	f7e8                	sd	a0,232(a5)
    80001c66:	ffff                	.insn	2, 0xffff
    80001c68:	f9b0                	sd	a2,112(a1)
    80001c6a:	ffff                	.insn	2, 0xffff
    80001c6c:	f9b0                	sd	a2,112(a1)
    80001c6e:	ffff                	.insn	2, 0xffff
    80001c70:	f93e                	sd	a5,176(sp)
    80001c72:	ffff                	.insn	2, 0xffff
    80001c74:	f946                	sd	a7,176(sp)
    80001c76:	ffff                	.insn	2, 0xffff
    80001c78:	f9b0                	sd	a2,112(a1)
    80001c7a:	ffff                	.insn	2, 0xffff
    80001c7c:	f9b0                	sd	a2,112(a1)
    80001c7e:	ffff                	.insn	2, 0xffff
    80001c80:	f810                	sd	a2,48(s0)
    80001c82:	ffff                	.insn	2, 0xffff
    80001c84:	f9b0                	sd	a2,112(a1)
    80001c86:	ffff                	.insn	2, 0xffff
    80001c88:	f936                	sd	a3,176(sp)
    80001c8a:	ffff                	.insn	2, 0xffff
    80001c8c:	f9b0                	sd	a2,112(a1)
    80001c8e:	ffff                	.insn	2, 0xffff
    80001c90:	f9b0                	sd	a2,112(a1)
    80001c92:	ffff                	.insn	2, 0xffff
    80001c94:	f968                	sd	a0,240(a0)
    80001c96:	ffff                	.insn	2, 0xffff

Disassembly of section .tohost:

0000000080002000 <tohost>:
	...

0000000080002040 <fromhost>:
	...

Disassembly of section .debug_info:

0000000000000000 <.debug_info>:
       0:	056d                	addi	a0,a0,27
       2:	0000                	unimp
       4:	0002                	c.slli64	zero
       6:	0000                	unimp
       8:	0000                	unimp
       a:	0108                	addi	a0,sp,128
       c:	000000f7          	.insn	4, 0x00f7
      10:	1c0c                	addi	a1,sp,560
      12:	0000                	unimp
      14:	9e00                	.insn	2, 0x9e00
      16:	0001                	nop
      18:	c200                	sw	s0,0(a2)
      1a:	0001                	nop
      1c:	0080                	addi	s0,sp,64
      1e:	0000                	unimp
      20:	7000                	ld	s0,32(s0)
      22:	00800007          	.insn	4, 0x00800007
      26:	0000                	unimp
      28:	0000                	unimp
      2a:	0000                	unimp
      2c:	0200                	addi	s0,sp,256
      2e:	0601                	addi	a2,a2,0
      30:	003d                	c.nop	15
      32:	0000                	unimp
      34:	0102                	c.slli64	sp
      36:	3b08                	fld	fa0,48(a4)
      38:	0000                	unimp
      3a:	0200                	addi	s0,sp,256
      3c:	0502                	c.slli64	a0
      3e:	00d5                	addi	ra,ra,21
      40:	0000                	unimp
      42:	0202                	c.slli64	tp
      44:	00005707          	.insn	4, 0x5707
      48:	0300                	addi	s0,sp,384
      4a:	0012                	c.slli	zero,0x4
      4c:	0000                	unimp
      4e:	55184d03          	lbu	s10,1361(a6)
      52:	0000                	unimp
      54:	0400                	addi	s0,sp,512
      56:	0504                	addi	s1,sp,640
      58:	6e69                	lui	t3,0x1a
      5a:	0074                	addi	a3,sp,12
      5c:	5505                	li	a0,-31
      5e:	0000                	unimp
      60:	0600                	addi	s0,sp,768
      62:	005c                	addi	a5,sp,4
      64:	0000                	unimp
      66:	5506                	lw	a0,96(sp)
      68:	0000                	unimp
      6a:	0200                	addi	s0,sp,256
      6c:	0704                	addi	s1,sp,896
      6e:	00a1                	addi	ra,ra,8
      70:	0000                	unimp
      72:	0802                	c.slli64	a6
      74:	ba05                	j	fffffffffffff9a4 <__global_pointer$+0xffffffff7fffd15c>
      76:	0000                	unimp
      78:	0300                	addi	s0,sp,384
      7a:	00df 0000 6903      	.insn	6, 0x6903000000df
      80:	8519                	srai	a0,a0,0x6
      82:	0000                	unimp
      84:	0200                	addi	s0,sp,256
      86:	0708                	addi	a0,sp,896
      88:	009c                	addi	a5,sp,64
      8a:	0000                	unimp
      8c:	00000603          	lb	a2,0(zero) # 0 <threadsense.2>
      90:	0300                	addi	s0,sp,384
      92:	1ae8                	addi	a0,sp,380
      94:	0085                	addi	ra,ra,1
      96:	0000                	unimp
      98:	0802                	c.slli64	a6
      9a:	b505                	j	fffffffffffffeba <__global_pointer$+0xffffffff7fffd672>
      9c:	0000                	unimp
      9e:	0200                	addi	s0,sp,256
      a0:	0410                	addi	a2,sp,512
      a2:	0192                	slli	gp,gp,0x4
      a4:	0000                	unimp
      a6:	0102                	c.slli64	sp
      a8:	4408                	lw	a0,8(s0)
      aa:	0000                	unimp
      ac:	0600                	addi	s0,sp,768
      ae:	00a6                	slli	ra,ra,0x9
      b0:	0000                	unimp
      b2:	00ad0807          	.insn	4, 0x00ad0807
      b6:	0000                	unimp
      b8:	0802                	c.slli64	a6
      ba:	00009707          	.insn	4, 0x9707
      be:	0300                	addi	s0,sp,384
      c0:	0014                	.insn	2, 0x0014
      c2:	0000                	unimp
      c4:	2c04                	fld	fs1,24(s0)
      c6:	00004913          	xori	s2,zero,0
      ca:	0300                	addi	s0,sp,384
      cc:	00e1                	addi	ra,ra,24
      ce:	0000                	unimp
      d0:	3c04                	fld	fs1,56(s0)
      d2:	7914                	ld	a3,48(a0)
      d4:	0000                	unimp
      d6:	0300                	addi	s0,sp,384
      d8:	0008                	.insn	2, 0x0008
      da:	0000                	unimp
      dc:	5204                	lw	s1,32(a2)
      de:	8c15                	sub	s0,s0,a3
      e0:	0000                	unimp
      e2:	0800                	addi	s0,sp,16
      e4:	7001                	c.lui	zero,0xfffe0
      e6:	05000003          	lb	zero,80(zero) # 50 <threadsense.3+0x4c>
      ea:	05ce                	slli	a1,a1,0x13
      ec:	5501                	li	a0,-32
      ee:	0000                	unimp
      f0:	0100                	addi	s0,sp,128
      f2:	00fd                	addi	ra,ra,31
      f4:	0000                	unimp
      f6:	b209                	j	fffffffffffff9f8 <__global_pointer$+0xffffffff7fffd1b0>
      f8:	0000                	unimp
      fa:	0a00                	addi	s0,sp,272
      fc:	0b00                	addi	s0,sp,400
      fe:	bc01                	j	fffffffffffffb0e <__global_pointer$+0xffffffff7fffd2c6>
     100:	0001                	nop
     102:	0200                	addi	s0,sp,256
     104:	0d06                	slli	s10,s10,0x1
     106:	0101                	addi	sp,sp,0
     108:	0112                	slli	sp,sp,0x4
     10a:	0000                	unimp
     10c:	5509                	li	a0,-30
     10e:	0000                	unimp
     110:	0000                	unimp
     112:	010c                	addi	a1,sp,128
     114:	008d                	addi	ra,ra,3
     116:	0000                	unimp
     118:	1f01                	addi	t5,t5,-32
     11a:	0105                	addi	sp,sp,1
     11c:	0055                	c.nop	21
     11e:	0000                	unimp
     120:	0644                	addi	s1,sp,772
     122:	8000                	.insn	2, 0x8000
     124:	0000                	unimp
     126:	0000                	unimp
     128:	0770                	addi	a2,sp,908
     12a:	8000                	.insn	2, 0x8000
	...
     134:	9701                	srai	a4,a4,0x20
     136:	0001                	nop
     138:	0d00                	addi	s0,sp,656
     13a:	000000cb          	fnmsub.s	ft1,ft0,ft0,ft0,rne
     13e:	2001                	.insn	2, 0x2001
     140:	970d                	srai	a4,a4,0x23
     142:	0001                	nop
     144:	0300                	addi	s0,sp,384
     146:	9891                	andi	s1,s1,-28
     148:	0d7f 00c3 0000 3601 	.insn	10, 0xa7093601000000c30d7f
     150:	a709 
     152:	0001                	nop
     154:	0300                	addi	s0,sp,384
     156:	8891                	andi	s1,s1,4
     158:	0e7f 0079 3701 b709 	.insn	10, 0x0001b709370100790e7f
     160:	0001 
     162:	0300                	addi	s0,sp,384
     164:	c091                	beqz	s1,168 <threadsense.3+0x164>
     166:	0d7e                	slli	s10,s10,0x1f
     168:	004e                	c.slli	zero,0x13
     16a:	0000                	unimp
     16c:	3801                	addiw	a6,a6,-32
     16e:	b709                	j	70 <threadsense.3+0x6c>
     170:	0001                	nop
     172:	0300                	addi	s0,sp,384
     174:	f891                	bnez	s1,88 <threadsense.3+0x84>
     176:	0f7d                	addi	t5,t5,31
     178:	0712                	slli	a4,a4,0x4
     17a:	8000                	.insn	2, 0x8000
     17c:	0000                	unimp
     17e:	0000                	unimp
     180:	0752                	slli	a4,a4,0x14
     182:	8000                	.insn	2, 0x8000
     184:	0000                	unimp
     186:	0000                	unimp
     188:	690e                	ld	s2,192(sp)
     18a:	0100                	addi	s0,sp,128
     18c:	0e4e                	slli	t3,t3,0x13
     18e:	0055                	c.nop	21
     190:	0000                	unimp
     192:	9102                	jalr	sp
     194:	006c                	addi	a1,sp,12
     196:	1000                	addi	s0,sp,32
     198:	000000bf 000001a7 	.insn	8, 0x01a7000000bf
     1a0:	8511                	srai	a0,a0,0x4
     1a2:	0000                	unimp
     1a4:	1300                	addi	s0,sp,416
     1a6:	1000                	addi	s0,sp,32
     1a8:	0055                	c.nop	21
     1aa:	0000                	unimp
     1ac:	000001b7          	lui	gp,0x0
     1b0:	8511                	srai	a0,a0,0x4
     1b2:	0000                	unimp
     1b4:	0300                	addi	s0,sp,384
     1b6:	1000                	addi	s0,sp,32
     1b8:	0055                	c.nop	21
     1ba:	0000                	unimp
     1bc:	000001c7          	fmsub.s	ft3,ft0,ft0,ft0,rne
     1c0:	8511                	srai	a0,a0,0x4
     1c2:	0000                	unimp
     1c4:	1000                	addi	s0,sp,32
     1c6:	1200                	addi	s0,sp,288
     1c8:	6601                	.insn	2, 0x6601
     1ca:	7269                	lui	tp,0xffffa
     1cc:	0100                	addi	s0,sp,128
     1ce:	0616                	slli	a2,a2,0x5
     1d0:	4801                	li	a6,0
     1d2:	0005                	c.nop	1
     1d4:	0080                	addi	s0,sp,64
     1d6:	0000                	unimp
     1d8:	4400                	lw	s0,8(s0)
     1da:	0006                	c.slli	zero,0x1
     1dc:	0080                	addi	s0,sp,64
     1de:	0000                	unimp
     1e0:	7600                	ld	s0,40(a2)
     1e2:	0000                	unimp
     1e4:	0100                	addi	s0,sp,128
     1e6:	0249                	addi	tp,tp,18 # ffffffffffffa012 <__global_pointer$+0xffffffff7fff77ca>
     1e8:	0000                	unimp
     1ea:	01007813          	andi	a6,zero,16
     1ee:	0e16                	slli	t3,t3,0x5
     1f0:	0249                	addi	tp,tp,18 # 12 <threadsense.3+0xe>
     1f2:	0000                	unimp
     1f4:	9102                	jalr	sp
     1f6:	1348                	addi	a0,sp,420
     1f8:	16010063          	beqz	sp,358 <threadsense.3+0x354>
     1fc:	00024917          	auipc	s2,0x24
     200:	0200                	addi	s0,sp,256
     202:	4091                	li	ra,4
     204:	01007913          	andi	s2,zero,16
     208:	2016                	fld	ft0,320(sp)
     20a:	0249                	addi	tp,tp,18 # 12 <threadsense.3+0xe>
     20c:	0000                	unimp
     20e:	7fb89103          	lh	sp,2043(a7)
     212:	01006e13          	ori	t3,zero,16
     216:	2916                	fld	fs2,320(sp)
     218:	0055                	c.nop	21
     21a:	0000                	unimp
     21c:	7fb49103          	lh	sp,2043(s1)
     220:	01006d13          	ori	s10,zero,16
     224:	3016                	fld	ft0,352(sp)
     226:	0055                	c.nop	21
     228:	0000                	unimp
     22a:	7fb09103          	lh	sp,2043(ra)
     22e:	690e                	ld	s2,192(sp)
     230:	0100                	addi	s0,sp,128
     232:	00550917          	auipc	s2,0x550
     236:	0000                	unimp
     238:	9102                	jalr	sp
     23a:	0e5c                	addi	a5,sp,788
     23c:	006a                	c.slli	zero,0x1a
     23e:	1701                	addi	a4,a4,-32
     240:	550c                	lw	a1,40(a0)
     242:	0000                	unimp
     244:	0200                	addi	s0,sp,256
     246:	5891                	li	a7,-28
     248:	0700                	addi	s0,sp,896
     24a:	5508                	lw	a0,40(a0)
     24c:	0000                	unimp
     24e:	1400                	addi	s0,sp,544
     250:	2301                	sext.w	t1,t1
     252:	0000                	unimp
     254:	0100                	addi	s0,sp,128
     256:	050a                	slli	a0,a0,0x2
     258:	5501                	li	a0,-32
     25a:	0000                	unimp
     25c:	0a00                	addi	s0,sp,272
     25e:	0005                	c.nop	1
     260:	0080                	addi	s0,sp,64
     262:	0000                	unimp
     264:	4800                	lw	s0,16(s0)
     266:	0005                	c.nop	1
     268:	0080                	addi	s0,sp,64
     26a:	0000                	unimp
     26c:	ec00                	sd	s0,24(s0)
     26e:	0000                	unimp
     270:	0100                	addi	s0,sp,128
     272:	000002af          	.insn	4, 0x02af
     276:	01006113          	ori	sp,zero,16
     27a:	110a                	slli	sp,sp,0x22
     27c:	0055                	c.nop	21
     27e:	0000                	unimp
     280:	9102                	jalr	sp
     282:	135c                	addi	a5,sp,420
     284:	0062                	c.slli	zero,0x18
     286:	0a01                	addi	s4,s4,0
     288:	5518                	lw	a4,40(a0)
     28a:	0000                	unimp
     28c:	0200                	addi	s0,sp,256
     28e:	5891                	li	a7,-28
     290:	720e                	ld	tp,224(sp)
     292:	7365                	lui	t1,0xffff9
     294:	0100                	addi	s0,sp,128
     296:	0072080b          	.insn	4, 0x0072080b
     29a:	0000                	unimp
     29c:	9102                	jalr	sp
     29e:	0d68                	addi	a0,sp,668
     2a0:	00ae                	slli	ra,ra,0xb
     2a2:	0000                	unimp
     2a4:	0c01                	addi	s8,s8,0 # 1d000 <threadsense.3+0x1cffc>
     2a6:	5509                	li	a0,-30
     2a8:	0000                	unimp
     2aa:	0200                	addi	s0,sp,256
     2ac:	6491                	lui	s1,0x4
     2ae:	1400                	addi	s0,sp,544
     2b0:	7d01                	lui	s10,0xfffe0
     2b2:	0000                	unimp
     2b4:	0100                	addi	s0,sp,128
     2b6:	0505                	addi	a0,a0,1
     2b8:	5501                	li	a0,-32
     2ba:	0000                	unimp
     2bc:	dc00                	sw	s0,56(s0)
     2be:	0004                	.insn	2, 0x0004
     2c0:	0080                	addi	s0,sp,64
     2c2:	0000                	unimp
     2c4:	0a00                	addi	s0,sp,272
     2c6:	0005                	c.nop	1
     2c8:	0080                	addi	s0,sp,64
     2ca:	0000                	unimp
     2cc:	6000                	ld	s0,0(s0)
     2ce:	0001                	nop
     2d0:	0100                	addi	s0,sp,128
     2d2:	02f1                	addi	t0,t0,28
     2d4:	0000                	unimp
     2d6:	01006113          	ori	sp,zero,16
     2da:	1105                	addi	sp,sp,-31
     2dc:	0055                	c.nop	21
     2de:	0000                	unimp
     2e0:	9102                	jalr	sp
     2e2:	136c                	addi	a1,sp,428
     2e4:	0062                	c.slli	zero,0x18
     2e6:	0501                	addi	a0,a0,0
     2e8:	5518                	lw	a4,40(a0)
     2ea:	0000                	unimp
     2ec:	0200                	addi	s0,sp,256
     2ee:	6891                	lui	a7,0x4
     2f0:	1500                	addi	s0,sp,672
     2f2:	0032                	c.slli	zero,0xc
     2f4:	0000                	unimp
     2f6:	4602                	lw	a2,0(sp)
     2f8:	0112                	slli	sp,sp,0x4
     2fa:	000000d7          	.insn	4, 0x00d7
     2fe:	04b0                	addi	a2,sp,584
     300:	8000                	.insn	2, 0x8000
     302:	0000                	unimp
     304:	0000                	unimp
     306:	04dc                	addi	a5,sp,580
     308:	8000                	.insn	2, 0x8000
     30a:	0000                	unimp
     30c:	0000                	unimp
     30e:	01d4                	addi	a3,sp,196
     310:	0000                	unimp
     312:	2601                	sext.w	a2,a2
     314:	13000003          	lb	zero,304(zero) # 130 <threadsense.3+0x12c>
     318:	6370                	ld	a2,192(a4)
     31a:	0200                	addi	s0,sp,256
     31c:	2546                	fld	fa0,80(sp)
     31e:	000000d7          	.insn	4, 0x00d7
     322:	9102                	jalr	sp
     324:	0068                	addi	a0,sp,12
     326:	4915                	li	s2,5
     328:	0000                	unimp
     32a:	0200                	addi	s0,sp,256
     32c:	1140                	addi	s0,sp,164
     32e:	cb01                	beqz	a4,33e <threadsense.3+0x33a>
     330:	0000                	unimp
     332:	7600                	ld	s0,40(a2)
     334:	0004                	.insn	2, 0x0004
     336:	0080                	addi	s0,sp,64
     338:	0000                	unimp
     33a:	b000                	fsd	fs0,32(s0)
     33c:	0004                	.insn	2, 0x0004
     33e:	0080                	addi	s0,sp,64
     340:	0000                	unimp
     342:	4800                	lw	s0,16(s0)
     344:	0002                	c.slli64	zero
     346:	0100                	addi	s0,sp,128
     348:	0369                	addi	t1,t1,26 # ffffffffffff901a <__global_pointer$+0xffffffff7fff67d2>
     34a:	0000                	unimp
     34c:	02007813          	andi	a6,zero,32
     350:	1f40                	addi	s0,sp,948
     352:	000000cb          	fnmsub.s	ft1,ft0,ft0,ft0,rne
     356:	9102                	jalr	sp
     358:	0e58                	addi	a4,sp,788
     35a:	6962                	ld	s2,24(sp)
     35c:	0074                	addi	a3,sp,12
     35e:	4202                	lw	tp,0(sp)
     360:	cb0c                	sw	a1,16(a4)
     362:	0000                	unimp
     364:	0200                	addi	s0,sp,256
     366:	6891                	lui	a7,0x4
     368:	1600                	addi	s0,sp,800
     36a:	0085                	addi	ra,ra,1
     36c:	0000                	unimp
     36e:	2c02                	fld	fs8,0(sp)
     370:	03ee0127          	.insn	4, 0x03ee0127
     374:	8000                	.insn	2, 0x8000
     376:	0000                	unimp
     378:	0000                	unimp
     37a:	0476                	slli	s0,s0,0x1d
     37c:	8000                	.insn	2, 0x8000
     37e:	0000                	unimp
     380:	0000                	unimp
     382:	02bc                	addi	a5,sp,328
     384:	0000                	unimp
     386:	d301                	beqz	a4,286 <threadsense.3+0x282>
     388:	17000003          	lb	zero,368(zero) # 170 <threadsense.3+0x16c>
     38c:	0000002b          	.insn	4, 0x002b
     390:	2c02                	fld	fs8,0(sp)
     392:	00005533          	srl	a0,zero,zero
     396:	0200                	addi	s0,sp,256
     398:	6c91                	lui	s9,0x4
     39a:	700d                	c.lui	zero,0xfffe3
     39c:	0000                	unimp
     39e:	0200                	addi	s0,sp,256
     3a0:	172e                	slli	a4,a4,0x2b
     3a2:	005c                	addi	a5,sp,4
     3a4:	0000                	unimp
     3a6:	0309                	addi	t1,t1,2
     3a8:	204c                	fld	fa1,128(s0)
     3aa:	8000                	.insn	2, 0x8000
     3ac:	0000                	unimp
     3ae:	0000                	unimp
     3b0:	000d                	c.nop	3
     3b2:	0000                	unimp
     3b4:	0200                	addi	s0,sp,256
     3b6:	005c172f          	.insn	4, 0x005c172f
     3ba:	0000                	unimp
     3bc:	0309                	addi	t1,t1,2
     3be:	2048                	fld	fa0,128(s0)
     3c0:	8000                	.insn	2, 0x8000
     3c2:	0000                	unimp
     3c4:	0000                	unimp
     3c6:	6a18                	ld	a4,16(a2)
     3c8:	0000                	unimp
     3ca:	0200                	addi	s0,sp,256
     3cc:	1730                	addi	a2,sp,936
     3ce:	0055                	c.nop	21
     3d0:	0000                	unimp
     3d2:	1500                	addi	s0,sp,672
     3d4:	00ea                	slli	ra,ra,0x1a
     3d6:	0000                	unimp
     3d8:	1c02                	slli	s8,s8,0x20
     3da:	010c                	addi	a1,sp,128
     3dc:	0055                	c.nop	21
     3de:	0000                	unimp
     3e0:	02d0                	addi	a2,sp,324
     3e2:	8000                	.insn	2, 0x8000
     3e4:	0000                	unimp
     3e6:	0000                	unimp
     3e8:	03ee                	slli	t2,t2,0x1b
     3ea:	8000                	.insn	2, 0x8000
     3ec:	0000                	unimp
     3ee:	0000                	unimp
     3f0:	0330                	addi	a2,sp,392
     3f2:	0000                	unimp
     3f4:	9d01                	subw	a0,a0,s0
     3f6:	0004                	.insn	2, 0x0004
     3f8:	1300                	addi	s0,sp,416
     3fa:	006e                	c.slli	zero,0x1b
     3fc:	1c02                	slli	s8,s8,0x20
     3fe:	551d                	li	a0,-25
     400:	0000                	unimp
     402:	0300                	addi	s0,sp,384
     404:	bc91                	j	fffffffffffffe58 <__global_pointer$+0xffffffff7fffd610>
     406:	0092177f 1c020000 	.insn	12, 0x00049d371c0200000092177f
     40e:	00049d37 
     412:	0300                	addi	s0,sp,384
     414:	b091                	j	fffffffffffffc58 <__global_pointer$+0xffffffff7fffd410>
     416:	0076177f 1c020000 	.insn	12, 0x0004b44b1c0200000076177f
     41e:	0004b44b 
     422:	0300                	addi	s0,sp,384
     424:	a891                	j	478 <threadsense.3+0x474>
     426:	0e7f 0069 1e02 5507 	.insn	10, 0x55071e0200690e7f
     42e:	0000 
     430:	0200                	addi	s0,sp,256
     432:	6c91                	lui	s9,0x4
     434:	0002ec0f          	.insn	4, 0x0002ec0f
     438:	0080                	addi	s0,sp,64
     43a:	0000                	unimp
     43c:	8200                	.insn	2, 0x8200
     43e:	00800003          	lb	zero,8(zero) # 8 <threadsense.3+0x4>
     442:	0000                	unimp
     444:	0e00                	addi	s0,sp,784
     446:	3074                	fld	fa3,224(s0)
     448:	0200                	addi	s0,sp,256
     44a:	0c22                	slli	s8,s8,0x8
     44c:	000004a3          	sb	zero,9(zero) # 9 <threadsense.3+0x5>
     450:	9102                	jalr	sp
     452:	0e60                	addi	s0,sp,796
     454:	3174                	fld	fa3,224(a0)
     456:	0200                	addi	s0,sp,256
     458:	1a22                	slli	s4,s4,0x28
     45a:	000004a3          	sb	zero,9(zero) # 9 <threadsense.3+0x5>
     45e:	9102                	jalr	sp
     460:	0e58                	addi	a4,sp,788
     462:	3076                	fld	ft0,376(sp)
     464:	0200                	addi	s0,sp,256
     466:	04a30c23          	sb	a0,88(t1)
     46a:	0000                	unimp
     46c:	9102                	jalr	sp
     46e:	0e50                	addi	a2,sp,788
     470:	3176                	fld	ft2,376(sp)
     472:	0200                	addi	s0,sp,256
     474:	04a31c23          	sh	a0,88(t1)
     478:	0000                	unimp
     47a:	9102                	jalr	sp
     47c:	0e48                	addi	a0,sp,788
     47e:	7165                	addi	sp,sp,-400
     480:	0031                	c.nop	12
     482:	2402                	fld	fs0,0(sp)
     484:	5509                	li	a0,-30
     486:	0000                	unimp
     488:	0200                	addi	s0,sp,256
     48a:	4491                	li	s1,4
     48c:	650e                	ld	a0,192(sp)
     48e:	3271                	addiw	tp,tp,-4 # fffffffffffffffc <__global_pointer$+0xffffffff7fffd7b4>
     490:	0200                	addi	s0,sp,256
     492:	1924                	addi	s1,sp,184
     494:	0055                	c.nop	21
     496:	0000                	unimp
     498:	9102                	jalr	sp
     49a:	0040                	addi	s0,sp,4
     49c:	0700                	addi	s0,sp,896
     49e:	af08                	fsd	fa0,24(a4)
     4a0:	0004                	.insn	2, 0x0004
     4a2:	0200                	addi	s0,sp,256
     4a4:	0408                	addi	a0,sp,512
     4a6:	00000197          	auipc	gp,0x0
     4aa:	a306                	fsd	ft1,384(sp)
     4ac:	0004                	.insn	2, 0x0004
     4ae:	0500                	addi	s0,sp,640
     4b0:	04aa                	slli	s1,s1,0xa
     4b2:	0000                	unimp
     4b4:	04aa0807          	.insn	4, 0x04aa0807
     4b8:	0000                	unimp
     4ba:	7615                	lui	a2,0xfffe5
     4bc:	0000                	unimp
     4be:	0200                	addi	s0,sp,256
     4c0:	0c0c                	addi	a1,sp,528
     4c2:	5501                	li	a0,-32
     4c4:	0000                	unimp
     4c6:	c200                	sw	s0,0(a2)
     4c8:	0001                	nop
     4ca:	0080                	addi	s0,sp,64
     4cc:	0000                	unimp
     4ce:	d000                	sw	s0,32(s0)
     4d0:	0002                	c.slli64	zero
     4d2:	0080                	addi	s0,sp,64
     4d4:	0000                	unimp
     4d6:	a600                	fsd	fs0,8(a2)
     4d8:	01000003          	lb	zero,16(zero) # 10 <threadsense.3+0xc>
     4dc:	0564                	addi	s1,sp,652
     4de:	0000                	unimp
     4e0:	02006e13          	ori	t3,zero,32
     4e4:	170c                	addi	a1,sp,928
     4e6:	0055                	c.nop	21
     4e8:	0000                	unimp
     4ea:	9102                	jalr	sp
     4ec:	174c                	addi	a1,sp,932
     4ee:	0092                	slli	ra,ra,0x4
     4f0:	0000                	unimp
     4f2:	0c02                	c.slli64	s8
     4f4:	642e                	ld	s0,200(sp)
     4f6:	0005                	c.nop	1
     4f8:	0200                	addi	s0,sp,256
     4fa:	4091                	li	ra,4
     4fc:	00007617          	auipc	a2,0x7
     500:	0200                	addi	s0,sp,256
     502:	3f0c                	fld	fa1,56(a4)
     504:	056a                	slli	a0,a0,0x1a
     506:	0000                	unimp
     508:	7fb89103          	lh	sp,2043(a7) # 47fb <threadsense.3+0x47f7>
     50c:	690e                	ld	s2,192(sp)
     50e:	0200                	addi	s0,sp,256
     510:	070e                	slli	a4,a4,0x3
     512:	0055                	c.nop	21
     514:	0000                	unimp
     516:	9102                	jalr	sp
     518:	0f6c                	addi	a1,sp,924
     51a:	01de                	slli	gp,gp,0x17
     51c:	8000                	.insn	2, 0x8000
     51e:	0000                	unimp
     520:	0000                	unimp
     522:	0262                	slli	tp,tp,0x18
     524:	8000                	.insn	2, 0x8000
     526:	0000                	unimp
     528:	0000                	unimp
     52a:	740e                	ld	s0,224(sp)
     52c:	0030                	addi	a2,sp,8
     52e:	1202                	slli	tp,tp,0x20
     530:	5509                	li	a0,-30
     532:	0000                	unimp
     534:	0200                	addi	s0,sp,256
     536:	6891                	lui	a7,0x4
     538:	740e                	ld	s0,224(sp)
     53a:	0031                	c.nop	12
     53c:	1202                	slli	tp,tp,0x20
     53e:	00005517          	auipc	a0,0x5
     542:	0200                	addi	s0,sp,256
     544:	6491                	lui	s1,0x4
     546:	760e                	ld	a2,224(sp)
     548:	0030                	addi	a2,sp,8
     54a:	1302                	slli	t1,t1,0x20
     54c:	5509                	li	a0,-30
     54e:	0000                	unimp
     550:	0200                	addi	s0,sp,256
     552:	6091                	lui	ra,0x4
     554:	760e                	ld	a2,224(sp)
     556:	0031                	c.nop	12
     558:	1302                	slli	t1,t1,0x20
     55a:	5519                	li	a0,-26
     55c:	0000                	unimp
     55e:	0200                	addi	s0,sp,256
     560:	5c91                	li	s9,-28
     562:	0000                	unimp
     564:	00610807          	.insn	4, 0x00610807
     568:	0000                	unimp
     56a:	00660807          	.insn	4, 0x00660807
     56e:	0000                	unimp
     570:	2a00                	fld	fs0,16(a2)
     572:	0000                	unimp
     574:	0200                	addi	s0,sp,256
     576:	8400                	.insn	2, 0x8400
     578:	0001                	nop
     57a:	0800                	addi	s0,sp,16
     57c:	dc01                	beqz	s0,494 <threadsense.3+0x490>
     57e:	0005                	c.nop	1
     580:	0000                	unimp
     582:	0000                	unimp
     584:	0080                	addi	s0,sp,64
     586:	0000                	unimp
     588:	c000                	sw	s0,0(s0)
     58a:	0001                	nop
     58c:	0080                	addi	s0,sp,64
     58e:	0000                	unimp
     590:	c500                	sw	s0,8(a0)
     592:	0001                	nop
     594:	9e00                	.insn	2, 0x9e00
     596:	0001                	nop
     598:	d200                	sw	s0,32(a2)
     59a:	0001                	nop
     59c:	0100                	addi	s0,sp,128
     59e:	b680                	fsd	fs0,40(a3)
     5a0:	0010                	.insn	2, 0x0010
     5a2:	0200                	addi	s0,sp,256
     5a4:	9800                	.insn	2, 0x9800
     5a6:	0001                	nop
     5a8:	0800                	addi	s0,sp,16
     5aa:	f701                	bnez	a4,4b2 <threadsense.3+0x4ae>
     5ac:	0000                	unimp
     5ae:	0c00                	addi	s0,sp,528
     5b0:	0461                	addi	s0,s0,24 # ffffffffffff9018 <__global_pointer$+0xffffffff7fff67d0>
     5b2:	0000                	unimp
     5b4:	019e                	slli	gp,gp,0x7
     5b6:	0000                	unimp
     5b8:	0770                	addi	a2,sp,908
     5ba:	8000                	.insn	2, 0x8000
     5bc:	0000                	unimp
     5be:	0000                	unimp
     5c0:	1a3e                	slli	s4,s4,0x2f
     5c2:	8000                	.insn	2, 0x8000
     5c4:	0000                	unimp
     5c6:	0000                	unimp
     5c8:	09d4                	addi	a3,sp,212
     5ca:	0000                	unimp
     5cc:	0102                	c.slli64	sp
     5ce:	3d06                	fld	fs10,96(sp)
     5d0:	0000                	unimp
     5d2:	0300                	addi	s0,sp,384
     5d4:	03d4                	addi	a3,sp,452
     5d6:	0000                	unimp
     5d8:	2b04                	fld	fs1,16(a4)
     5da:	4018                	lw	a4,0(s0)
     5dc:	0000                	unimp
     5de:	0200                	addi	s0,sp,256
     5e0:	0801                	addi	a6,a6,0
     5e2:	0000003b          	addw	zero,zero,zero
     5e6:	0202                	c.slli64	tp
     5e8:	d505                	beqz	a0,510 <threadsense.3+0x50c>
     5ea:	0000                	unimp
     5ec:	0200                	addi	s0,sp,256
     5ee:	0702                	c.slli64	a4
     5f0:	00000057          	.insn	4, 0x0057
     5f4:	0404                	addi	s1,sp,512
     5f6:	6905                	lui	s2,0x1
     5f8:	746e                	ld	s0,248(sp)
     5fa:	0500                	addi	s0,sp,640
     5fc:	0055                	c.nop	21
     5fe:	0000                	unimp
     600:	5c06                	lw	s8,96(sp)
     602:	0000                	unimp
     604:	0600                	addi	s0,sp,768
     606:	0055                	c.nop	21
     608:	0000                	unimp
     60a:	0402                	c.slli64	s0
     60c:	0000a107          	flw	ft2,0(ra) # 4000 <threadsense.3+0x3ffc>
     610:	0200                	addi	s0,sp,256
     612:	0508                	addi	a0,sp,640
     614:	00ba                	slli	ra,ra,0xe
     616:	0000                	unimp
     618:	0000df03          	lhu	t5,0(ra)
     61c:	0400                	addi	s0,sp,512
     61e:	1969                	addi	s2,s2,-6 # ffa <threadsense.3+0xff6>
     620:	0085                	addi	ra,ra,1
     622:	0000                	unimp
     624:	0802                	c.slli64	a6
     626:	00009c07          	.insn	4, 0x9c07
     62a:	0300                	addi	s0,sp,384
     62c:	0006                	c.slli	zero,0x1
     62e:	0000                	unimp
     630:	e804                	sd	s1,16(s0)
     632:	851a                	mv	a0,t1
     634:	0000                	unimp
     636:	0300                	addi	s0,sp,384
     638:	03d6                	slli	t2,t2,0x15
     63a:	0000                	unimp
     63c:	1805                	addi	a6,a6,-31
     63e:	00003413          	sltiu	s0,zero,0
     642:	0500                	addi	s0,sp,640
     644:	0098                	addi	a4,sp,64
     646:	0000                	unimp
     648:	0000e103          	lwu	sp,0(ra)
     64c:	0500                	addi	s0,sp,640
     64e:	143c                	addi	a5,sp,552
     650:	0079                	c.nop	30
     652:	0000                	unimp
     654:	a905                	j	a84 <threadsense.3+0xa80>
     656:	0000                	unimp
     658:	0300                	addi	s0,sp,384
     65a:	0008                	.insn	2, 0x0008
     65c:	0000                	unimp
     65e:	5205                	li	tp,-31
     660:	8c15                	sub	s0,s0,a3
     662:	0000                	unimp
     664:	0600                	addi	s0,sp,768
     666:	00ba                	slli	ra,ra,0xe
     668:	0000                	unimp
     66a:	00029103          	lh	sp,0(t0)
     66e:	0600                	addi	s0,sp,768
     670:	17d6                	slli	a5,a5,0x35
     672:	0085                	addi	ra,ra,1
     674:	0000                	unimp
     676:	0802                	c.slli64	a6
     678:	b505                	j	498 <threadsense.3+0x494>
     67a:	0000                	unimp
     67c:	0200                	addi	s0,sp,256
     67e:	0410                	addi	a2,sp,512
     680:	0192                	slli	gp,gp,0x4
     682:	0000                	unimp
     684:	08080807          	.insn	4, 0x08080807
     688:	0432                	slli	s0,s0,0xc
     68a:	0000                	unimp
     68c:	0809                	addi	a6,a6,2
     68e:	000000f3          	.insn	4, 0x00f3
     692:	0102                	c.slli64	sp
     694:	4408                	lw	a0,8(s0)
     696:	0000                	unimp
     698:	0600                	addi	s0,sp,768
     69a:	000000f3          	.insn	4, 0x00f3
     69e:	0809                	addi	a6,a6,2
     6a0:	00fa                	slli	ra,ra,0x1e
     6a2:	0000                	unimp
     6a4:	0802                	c.slli64	a6
     6a6:	00009707          	.insn	4, 0x9707
     6aa:	0300                	addi	s0,sp,384
     6ac:	0278                	addi	a4,sp,268
     6ae:	0000                	unimp
     6b0:	e71b2807          	flw	fa6,-399(s6)
     6b4:	0000                	unimp
     6b6:	0300                	addi	s0,sp,384
     6b8:	027f 0000 6707 0c18 	.insn	10, 0x00010c1867070000027f
     6c0:	0001 
     6c2:	0a00                	addi	s0,sp,272
     6c4:	03de                	slli	t2,t2,0x17
     6c6:	0000                	unimp
     6c8:	0f01                	addi	t5,t5,0
     6ca:	b51a                	fsd	ft6,168(sp)
     6cc:	0000                	unimp
     6ce:	0100                	addi	s0,sp,128
     6d0:	0a01                	addi	s4,s4,0
     6d2:	041c                	addi	a5,sp,512
     6d4:	0000                	unimp
     6d6:	1001                	c.nop	-32
     6d8:	b51a                	fsd	ft6,168(sp)
     6da:	0000                	unimp
     6dc:	0100                	addi	s0,sp,128
     6de:	0b01                	addi	s6,s6,0
     6e0:	00ba                	slli	ra,ra,0xe
     6e2:	0000                	unimp
     6e4:	0150                	addi	a2,sp,132
     6e6:	0000                	unimp
     6e8:	850c                	.insn	2, 0x850c
     6ea:	0000                	unimp
     6ec:	0100                	addi	s0,sp,128
     6ee:	0d00                	addi	s0,sp,656
     6f0:	02b9                	addi	t0,t0,14
     6f2:	0000                	unimp
     6f4:	4b01                	li	s6,0
     6f6:	4012                	.insn	2, 0x4012
     6f8:	0001                	nop
     6fa:	0900                	addi	s0,sp,144
     6fc:	00205003          	lhu	zero,2(zero) # 2 <threadsense.2+0x2>
     700:	0080                	addi	s0,sp,64
     702:	0000                	unimp
     704:	0b00                	addi	s0,sp,400
     706:	00ed                	addi	ra,ra,27
     708:	0000                	unimp
     70a:	0176                	slli	sp,sp,0x1d
     70c:	0000                	unimp
     70e:	850c                	.insn	2, 0x850c
     710:	0000                	unimp
     712:	0100                	addi	s0,sp,128
     714:	0d00                	addi	s0,sp,656
     716:	03ae                	slli	t2,t2,0xb
     718:	0000                	unimp
     71a:	4c01                	li	s8,0
     71c:	660e                	ld	a2,192(sp)
     71e:	0001                	nop
     720:	0900                	addi	s0,sp,144
     722:	00206003          	lwu	zero,2(zero) # 2 <threadsense.2+0x2>
     726:	0080                	addi	s0,sp,64
     728:	0000                	unimp
     72a:	0e00                	addi	s0,sp,784
     72c:	4401                	li	s0,0
     72e:	0004                	.insn	2, 0x0004
     730:	0100                	addi	s0,sp,128
     732:	01fa                	slli	gp,gp,0x1e
     734:	0106                	slli	sp,sp,0x1
     736:	0072                	c.slli	zero,0x1c
     738:	0000                	unimp
     73a:	195e                	slli	s2,s2,0x37
     73c:	8000                	.insn	2, 0x8000
     73e:	0000                	unimp
     740:	0000                	unimp
     742:	1a3e                	slli	s4,s4,0x2f
     744:	8000                	.insn	2, 0x8000
     746:	0000                	unimp
     748:	0000                	unimp
     74a:	041c                	addi	a5,sp,512
     74c:	0000                	unimp
     74e:	e501                	bnez	a0,756 <threadsense.3+0x752>
     750:	0001                	nop
     752:	0f00                	addi	s0,sp,912
     754:	00727473          	csrrci	s0,0x7,4
     758:	fa01                	bnez	a2,668 <threadsense.3+0x664>
     75a:	1701                	addi	a4,a4,-32
     75c:	00ff 0000 9102 1058 	.insn	10, 0x657210589102000000ff
     764:	6572 
     766:	fc010073          	.insn	4, 0xfc010073
     76a:	0801                	addi	a6,a6,0
     76c:	0072                	c.slli	zero,0x1c
     76e:	0000                	unimp
     770:	9102                	jalr	sp
     772:	1168                	addi	a0,sp,172
     774:	0298                	addi	a4,sp,320
     776:	0000                	unimp
     778:	fd01                	bnez	a0,690 <threadsense.3+0x68c>
     77a:	0701                	addi	a4,a4,0
     77c:	0055                	c.nop	21
     77e:	0000                	unimp
     780:	9102                	jalr	sp
     782:	0064                	addi	s1,sp,12
     784:	0112                	slli	sp,sp,0x4
     786:	0256                	slli	tp,tp,0x15
     788:	0000                	unimp
     78a:	2608                	fld	fa0,8(a2)
     78c:	0108                	addi	a0,sp,128
     78e:	00ed                	addi	ra,ra,27
     790:	0000                	unimp
     792:	1910                	addi	a2,sp,176
     794:	8000                	.insn	2, 0x8000
     796:	0000                	unimp
     798:	0000                	unimp
     79a:	195e                	slli	s2,s2,0x37
     79c:	8000                	.insn	2, 0x8000
     79e:	0000                	unimp
     7a0:	0000                	unimp
     7a2:	0490                	addi	a2,sp,576
     7a4:	0000                	unimp
     7a6:	3b01                	addiw	s6,s6,-32
     7a8:	0002                	c.slli64	zero
     7aa:	1300                	addi	s0,sp,416
     7ac:	0452                	slli	s0,s0,0x14
     7ae:	0000                	unimp
     7b0:	f201                	bnez	a2,6b0 <threadsense.3+0x6ac>
     7b2:	1401                	addi	s0,s0,-32
     7b4:	00ed                	addi	ra,ra,27
     7b6:	0000                	unimp
     7b8:	9102                	jalr	sp
     7ba:	0f58                	addi	a4,sp,916
     7bc:	00637273          	csrrci	tp,0x6,6
     7c0:	f201                	bnez	a2,6c0 <threadsense.3+0x6bc>
     7c2:	2601                	sext.w	a2,a2
     7c4:	00ff 0000 9102 1050 	.insn	10, 0x006410509102000000ff
     7cc:	0064 
     7ce:	f401                	bnez	s0,6d6 <threadsense.3+0x6d2>
     7d0:	0901                	addi	s2,s2,0
     7d2:	00ed                	addi	ra,ra,27
     7d4:	0000                	unimp
     7d6:	9102                	jalr	sp
     7d8:	0068                	addi	a0,sp,12
     7da:	0112                	slli	sp,sp,0x4
     7dc:	02f0                	addi	a2,sp,332
     7de:	0000                	unimp
     7e0:	2408                	fld	fa0,8(s0)
     7e2:	0106                	slli	sp,sp,0x1
     7e4:	0055                	c.nop	21
     7e6:	0000                	unimp
     7e8:	189a                	slli	a7,a7,0x26
     7ea:	8000                	.insn	2, 0x8000
     7ec:	0000                	unimp
     7ee:	0000                	unimp
     7f0:	1910                	addi	a2,sp,176
     7f2:	8000                	.insn	2, 0x8000
     7f4:	0000                	unimp
     7f6:	0000                	unimp
     7f8:	0504                	addi	s1,sp,640
     7fa:	0000                	unimp
     7fc:	9f01                	subw	a4,a4,s0
     7fe:	0002                	c.slli64	zero
     800:	0f00                	addi	s0,sp,912
     802:	01003173          	csrrc	sp,0x10,zero
     806:	01e6                	slli	gp,gp,0x19
     808:	ff18                	sd	a4,56(a4)
     80a:	0000                	unimp
     80c:	0200                	addi	s0,sp,256
     80e:	5891                	li	a7,-28
     810:	0032730f          	.insn	4, 0x0032730f
     814:	e601                	bnez	a2,81c <threadsense.3+0x818>
     816:	2801                	sext.w	a6,a6
     818:	00ff 0000 9102 1050 	.insn	10, 0x316310509102000000ff
     820:	3163 
     822:	0100                	addi	s0,sp,128
     824:	01e8                	addi	a0,sp,204
     826:	4011                	c.li	zero,4
     828:	0000                	unimp
     82a:	0200                	addi	s0,sp,256
     82c:	6f91                	lui	t6,0x4
     82e:	6310                	ld	a2,0(a4)
     830:	0032                	c.slli	zero,0xc
     832:	e801                	bnez	s0,842 <threadsense.3+0x83e>
     834:	1501                	addi	a0,a0,-32 # 551e <threadsense.3+0x551a>
     836:	0040                	addi	s0,sp,4
     838:	0000                	unimp
     83a:	9102                	jalr	sp
     83c:	006e                	c.slli	zero,0x1b
     83e:	0112                	slli	sp,sp,0x4
     840:	01f0                	addi	a2,sp,204
     842:	0000                	unimp
     844:	7708                	ld	a0,40(a4)
     846:	0109                	addi	sp,sp,2
     848:	000000cb          	fnmsub.s	ft1,ft0,ft0,ft0,rne
     84c:	1848                	addi	a0,sp,52
     84e:	8000                	.insn	2, 0x8000
     850:	0000                	unimp
     852:	0000                	unimp
     854:	189a                	slli	a7,a7,0x26
     856:	8000                	.insn	2, 0x8000
     858:	0000                	unimp
     85a:	0000                	unimp
     85c:	0578                	addi	a4,sp,652
     85e:	0000                	unimp
     860:	f101                	bnez	a0,760 <threadsense.3+0x75c>
     862:	0002                	c.slli64	zero
     864:	0f00                	addi	s0,sp,912
     866:	de010073          	.insn	4, 0xde010073
     86a:	1c01                	addi	s8,s8,-32
     86c:	00ff 0000 9102 0f58 	.insn	10, 0x006e0f589102000000ff
     874:	006e 
     876:	de01                	beqz	a2,78e <threadsense.3+0x78a>
     878:	2601                	sext.w	a2,a2
     87a:	000000cb          	fnmsub.s	ft1,ft0,ft0,ft0,rne
     87e:	9102                	jalr	sp
     880:	1050                	addi	a2,sp,36
     882:	0070                	addi	a2,sp,12
     884:	e001                	bnez	s0,884 <threadsense.3+0x880>
     886:	0f01                	addi	t5,t5,0
     888:	00ff 0000 9102 0068 	.insn	10, 0x011200689102000000ff
     890:	0112 
     892:	01e0                	addi	s0,sp,204
     894:	0000                	unimp
     896:	2908                	fld	fa0,16(a0)
     898:	0109                	addi	sp,sp,2
     89a:	000000cb          	fnmsub.s	ft1,ft0,ft0,ft0,rne
     89e:	1808                	addi	a0,sp,48
     8a0:	8000                	.insn	2, 0x8000
     8a2:	0000                	unimp
     8a4:	0000                	unimp
     8a6:	1848                	addi	a0,sp,52
     8a8:	8000                	.insn	2, 0x8000
     8aa:	0000                	unimp
     8ac:	0000                	unimp
     8ae:	05ec                	addi	a1,sp,716
     8b0:	0000                	unimp
     8b2:	3501                	addiw	a0,a0,-32
     8b4:	0f000003          	lb	zero,240(zero) # f0 <threadsense.3+0xec>
     8b8:	d6010073          	.insn	4, 0xd6010073
     8bc:	1b01                	addi	s6,s6,-32
     8be:	00ff 0000 9102 1058 	.insn	10, 0x007010589102000000ff
     8c6:	0070 
     8c8:	d801                	beqz	s0,7d8 <threadsense.3+0x7d4>
     8ca:	0f01                	addi	t5,t5,0
     8cc:	00ff 0000 9102 0068 	.insn	10, 0x011200689102000000ff
     8d4:	0112 
     8d6:	031d                	addi	t1,t1,7
     8d8:	0000                	unimp
     8da:	2108                	fld	fa0,0(a0)
     8dc:	0109                	addi	sp,sp,2
     8de:	00e5                	addi	ra,ra,25
     8e0:	0000                	unimp
     8e2:	1736                	slli	a4,a4,0x2d
     8e4:	8000                	.insn	2, 0x8000
     8e6:	0000                	unimp
     8e8:	0000                	unimp
     8ea:	1808                	addi	a0,sp,48
     8ec:	8000                	.insn	2, 0x8000
     8ee:	0000                	unimp
     8f0:	0000                	unimp
     8f2:	0660                	addi	s0,sp,780
     8f4:	0000                	unimp
     8f6:	e201                	bnez	a2,8f6 <threadsense.3+0x8f2>
     8f8:	13000003          	lb	zero,304(zero) # 130 <threadsense.3+0x12c>
     8fc:	0452                	slli	s0,s0,0x14
     8fe:	0000                	unimp
     900:	c301                	beqz	a4,900 <threadsense.3+0x8fc>
     902:	1401                	addi	s0,s0,-32
     904:	00e5                	addi	ra,ra,25
     906:	0000                	unimp
     908:	9102                	jalr	sp
     90a:	1348                	addi	a0,sp,420
     90c:	03f8                	addi	a4,sp,460
     90e:	0000                	unimp
     910:	c301                	beqz	a4,910 <threadsense.3+0x90c>
     912:	1e01                	addi	t3,t3,-32 # 19fe0 <threadsense.3+0x19fdc>
     914:	0055                	c.nop	21
     916:	0000                	unimp
     918:	9102                	jalr	sp
     91a:	0f44                	addi	s1,sp,916
     91c:	656c                	ld	a1,200(a0)
     91e:	006e                	c.slli	zero,0x1b
     920:	c301                	beqz	a4,920 <threadsense.3+0x91c>
     922:	2b01                	sext.w	s6,s6
     924:	000000cb          	fnmsub.s	ft1,ft0,ft0,ft0,rne
     928:	7fb89103          	lh	sp,2043(a7) # 47fb <threadsense.3+0x47f7>
     92c:	5a14                	lw	a3,48(a2)
     92e:	00800017          	auipc	zero,0x800
     932:	0000                	unimp
     934:	c600                	sw	s0,8(a2)
     936:	00800017          	auipc	zero,0x800
     93a:	0000                	unimp
     93c:	c100                	sw	s0,0(a0)
     93e:	11000003          	lb	zero,272(zero) # 110 <threadsense.3+0x10c>
     942:	03bc                	addi	a5,sp,456
     944:	0000                	unimp
     946:	c601                	beqz	a2,94e <threadsense.3+0x94a>
     948:	0f01                	addi	t5,t5,0
     94a:	00ba                	slli	ra,ra,0xe
     94c:	0000                	unimp
     94e:	9102                	jalr	sp
     950:	1058                	addi	a4,sp,36
     952:	0064                	addi	s1,sp,12
     954:	cb01                	beqz	a4,964 <threadsense.3+0x960>
     956:	1001                	c.nop	-32
     958:	03e2                	slli	t2,t2,0x18
     95a:	0000                	unimp
     95c:	9102                	jalr	sp
     95e:	0068                	addi	a0,sp,12
     960:	c615                	beqz	a2,98c <threadsense.3+0x988>
     962:	00800017          	auipc	zero,0x800
     966:	0000                	unimp
     968:	fa00                	sd	s0,48(a2)
     96a:	00800017          	auipc	zero,0x800
     96e:	0000                	unimp
     970:	1000                	addi	s0,sp,32
     972:	0064                	addi	s1,sp,12
     974:	cf01                	beqz	a4,98c <threadsense.3+0x988>
     976:	0b01                	addi	s6,s6,0
     978:	00ed                	addi	ra,ra,27
     97a:	0000                	unimp
     97c:	9102                	jalr	sp
     97e:	0060                	addi	s0,sp,12
     980:	0900                	addi	s0,sp,144
     982:	ba08                	fsd	fa0,48(a2)
     984:	0000                	unimp
     986:	1200                	addi	s0,sp,288
     988:	2501                	sext.w	a0,a0
     98a:	0004                	.insn	2, 0x0004
     98c:	0800                	addi	s0,sp,16
     98e:	091f e501 0000      	.insn	6, 0xe501091f
     994:	7a00                	ld	s0,48(a2)
     996:	0016                	c.slli	zero,0x5
     998:	0080                	addi	s0,sp,64
     99a:	0000                	unimp
     99c:	3600                	fld	fs0,40(a2)
     99e:	00800017          	auipc	zero,0x800
     9a2:	0000                	unimp
     9a4:	d600                	sw	s0,40(a2)
     9a6:	0006                	c.slli	zero,0x1
     9a8:	0100                	addi	s0,sp,128
     9aa:	04a1                	addi	s1,s1,8 # 4008 <threadsense.3+0x4004>
     9ac:	0000                	unimp
     9ae:	00045213          	srli	tp,s0,0x0
     9b2:	0100                	addi	s0,sp,128
     9b4:	e51401b3          	.insn	4, 0xe51401b3
     9b8:	0000                	unimp
     9ba:	0200                	addi	s0,sp,256
     9bc:	4891                	li	a7,4
     9be:	6372730f          	.insn	4, 0x6372730f
     9c2:	0100                	addi	s0,sp,128
     9c4:	a12601b3          	.insn	4, 0xa12601b3
     9c8:	0004                	.insn	2, 0x0004
     9ca:	0200                	addi	s0,sp,256
     9cc:	4091                	li	ra,4
     9ce:	6e656c0f          	.insn	4, 0x6e656c0f
     9d2:	0100                	addi	s0,sp,128
     9d4:	cb3201b3          	.insn	4, 0xcb3201b3
     9d8:	0000                	unimp
     9da:	0300                	addi	s0,sp,384
     9dc:	b891                	j	230 <threadsense.3+0x22c>
     9de:	16a2147f 00008000 	.insn	12, 0x16e400000000800016a2147f
     9e6:	16e40000 
     9ea:	8000                	.insn	2, 0x8000
     9ec:	0000                	unimp
     9ee:	0000                	unimp
     9f0:	0472                	slli	s0,s0,0x1c
     9f2:	0000                	unimp
     9f4:	7310                	ld	a2,32(a4)
     9f6:	0100                	addi	s0,sp,128
     9f8:	01b6                	slli	gp,gp,0xd
     9fa:	a816                	fsd	ft5,16(sp)
     9fc:	0004                	.insn	2, 0x0004
     9fe:	0200                	addi	s0,sp,256
     a00:	6891                	lui	a7,0x4
     a02:	6410                	ld	a2,8(s0)
     a04:	0100                	addi	s0,sp,128
     a06:	e21001b7          	lui	gp,0xe2100
     a0a:	02000003          	lb	zero,32(zero) # 20 <threadsense.3+0x1c>
     a0e:	6091                	lui	ra,0x4
     a10:	1500                	addi	s0,sp,672
     a12:	16e4                	addi	s1,sp,876
     a14:	8000                	.insn	2, 0x8000
     a16:	0000                	unimp
     a18:	0000                	unimp
     a1a:	1728                	addi	a0,sp,936
     a1c:	8000                	.insn	2, 0x8000
     a1e:	0000                	unimp
     a20:	0000                	unimp
     a22:	7310                	ld	a2,32(a4)
     a24:	0100                	addi	s0,sp,128
     a26:	ff1101bb          	.insn	4, 0xff1101bb
     a2a:	0000                	unimp
     a2c:	0200                	addi	s0,sp,256
     a2e:	5891                	li	a7,-28
     a30:	6410                	ld	a2,8(s0)
     a32:	0100                	addi	s0,sp,128
     a34:	01bc                	addi	a5,sp,200
     a36:	0000ed0b          	.insn	4, 0xed0b
     a3a:	0200                	addi	s0,sp,256
     a3c:	5091                	li	ra,-28
     a3e:	0000                	unimp
     a40:	0809                	addi	a6,a6,2
     a42:	000004a7          	.insn	4, 0x04a7
     a46:	0916                	slli	s2,s2,0x5
     a48:	c608                	sw	a0,8(a2)
     a4a:	0000                	unimp
     a4c:	1700                	addi	s0,sp,928
     a4e:	6f01                	.insn	2, 0x6f01
     a50:	03000003          	lb	zero,48(zero) # 30 <threadsense.3+0x2c>
     a54:	05fa                	slli	a1,a1,0x1e
     a56:	5501                	li	a0,-32
     a58:	0000                	unimp
     a5a:	b800                	fsd	fs0,48(s0)
     a5c:	0015                	c.nop	5
     a5e:	0080                	addi	s0,sp,64
     a60:	0000                	unimp
     a62:	7a00                	ld	s0,48(a2)
     a64:	0016                	c.slli	zero,0x5
     a66:	0080                	addi	s0,sp,64
     a68:	0000                	unimp
     a6a:	4c00                	lw	s0,24(s0)
     a6c:	01000007          	.insn	4, 0x01000007
     a70:	0571                	addi	a0,a0,28
     a72:	0000                	unimp
     a74:	7274730f          	.insn	4, 0x7274730f
     a78:	0100                	addi	s0,sp,128
     a7a:	019f ed13 0000      	.insn	6, 0xed13019f
     a80:	0300                	addi	s0,sp,384
     a82:	8891                	andi	s1,s1,4
     a84:	0f7e                	slli	t5,t5,0x1f
     a86:	6d66                	ld	s10,88(sp)
     a88:	0074                	addi	a3,sp,12
     a8a:	9f01                	subw	a4,a4,s0
     a8c:	2401                	sext.w	s0,s0
     a8e:	00ff 0000 9103 7e80 	.insn	10, 0x10187e809103000000ff
     a96:	1018 
     a98:	7061                	c.lui	zero,0xffff8
     a9a:	0100                	addi	s0,sp,128
     a9c:	01a1                	addi	gp,gp,8 # ffffffffe2100008 <__global_pointer$+0xffffffff620fd7c0>
     a9e:	0001180b          	.insn	4, 0x0001180b
     aa2:	0300                	addi	s0,sp,384
     aa4:	b091                	j	2e8 <threadsense.3+0x2e4>
     aa6:	02b4117f a2010000 	.insn	12, 0x00ed0901a201000002b4117f
     aae:	00ed0901 
     ab2:	0000                	unimp
     ab4:	7fb89103          	lh	sp,2043(a7) # 47fb <threadsense.3+0x47f7>
     ab8:	ea19                	bnez	a2,ace <threadsense.3+0xaca>
     aba:	01000003          	lb	zero,16(zero) # 10 <threadsense.3+0xc>
     abe:	01a5                	addi	gp,gp,9 # 80002851 <__global_pointer$+0x9>
     ac0:	0108                	addi	a0,sp,128
     ac2:	156e                	slli	a0,a0,0x3b
     ac4:	8000                	.insn	2, 0x8000
     ac6:	0000                	unimp
     ac8:	0000                	unimp
     aca:	15b8                	addi	a4,sp,744
     acc:	8000                	.insn	2, 0x8000
     ace:	0000                	unimp
     ad0:	0000                	unimp
     ad2:	07c2                	slli	a5,a5,0x10
     ad4:	0000                	unimp
     ad6:	06489107          	.insn	4, 0x06489107
     ada:	06019023          	sh	zero,96(gp) # 800028a8 <__global_pointer$+0x60>
     ade:	0f01                	addi	t5,t5,0
     ae0:	01006863          	bltu	zero,a6,af0 <threadsense.3+0xaec>
     ae4:	01a5                	addi	gp,gp,9 # 80002851 <__global_pointer$+0x9>
     ae6:	551a                	lw	a0,164(sp)
     ae8:	0000                	unimp
     aea:	0200                	addi	s0,sp,256
     aec:	5c91                	li	s9,-28
     aee:	0002eb13          	ori	s6,t0,0
     af2:	0100                	addi	s0,sp,128
     af4:	01a5                	addi	gp,gp,9 # 80002851 <__global_pointer$+0x9>
     af6:	7125                	addi	sp,sp,-416
     af8:	0005                	c.nop	1
     afa:	0200                	addi	s0,sp,256
     afc:	5091                	li	ra,-28
     afe:	1811                	addi	a6,a6,-28
     b00:	01000003          	lb	zero,16(zero) # 10 <threadsense.3+0xc>
     b04:	770c01a7          	.insn	4, 0x770c01a7
     b08:	0005                	c.nop	1
     b0a:	0200                	addi	s0,sp,256
     b0c:	6891                	lui	a7,0x4
     b0e:	0000                	unimp
     b10:	0809                	addi	a6,a6,2
     b12:	00e5                	addi	ra,ra,25 # 4019 <threadsense.3+0x4015>
     b14:	0000                	unimp
     b16:	0809                	addi	a6,a6,2
     b18:	00ed                	addi	ra,ra,27
     b1a:	0000                	unimp
     b1c:	03700117          	auipc	sp,0x3700
     b20:	0000                	unimp
     b22:	0105ce03          	lbu	t3,16(a1)
     b26:	0055                	c.nop	21
     b28:	0000                	unimp
     b2a:	1518                	addi	a4,sp,672
     b2c:	8000                	.insn	2, 0x8000
     b2e:	0000                	unimp
     b30:	0000                	unimp
     b32:	156e                	slli	a0,a0,0x3b
     b34:	8000                	.insn	2, 0x8000
     b36:	0000                	unimp
     b38:	0000                	unimp
     b3a:	0838                	addi	a4,sp,24
     b3c:	0000                	unimp
     b3e:	c701                	beqz	a4,b46 <threadsense.3+0xb42>
     b40:	0005                	c.nop	1
     b42:	0f00                	addi	s0,sp,912
     b44:	6d66                	ld	s10,88(sp)
     b46:	0074                	addi	a3,sp,12
     b48:	9401                	srai	s0,s0,0x20
     b4a:	1801                	addi	a6,a6,-32
     b4c:	00ff 0000 9103 7f98 	.insn	10, 0x10187f989103000000ff
     b54:	1018 
     b56:	7061                	c.lui	zero,0xffff8
     b58:	0100                	addi	s0,sp,128
     b5a:	0196                	slli	gp,gp,0x5
     b5c:	0001180b          	.insn	4, 0x0001180b
     b60:	0300                	addi	s0,sp,384
     b62:	a891                	j	bb6 <threadsense.3+0xbb2>
     b64:	007f 571a 0004 0100 	.insn	10, 0x0dfd01000004571a007f
     b6c:	0dfd 
     b6e:	ba01                	j	47e <threadsense.3+0x47a>
     b70:	0011                	c.nop	4
     b72:	0080                	addi	s0,sp,64
     b74:	0000                	unimp
     b76:	1800                	addi	s0,sp,48
     b78:	0015                	c.nop	5
     b7a:	0080                	addi	s0,sp,64
     b7c:	0000                	unimp
     b7e:	af00                	fsd	fs0,24(a4)
     b80:	0008                	.insn	2, 0x0008
     b82:	0100                	addi	s0,sp,128
     b84:	0716                	slli	a4,a4,0x5
     b86:	0000                	unimp
     b88:	0003f21b          	.insn	4, 0x0003f21b
     b8c:	0100                	addi	s0,sp,128
     b8e:	1efd                	addi	t4,t4,-1
     b90:	00000727          	.insn	4, 0x0727
     b94:	7fa89103          	lh	sp,2042(a7) # 47fa <threadsense.3+0x47f6>
     b98:	0003581b          	srliw	a6,t1,0x0
     b9c:	0100                	addi	s0,sp,128
     b9e:	3afd                	addiw	s5,s5,-1
     ba0:	0571                	addi	a0,a0,28
     ba2:	0000                	unimp
     ba4:	7fa09103          	lh	sp,2042(ra)
     ba8:	661c                	ld	a5,8(a2)
     baa:	746d                	lui	s0,0xffffb
     bac:	0100                	addi	s0,sp,128
     bae:	4efd                	li	t4,31
     bb0:	00ff 0000 9103 7f98 	.insn	10, 0x611c7f989103000000ff
     bb8:	611c 
     bba:	0070                	addi	a2,sp,12
     bbc:	fd01                	bnez	a0,ad4 <threadsense.3+0xad0>
     bbe:	0001185b          	.insn	4, 0x0001185b
     bc2:	0300                	addi	s0,sp,384
     bc4:	9091                	srli	s1,s1,0x24
     bc6:	00701d7f ff18ff01 	.insn	12, 0x01000000ff18ff0100701d7f
     bce:	01000000 
     bd2:	1162                	slli	sp,sp,0x38
     bd4:	02d9                	addi	t0,t0,22
     bd6:	0000                	unimp
     bd8:	0001                	nop
     bda:	0f01                	addi	t5,t5,0
     bdc:	00ff 0000 9103 7fb8 	.insn	10, 0x63107fb89103000000ff
     be4:	6310 
     be6:	0068                	addi	a0,sp,12
     be8:	0101                	addi	sp,sp,0 # 3700b1c <threadsense.3+0x3700b18>
     bea:	1001                	c.nop	-32
     bec:	0055                	c.nop	21
     bee:	0000                	unimp
     bf0:	5901                	li	s2,-32
     bf2:	651e                	ld	a0,448(sp)
     bf4:	7272                	ld	tp,312(sp)
     bf6:	0100                	addi	s0,sp,128
     bf8:	0101                	addi	sp,sp,0
     bfa:	5514                	lw	a3,40(a0)
     bfc:	0000                	unimp
     bfe:	1000                	addi	s0,sp,32
     c00:	756e                	ld	a0,248(sp)
     c02:	006d                	c.nop	27
     c04:	0201                	addi	tp,tp,0 # 0 <threadsense.2>
     c06:	1601                	addi	a2,a2,-32 # 74dc <threadsense.3+0x74d8>
     c08:	0105                	addi	sp,sp,1
     c0a:	0000                	unimp
     c0c:	9102                	jalr	sp
     c0e:	1158                	addi	a4,sp,164
     c10:	025d                	addi	tp,tp,23 # 17 <threadsense.3+0x13>
     c12:	0000                	unimp
     c14:	0301                	addi	t1,t1,0
     c16:	0701                	addi	a4,a4,0
     c18:	0055                	c.nop	21
     c1a:	0000                	unimp
     c1c:	9102                	jalr	sp
     c1e:	1154                	addi	a3,sp,164
     c20:	000002f7          	.insn	4, 0x02f7
     c24:	0301                	addi	t1,t1,0
     c26:	0d01                	addi	s10,s10,0 # fffffffffffe0000 <__global_pointer$+0xffffffff7ffdd7b8>
     c28:	0055                	c.nop	21
     c2a:	0000                	unimp
     c2c:	9102                	jalr	sp
     c2e:	1150                	addi	a2,sp,164
     c30:	029d                	addi	t0,t0,7
     c32:	0000                	unimp
     c34:	0301                	addi	t1,t1,0
     c36:	1401                	addi	s0,s0,-32 # ffffffffffffafe0 <__global_pointer$+0xffffffff7fff8798>
     c38:	0055                	c.nop	21
     c3a:	0000                	unimp
     c3c:	9102                	jalr	sp
     c3e:	114c                	addi	a1,sp,164
     c40:	0200                	addi	s0,sp,256
     c42:	0000                	unimp
     c44:	0301                	addi	t1,t1,0
     c46:	1b01                	addi	s6,s6,-32
     c48:	0055                	c.nop	21
     c4a:	0000                	unimp
     c4c:	9102                	jalr	sp
     c4e:	1148                	addi	a0,sp,164
     c50:	0384                	addi	s1,sp,448
     c52:	0000                	unimp
     c54:	0301                	addi	t1,t1,0
     c56:	2601                	sext.w	a2,a2
     c58:	0055                	c.nop	21
     c5a:	0000                	unimp
     c5c:	7fb49103          	lh	sp,2043(s1)
     c60:	8c11                	sub	s0,s0,a2
     c62:	0002                	c.slli64	zero
     c64:	0100                	addi	s0,sp,128
     c66:	0104                	addi	s1,sp,128
     c68:	f308                	sd	a0,32(a4)
     c6a:	0000                	unimp
     c6c:	0200                	addi	s0,sp,256
     c6e:	4791                	li	a5,4
     c70:	e21f 0002 0100      	.insn	6, 0x01000002e21f
     c76:	0116                	slli	sp,sp,0x5
     c78:	00123403          	ld	s0,1(tp) # 1 <threadsense.2+0x1>
     c7c:	0080                	addi	s0,sp,64
     c7e:	0000                	unimp
     c80:	1f00                	addi	s0,sp,944
     c82:	01f8                	addi	a4,sp,204
     c84:	0000                	unimp
     c86:	4201                	li	tp,0
     c88:	0501                	addi	a0,a0,0
     c8a:	130e                	slli	t1,t1,0x23
     c8c:	8000                	.insn	2, 0x8000
     c8e:	0000                	unimp
     c90:	0000                	unimp
     c92:	4a1f 0003 0100      	.insn	6, 0x010000034a1f
     c98:	0182                	c.slli64	gp
     c9a:	c205                	beqz	a2,cba <threadsense.3+0xcb6>
     c9c:	0014                	.insn	2, 0x0014
     c9e:	0080                	addi	s0,sp,64
     ca0:	0000                	unimp
     ca2:	1f00                	addi	s0,sp,944
     ca4:	0348                	addi	a0,sp,388
     ca6:	0000                	unimp
     ca8:	8001                	c.srli64	s0
     caa:	0501                	addi	a0,a0,0
     cac:	14ae                	slli	s1,s1,0x2b
     cae:	8000                	.insn	2, 0x8000
     cb0:	0000                	unimp
     cb2:	0000                	unimp
     cb4:	2000                	fld	fs0,0(s0)
     cb6:	2701                	sext.w	a4,a4
     cb8:	21000007          	.insn	4, 0x21000007
     cbc:	0055                	c.nop	21
     cbe:	0000                	unimp
     cc0:	7121                	addi	sp,sp,-448
     cc2:	0005                	c.nop	1
     cc4:	0000                	unimp
     cc6:	0809                	addi	a6,a6,2
     cc8:	0716                	slli	a4,a4,0x5
     cca:	0000                	unimp
     ccc:	4122                	lw	sp,8(sp)
     cce:	01000003          	lb	zero,16(zero) # 10 <threadsense.3+0xc>
     cd2:	d70112f3          	csrrw	t0,0xd70,sp
     cd6:	0000                	unimp
     cd8:	4e00                	lw	s0,24(a2)
     cda:	0011                	c.nop	4
     cdc:	0080                	addi	s0,sp,64
     cde:	0000                	unimp
     ce0:	ba00                	fsd	fs0,48(a2)
     ce2:	0011                	c.nop	4
     ce4:	0080                	addi	s0,sp,64
     ce6:	0000                	unimp
     ce8:	2500                	fld	fs0,8(a0)
     cea:	0009                	c.nop	2
     cec:	0100                	addi	s0,sp,128
     cee:	0771                	addi	a4,a4,28
     cf0:	0000                	unimp
     cf2:	611c                	ld	a5,0(a0)
     cf4:	0070                	addi	a2,sp,12
     cf6:	f301                	bnez	a4,bf6 <threadsense.3+0xbf2>
     cf8:	7122                	ld	sp,40(sp)
     cfa:	02000007          	.insn	4, 0x02000007
     cfe:	6891                	lui	a7,0x4
     d00:	0002f71b          	.insn	4, 0x0002f71b
     d04:	0100                	addi	s0,sp,128
     d06:	00552af3          	csrrs	s5,utvec,a0
     d0a:	0000                	unimp
     d0c:	9102                	jalr	sp
     d0e:	0064                	addi	s1,sp,12
     d10:	0809                	addi	a6,a6,2
     d12:	0118                	addi	a4,sp,128
     d14:	0000                	unimp
     d16:	2b22                	fld	fs6,8(sp)
     d18:	0002                	c.slli64	zero
     d1a:	0100                	addi	s0,sp,128
     d1c:	1be9                	addi	s7,s7,-6
     d1e:	0501                	addi	a0,a0,0
     d20:	0001                	nop
     d22:	de00                	sw	s0,56(a2)
     d24:	0010                	.insn	2, 0x0010
     d26:	0080                	addi	s0,sp,64
     d28:	0000                	unimp
     d2a:	4e00                	lw	s0,24(a2)
     d2c:	0011                	c.nop	4
     d2e:	0080                	addi	s0,sp,64
     d30:	0000                	unimp
     d32:	9900                	.insn	2, 0x9900
     d34:	0009                	c.nop	2
     d36:	0100                	addi	s0,sp,128
     d38:	000007bb          	addw	a5,zero,zero
     d3c:	611c                	ld	a5,0(a0)
     d3e:	0070                	addi	a2,sp,12
     d40:	e901                	bnez	a0,d50 <threadsense.3+0xd4c>
     d42:	712c                	ld	a1,96(a0)
     d44:	02000007          	.insn	4, 0x02000007
     d48:	6891                	lui	a7,0x4
     d4a:	0002f71b          	.insn	4, 0x0002f71b
     d4e:	0100                	addi	s0,sp,128
     d50:	34e9                	addiw	s1,s1,-6
     d52:	0055                	c.nop	21
     d54:	0000                	unimp
     d56:	9102                	jalr	sp
     d58:	0064                	addi	s1,sp,12
     d5a:	621a                	ld	tp,384(sp)
     d5c:	0002                	c.slli64	zero
     d5e:	0100                	addi	s0,sp,128
     d60:	14d4                	addi	a3,sp,612
     d62:	e601                	bnez	a2,d6a <threadsense.3+0xd66>
     d64:	0080000f          	fence	unknown,i
     d68:	0000                	unimp
     d6a:	de00                	sw	s0,56(a2)
     d6c:	0010                	.insn	2, 0x0010
     d6e:	0080                	addi	s0,sp,64
     d70:	0000                	unimp
     d72:	0d00                	addi	s0,sp,656
     d74:	000a                	c.slli	zero,0x2
     d76:	0100                	addi	s0,sp,128
     d78:	085d                	addi	a6,a6,23
     d7a:	0000                	unimp
     d7c:	0003f21b          	.insn	4, 0x0003f21b
     d80:	0100                	addi	s0,sp,128
     d82:	24d4                	fld	fa3,136(s1)
     d84:	00000727          	.insn	4, 0x0727
     d88:	7dd89103          	lh	sp,2013(a7) # 47dd <threadsense.3+0x47d9>
     d8c:	0003581b          	srliw	a6,t1,0x0
     d90:	0100                	addi	s0,sp,128
     d92:	40d4                	lw	a3,4(s1)
     d94:	0571                	addi	a0,a0,28
     d96:	0000                	unimp
     d98:	7dd09103          	lh	sp,2013(ra)
     d9c:	6e1c                	ld	a5,24(a2)
     d9e:	6d75                	lui	s10,0x1d
     da0:	0100                	addi	s0,sp,128
     da2:	28d5                	addiw	a7,a7,21
     da4:	0105                	addi	sp,sp,1
     da6:	0000                	unimp
     da8:	7dc89103          	lh	sp,2012(a7)
     dac:	00025d1b          	srliw	s10,tp,0x0
     db0:	0100                	addi	s0,sp,128
     db2:	36d5                	addiw	a3,a3,-11
     db4:	0000006b          	.insn	4, 0x006b
     db8:	7dc49103          	lh	sp,2012(s1)
     dbc:	00029d1b          	slliw	s10,t0,0x0
     dc0:	0100                	addi	s0,sp,128
     dc2:	40d5                	li	ra,21
     dc4:	0055                	c.nop	21
     dc6:	0000                	unimp
     dc8:	7dc09103          	lh	sp,2012(ra)
     dcc:	00028c1b          	sext.w	s8,t0
     dd0:	0100                	addi	s0,sp,128
     dd2:	4bd5                	li	s7,21
     dd4:	0055                	c.nop	21
     dd6:	0000                	unimp
     dd8:	7dbc9103          	lh	sp,2011(s9) # 47db <threadsense.3+0x47d7>
     ddc:	e50d                	bnez	a0,e06 <threadsense.3+0xe02>
     dde:	01000003          	lb	zero,16(zero) # 10 <threadsense.3+0xc>
     de2:	085d0cd7          	.insn	4, 0x085d0cd7
     de6:	0000                	unimp
     de8:	7de89103          	lh	sp,2014(a7)
     dec:	701d                	c.lui	zero,0xfffe7
     dee:	0100736f          	jal	t1,7dfe <threadsense.3+0x7dfa>
     df2:	07d8                	addi	a4,sp,964
     df4:	0055                	c.nop	21
     df6:	0000                	unimp
     df8:	9102                	jalr	sp
     dfa:	006c                	addi	a1,sp,12
     dfc:	00006b0b          	.insn	4, 0x6b0b
     e00:	6d00                	ld	s0,24(a0)
     e02:	0008                	.insn	2, 0x0008
     e04:	0c00                	addi	s0,sp,528
     e06:	0085                	addi	ra,ra,1
     e08:	0000                	unimp
     e0a:	0123003f 000003fd 	.insn	8, 0x03fd0123003f
     e12:	c601                	beqz	a2,e1a <threadsense.3+0xe16>
     e14:	0106                	slli	sp,sp,0x1
     e16:	0f5a                	slli	t5,t5,0x16
     e18:	8000                	.insn	2, 0x8000
     e1a:	0000                	unimp
     e1c:	0000                	unimp
     e1e:	0fe6                	slli	t6,t6,0x19
     e20:	8000                	.insn	2, 0x8000
     e22:	0000                	unimp
     e24:	0000                	unimp
     e26:	00000a83          	lb	s5,0(zero) # 0 <threadsense.2>
     e2a:	ba01                	j	73a <threadsense.3+0x736>
     e2c:	0008                	.insn	2, 0x0008
     e2e:	1c00                	addi	s0,sp,560
     e30:	0078                	addi	a4,sp,12
     e32:	c601                	beqz	a2,e3a <threadsense.3+0xe36>
     e34:	a918                	fsd	fa4,16(a0)
     e36:	0000                	unimp
     e38:	0200                	addi	s0,sp,256
     e3a:	4891                	li	a7,4
     e3c:	731d                	lui	t1,0xfffe7
     e3e:	7274                	ld	a3,224(a2)
     e40:	0100                	addi	s0,sp,128
     e42:	08c8                	addi	a0,sp,84
     e44:	08ba                	slli	a7,a7,0xe
     e46:	0000                	unimp
     e48:	9102                	jalr	sp
     e4a:	1d58                	addi	a4,sp,692
     e4c:	0069                	c.nop	26
     e4e:	c901                	beqz	a0,e5e <threadsense.3+0xe5a>
     e50:	00005507          	.insn	4, 0x5507
     e54:	0200                	addi	s0,sp,256
     e56:	6c91                	lui	s9,0x4
     e58:	0b00                	addi	s0,sp,400
     e5a:	000000f3          	.insn	4, 0x00f3
     e5e:	08ca                	slli	a7,a7,0x12
     e60:	0000                	unimp
     e62:	850c                	.insn	2, 0x850c
     e64:	0000                	unimp
     e66:	1000                	addi	s0,sp,32
     e68:	1700                	addi	s0,sp,928
     e6a:	3301                	addiw	t1,t1,-32 # fffffffffffe6fe0 <__global_pointer$+0xffffffff7ffe4798>
     e6c:	0002                	c.slli64	zero
     e6e:	0300                	addi	s0,sp,384
     e70:	05e2                	slli	a1,a1,0x18
     e72:	5501                	li	a0,-32
     e74:	0000                	unimp
     e76:	3200                	fld	fs0,32(a2)
     e78:	0080000f          	fence	unknown,i
     e7c:	0000                	unimp
     e7e:	5a00                	lw	s0,48(a2)
     e80:	0080000f          	fence	unknown,i
     e84:	0000                	unimp
     e86:	f900                	sd	s0,48(a0)
     e88:	000a                	c.slli	zero,0x2
     e8a:	0100                	addi	s0,sp,128
     e8c:	0900                	addi	s0,sp,144
     e8e:	0000                	unimp
     e90:	631c                	ld	a5,0(a4)
     e92:	0068                	addi	a0,sp,12
     e94:	b101                	j	a94 <threadsense.3+0xa90>
     e96:	5511                	li	a0,-28
     e98:	0000                	unimp
     e9a:	0200                	addi	s0,sp,256
     e9c:	6c91                	lui	s9,0x4
     e9e:	2300                	fld	fs0,0(a4)
     ea0:	3301                	addiw	t1,t1,-32
     ea2:	01000003          	lb	zero,16(zero) # 10 <threadsense.3+0xc>
     ea6:	069c                	addi	a5,sp,832
     ea8:	4c01                	li	s8,0
     eaa:	000e                	c.slli	zero,0x3
     eac:	0080                	addi	s0,sp,64
     eae:	0000                	unimp
     eb0:	3200                	fld	fs0,32(a2)
     eb2:	0080000f          	fence	unknown,i
     eb6:	0000                	unimp
     eb8:	6d00                	ld	s0,24(a0)
     eba:	0100000b          	.insn	4, 0x0100000b
     ebe:	0990                	addi	a2,sp,208
     ec0:	0000                	unimp
     ec2:	631c                	ld	a5,0(a4)
     ec4:	6469                	lui	s0,0x1a
     ec6:	0100                	addi	s0,sp,128
     ec8:	109c                	addi	a5,sp,96
     eca:	0055                	c.nop	21
     ecc:	0000                	unimp
     ece:	7edc9103          	lh	sp,2029(s9) # 47ed <threadsense.3+0x47e9>
     ed2:	6e1c                	ld	a5,24(a2)
     ed4:	9c010063          	beqz	sp,94 <threadsense.3+0x90>
     ed8:	5519                	li	a0,-26
     eda:	0000                	unimp
     edc:	0300                	addi	s0,sp,384
     ede:	d891                	beqz	s1,df2 <threadsense.3+0xdee>
     ee0:	1d7e                	slli	s10,s10,0x3f
     ee2:	6572                	ld	a0,280(sp)
     ee4:	0074                	addi	a3,sp,12
     ee6:	a301                	j	13e6 <threadsense.3+0x13e2>
     ee8:	00005507          	.insn	4, 0x5507
     eec:	0200                	addi	s0,sp,256
     eee:	5091                	li	ra,-28
     ef0:	6224                	ld	s1,64(a2)
     ef2:	6675                	lui	a2,0x1d
     ef4:	0100                	addi	s0,sp,128
     ef6:	08a5                	addi	a7,a7,9
     ef8:	0990                	addi	a2,sp,208
     efa:	0000                	unimp
     efc:	0240                	addi	s0,sp,260
     efe:	0079                	c.nop	30
     f00:	af0d                	j	1632 <threadsense.3+0x162e>
     f02:	0002                	c.slli64	zero
     f04:	0100                	addi	s0,sp,128
     f06:	09a6                	slli	s3,s3,0x9
     f08:	00ed                	addi	ra,ra,27
     f0a:	0000                	unimp
     f0c:	9102                	jalr	sp
     f0e:	1558                	addi	a4,sp,676
     f10:	0ea8                	addi	a0,sp,856
     f12:	8000                	.insn	2, 0x8000
     f14:	0000                	unimp
     f16:	0000                	unimp
     f18:	0f1a                	slli	t5,t5,0x6
     f1a:	8000                	.insn	2, 0x8000
     f1c:	0000                	unimp
     f1e:	0000                	unimp
     f20:	691d                	lui	s2,0x7
     f22:	0100                	addi	s0,sp,128
     f24:	00550ca7          	.insn	4, 0x00550ca7
     f28:	0000                	unimp
     f2a:	9102                	jalr	sp
     f2c:	0054                	addi	a3,sp,4
     f2e:	0b00                	addi	s0,sp,400
     f30:	000000f3          	.insn	4, 0x00f3
     f34:	09a0                	addi	s0,sp,216
     f36:	0000                	unimp
     f38:	850c                	.insn	2, 0x850c
     f3a:	0000                	unimp
     f3c:	3f00                	fld	fs0,56(a4)
     f3e:	2500                	fld	fs0,8(a0)
     f40:	0449                	addi	s0,s0,18 # 1a012 <threadsense.3+0x1a00e>
     f42:	0000                	unimp
     f44:	9201                	srli	a2,a2,0x20
     f46:	f60d                	bnez	a2,e70 <threadsense.3+0xe6c>
     f48:	000d                	c.nop	3
     f4a:	0080                	addi	s0,sp,64
     f4c:	0000                	unimp
     f4e:	4c00                	lw	s0,24(s0)
     f50:	000e                	c.slli	zero,0x3
     f52:	0080                	addi	s0,sp,64
     f54:	0000                	unimp
     f56:	ba00                	fsd	fs0,48(a2)
     f58:	0100000b          	.insn	4, 0x0100000b
     f5c:	0a18                	addi	a4,sp,272
     f5e:	0000                	unimp
     f60:	9f0d                	subw	a4,a4,a1
     f62:	01000003          	lb	zero,16(zero) # 10 <threadsense.3+0xc>
     f66:	1294                	addi	a3,sp,352
     f68:	00e5                	addi	ra,ra,25
     f6a:	0000                	unimp
     f6c:	5401                	li	s0,-32
     f6e:	770a                	ld	a4,160(sp)
     f70:	01000003          	lb	zero,16(zero) # 10 <threadsense.3+0xc>
     f74:	0f95                	addi	t6,t6,5 # 4005 <threadsense.3+0x4001>
     f76:	000000f3          	.insn	4, 0x00f3
     f7a:	0101                	addi	sp,sp,0
     f7c:	200a                	fld	ft0,128(sp)
     f7e:	0002                	c.slli64	zero
     f80:	0100                	addi	s0,sp,128
     f82:	1d95                	addi	s11,s11,-27
     f84:	000000f3          	.insn	4, 0x00f3
     f88:	0101                	addi	sp,sp,0
     f8a:	c10a                	sw	sp,128(sp)
     f8c:	01000003          	lb	zero,16(zero) # 10 <threadsense.3+0xc>
     f90:	2995                	addiw	s3,s3,5
     f92:	000000f3          	.insn	4, 0x00f3
     f96:	0101                	addi	sp,sp,0
     f98:	0a0d                	addi	s4,s4,3
     f9a:	0002                	c.slli64	zero
     f9c:	0100                	addi	s0,sp,128
     f9e:	0a96                	slli	s5,s5,0x5
     fa0:	000000cb          	fnmsub.s	ft1,ft0,ft0,ft0,rne
     fa4:	9102                	jalr	sp
     fa6:	0d68                	addi	a0,sp,668
     fa8:	0395                	addi	t2,t2,5
     faa:	0000                	unimp
     fac:	9801                	andi	s0,s0,-32
     fae:	cb0a                	sw	sp,148(sp)
     fb0:	0000                	unimp
     fb2:	0200                	addi	s0,sp,256
     fb4:	6091                	lui	ra,0x4
     fb6:	1700                	addi	s0,sp,928
     fb8:	8d01                	sub	a0,a0,s0
     fba:	0000                	unimp
     fbc:	0100                	addi	s0,sp,128
     fbe:	55011b8b          	.insn	4, 0x55011b8b
     fc2:	0000                	unimp
     fc4:	cc00                	sw	s0,24(s0)
     fc6:	000d                	c.nop	3
     fc8:	0080                	addi	s0,sp,64
     fca:	0000                	unimp
     fcc:	f600                	sd	s0,40(a2)
     fce:	000d                	c.nop	3
     fd0:	0080                	addi	s0,sp,64
     fd2:	0000                	unimp
     fd4:	2e00                	fld	fs0,24(a2)
     fd6:	000c                	.insn	2, 0x000c
     fd8:	0100                	addi	s0,sp,128
     fda:	0a5e                	slli	s4,s4,0x17
     fdc:	0000                	unimp
     fde:	00035f1b          	srliw	t5,t1,0x0
     fe2:	0100                	addi	s0,sp,128
     fe4:	0055248b          	.insn	4, 0x0055248b
     fe8:	0000                	unimp
     fea:	9102                	jalr	sp
     fec:	1b6c                	addi	a1,sp,444
     fee:	036a                	slli	t1,t1,0x1a
     ff0:	0000                	unimp
     ff2:	8b01                	andi	a4,a4,0
     ff4:	7731                	lui	a4,0xfffec
     ff6:	0005                	c.nop	1
     ff8:	0200                	addi	s0,sp,256
     ffa:	6091                	lui	ra,0x4
     ffc:	2600                	fld	fs0,8(a2)
     ffe:	4901                	li	s2,0
    1000:	0002                	c.slli64	zero
    1002:	0100                	addi	s0,sp,128
    1004:	1c84                	addi	s1,sp,624
    1006:	a001                	j	1006 <threadsense.3+0x1002>
    1008:	000d                	c.nop	3
    100a:	0080                	addi	s0,sp,64
    100c:	0000                	unimp
    100e:	cc00                	sw	s0,24(s0)
    1010:	000d                	c.nop	3
    1012:	0080                	addi	s0,sp,64
    1014:	0000                	unimp
    1016:	a200                	fsd	fs0,0(a2)
    1018:	000c                	.insn	2, 0x000c
    101a:	0100                	addi	s0,sp,128
    101c:	0a9f 0000 631c      	.insn	6, 0x631c00000a9f
    1022:	6469                	lui	s0,0x1a
    1024:	0100                	addi	s0,sp,128
    1026:	2d84                	fld	fs1,24(a1)
    1028:	0055                	c.nop	21
    102a:	0000                	unimp
    102c:	9102                	jalr	sp
    102e:	1c6c                	addi	a1,sp,572
    1030:	636e                	ld	t1,216(sp)
    1032:	0100                	addi	s0,sp,128
    1034:	3684                	fld	fs1,40(a3)
    1036:	0055                	c.nop	21
    1038:	0000                	unimp
    103a:	9102                	jalr	sp
    103c:	0068                	addi	a0,sp,12
    103e:	02870117          	auipc	sp,0x2870
    1042:	0000                	unimp
    1044:	0105e303          	lwu	t1,16(a1)
    1048:	0055                	c.nop	21
    104a:	0000                	unimp
    104c:	0d80                	addi	s0,sp,720
    104e:	8000                	.insn	2, 0x8000
    1050:	0000                	unimp
    1052:	0000                	unimp
    1054:	0da0                	addi	s0,sp,728
    1056:	8000                	.insn	2, 0x8000
    1058:	0000                	unimp
    105a:	0000                	unimp
    105c:	0d16                	slli	s10,s10,0x5
    105e:	0000                	unimp
    1060:	d401                	beqz	s0,f68 <threadsense.3+0xf64>
    1062:	000a                	c.slli	zero,0x2
    1064:	1c00                	addi	s0,sp,560
    1066:	7e010073          	.insn	4, 0x7e010073
    106a:	ff16                	sd	t0,440(sp)
    106c:	0000                	unimp
    106e:	0200                	addi	s0,sp,256
    1070:	6891                	lui	a7,0x4
    1072:	2300                	fld	fs0,0(a4)
    1074:	4001                	c.li	zero,0
    1076:	0002                	c.slli64	zero
    1078:	0100                	addi	s0,sp,128
    107a:	62010673          	.insn	4, 0x62010673
    107e:	000d                	c.nop	3
    1080:	0080                	addi	s0,sp,64
    1082:	0000                	unimp
    1084:	8000                	.insn	2, 0x8000
    1086:	000d                	c.nop	3
    1088:	0080                	addi	s0,sp,64
    108a:	0000                	unimp
    108c:	8a00                	.insn	2, 0x8a00
    108e:	000d                	c.nop	3
    1090:	0100                	addi	s0,sp,128
    1092:	0b05                	addi	s6,s6,1
    1094:	0000                	unimp
    1096:	731c                	ld	a5,32(a4)
    1098:	0100                	addi	s0,sp,128
    109a:	00ff1b73          	csrrw	s6,vcsr,t5
    109e:	0000                	unimp
    10a0:	9102                	jalr	sp
    10a2:	0068                	addi	a0,sp,12
    10a4:	02720127          	.insn	4, 0x02720127
    10a8:	0000                	unimp
    10aa:	6e01                	.insn	2, 0x6e01
    10ac:	5206                	lw	tp,96(sp)
    10ae:	000d                	c.nop	3
    10b0:	0080                	addi	s0,sp,64
    10b2:	0000                	unimp
    10b4:	6200                	ld	s0,0(a2)
    10b6:	000d                	c.nop	3
    10b8:	0080                	addi	s0,sp,64
    10ba:	0000                	unimp
    10bc:	fe00                	sd	s0,56(a2)
    10be:	000d                	c.nop	3
    10c0:	0100                	addi	s0,sp,128
    10c2:	0128                	addi	a0,sp,136
    10c4:	02aa                	slli	t0,t0,0xa
    10c6:	0000                	unimp
    10c8:	6901                	.insn	2, 0x6901
    10ca:	0106                	slli	sp,sp,0x1
    10cc:	3a01                	addiw	s4,s4,-32
    10ce:	000d                	c.nop	3
    10d0:	0080                	addi	s0,sp,64
    10d2:	0000                	unimp
    10d4:	5200                	lw	s0,32(a2)
    10d6:	000d                	c.nop	3
    10d8:	0080                	addi	s0,sp,64
    10da:	0000                	unimp
    10dc:	4a00                	lw	s0,16(a2)
    10de:	000e                	c.slli	zero,0x3
    10e0:	0100                	addi	s0,sp,128
    10e2:	00000b57          	.insn	4, 0x0b57
    10e6:	0002c21b          	.insn	4, 0x0002c21b
    10ea:	0100                	addi	s0,sp,128
    10ec:	0f69                	addi	t5,t5,26
    10ee:	0055                	c.nop	21
    10f0:	0000                	unimp
    10f2:	9102                	jalr	sp
    10f4:	006c                	addi	a1,sp,12
    10f6:	04100117          	auipc	sp,0x4100
    10fa:	0000                	unimp
    10fc:	6401                	.insn	2, 0x6401
    10fe:	0121                	addi	sp,sp,8 # 41010fe <threadsense.3+0x41010fa>
    1100:	00ba                	slli	ra,ra,0xe
    1102:	0000                	unimp
    1104:	0d1e                	slli	s10,s10,0x7
    1106:	8000                	.insn	2, 0x8000
    1108:	0000                	unimp
    110a:	0000                	unimp
    110c:	0d3a                	slli	s10,s10,0xe
    110e:	8000                	.insn	2, 0x8000
    1110:	0000                	unimp
    1112:	0000                	unimp
    1114:	0e96                	slli	t4,t4,0x5
    1116:	0000                	unimp
    1118:	ac01                	j	1328 <threadsense.3+0x1324>
    111a:	1b00000b          	.insn	4, 0x1b00000b
    111e:	02fd                	addi	t0,t0,31
    1120:	0000                	unimp
    1122:	6401                	.insn	2, 0x6401
    1124:	0000ba37          	lui	s4,0xb
    1128:	0200                	addi	s0,sp,256
    112a:	6891                	lui	a7,0x4
    112c:	651c                	ld	a5,8(a0)
    112e:	6370                	ld	a2,192(a4)
    1130:	0100                	addi	s0,sp,128
    1132:	4864                	lw	s1,84(s0)
    1134:	00ba                	slli	ra,ra,0xe
    1136:	0000                	unimp
    1138:	9102                	jalr	sp
    113a:	1b60                	addi	s0,sp,444
    113c:	0000023b          	addw	tp,zero,zero
    1140:	6401                	.insn	2, 0x6401
    1142:	0003e257          	.insn	4, 0x0003e257
    1146:	0200                	addi	s0,sp,256
    1148:	5891                	li	a7,-28
    114a:	2900                	fld	fs0,16(a0)
    114c:	a301                	j	164c <threadsense.3+0x1648>
    114e:	0002                	c.slli64	zero
    1150:	0100                	addi	s0,sp,128
    1152:	205e                	fld	ft0,464(sp)
    1154:	0101                	addi	sp,sp,0
    1156:	0cfc                	addi	a5,sp,604
    1158:	8000                	.insn	2, 0x8000
    115a:	0000                	unimp
    115c:	0000                	unimp
    115e:	0d1e                	slli	s10,s10,0x7
    1160:	8000                	.insn	2, 0x8000
    1162:	0000                	unimp
    1164:	0000                	unimp
    1166:	0ee2                	slli	t4,t4,0x18
    1168:	0000                	unimp
    116a:	e001                	bnez	s0,116a <threadsense.3+0x1166>
    116c:	1b00000b          	.insn	4, 0x1b00000b
    1170:	02c2                	slli	t0,t0,0x10
    1172:	0000                	unimp
    1174:	5e01                	li	t3,-32
    1176:	ba36                	fsd	fa3,304(sp)
    1178:	0000                	unimp
    117a:	0200                	addi	s0,sp,256
    117c:	6891                	lui	a7,0x4
    117e:	2600                	fld	fs0,8(a2)
    1180:	bc01                	j	b90 <threadsense.3+0xb8c>
    1182:	0001                	nop
    1184:	0100                	addi	s0,sp,128
    1186:	064e                	slli	a2,a2,0x13
    1188:	f001                	bnez	s0,1088 <threadsense.3+0x1084>
    118a:	0080000b          	.insn	4, 0x0080000b
    118e:	0000                	unimp
    1190:	fc00                	sd	s0,56(s0)
    1192:	000c                	.insn	2, 0x000c
    1194:	0080                	addi	s0,sp,64
    1196:	0000                	unimp
    1198:	2e00                	fld	fs0,24(a2)
    119a:	0100000f          	fence	w,unknown
    119e:	0ca9                	addi	s9,s9,10
    11a0:	0000                	unimp
    11a2:	00026b1b          	.insn	4, 0x00026b1b
    11a6:	0100                	addi	s0,sp,128
    11a8:	134e                	slli	t1,t1,0x33
    11aa:	0055                	c.nop	21
    11ac:	0000                	unimp
    11ae:	7fbc9103          	lh	sp,2043(s9)
    11b2:	691d                	lui	s2,0x7
    11b4:	0100                	addi	s0,sp,128
    11b6:	0750                	addi	a2,sp,900
    11b8:	0055                	c.nop	21
    11ba:	0000                	unimp
    11bc:	9102                	jalr	sp
    11be:	145c                	addi	a5,sp,548
    11c0:	0c02                	c.slli64	s8
    11c2:	8000                	.insn	2, 0x8000
    11c4:	0000                	unimp
    11c6:	0000                	unimp
    11c8:	0c7a                	slli	s8,s8,0x1e
    11ca:	8000                	.insn	2, 0x8000
    11cc:	0000                	unimp
    11ce:	0000                	unimp
    11d0:	0c66                	slli	s8,s8,0x19
    11d2:	0000                	unimp
    11d4:	631d                	lui	t1,0x7
    11d6:	01007273          	csrrci	tp,0x10,0
    11da:	0358                	addi	a4,sp,388
    11dc:	00ba                	slli	ra,ra,0xe
    11de:	0000                	unimp
    11e0:	9102                	jalr	sp
    11e2:	1568                	addi	a0,sp,684
    11e4:	0c10                	addi	a2,sp,528
    11e6:	8000                	.insn	2, 0x8000
    11e8:	0000                	unimp
    11ea:	0000                	unimp
    11ec:	0c1c                	addi	a5,sp,528
    11ee:	8000                	.insn	2, 0x8000
    11f0:	0000                	unimp
    11f2:	0000                	unimp
    11f4:	2c0d                	addiw	s8,s8,3
    11f6:	0004                	.insn	2, 0x0004
    11f8:	0100                	addi	s0,sp,128
    11fa:	0358                	addi	a4,sp,388
    11fc:	0085                	addi	ra,ra,1 # 4001 <threadsense.3+0x3ffd>
    11fe:	0000                	unimp
    1200:	9102                	jalr	sp
    1202:	0050                	addi	a2,sp,4
    1204:	1500                	addi	s0,sp,672
    1206:	0c7a                	slli	s8,s8,0x1e
    1208:	8000                	.insn	2, 0x8000
    120a:	0000                	unimp
    120c:	0000                	unimp
    120e:	0cf2                	slli	s9,s9,0x1c
    1210:	8000                	.insn	2, 0x8000
    1212:	0000                	unimp
    1214:	0000                	unimp
    1216:	631d                	lui	t1,0x7
    1218:	01007273          	csrrci	tp,0x10,0
    121c:	0359                	addi	t1,t1,22 # 7016 <threadsense.3+0x7012>
    121e:	00ba                	slli	ra,ra,0xe
    1220:	0000                	unimp
    1222:	9102                	jalr	sp
    1224:	1560                	addi	s0,sp,684
    1226:	0c88                	addi	a0,sp,592
    1228:	8000                	.insn	2, 0x8000
    122a:	0000                	unimp
    122c:	0000                	unimp
    122e:	0c94                	addi	a3,sp,592
    1230:	8000                	.insn	2, 0x8000
    1232:	0000                	unimp
    1234:	0000                	unimp
    1236:	2c0d                	addiw	s8,s8,3
    1238:	0004                	.insn	2, 0x0004
    123a:	0100                	addi	s0,sp,128
    123c:	0359                	addi	t1,t1,22
    123e:	0085                	addi	ra,ra,1
    1240:	0000                	unimp
    1242:	9102                	jalr	sp
    1244:	0048                	addi	a0,sp,4
    1246:	0000                	unimp
    1248:	3922                	fld	fs2,40(sp)
    124a:	01000003          	lb	zero,16(zero) # 10 <threadsense.3+0xc>
    124e:	1238                	addi	a4,sp,296
    1250:	ba01                	j	b60 <threadsense.3+0xb5c>
    1252:	0000                	unimp
    1254:	6e00                	ld	s0,24(a2)
    1256:	0080000b          	.insn	4, 0x0080000b
    125a:	0000                	unimp
    125c:	f000                	sd	s0,32(s0)
    125e:	0080000b          	.insn	4, 0x0080000b
    1262:	0000                	unimp
    1264:	a400                	fsd	fs0,8(s0)
    1266:	0100000f          	fence	w,unknown
    126a:	0d20                	addi	s0,sp,664
    126c:	0000                	unimp
    126e:	0003641b          	.insn	4, 0x0003641b
    1272:	0100                	addi	s0,sp,128
    1274:	2438                	fld	fa4,72(s0)
    1276:	00ba                	slli	ra,ra,0xe
    1278:	0000                	unimp
    127a:	7ef89103          	lh	sp,2031(a7) # 47ef <threadsense.3+0x47eb>
    127e:	0003241b          	.insn	4, 0x0003241b
    1282:	0100                	addi	s0,sp,128
    1284:	3438                	fld	fa4,104(s0)
    1286:	00a9                	addi	ra,ra,10
    1288:	0000                	unimp
    128a:	7ef09103          	lh	sp,2031(ra)
    128e:	0003291b          	.insn	4, 0x0003291b
    1292:	0100                	addi	s0,sp,128
    1294:	4338                	lw	a4,64(a4)
    1296:	00a9                	addi	ra,ra,10
    1298:	0000                	unimp
    129a:	7ee89103          	lh	sp,2030(a7)
    129e:	00032e1b          	.insn	4, 0x00032e1b
    12a2:	0100                	addi	s0,sp,128
    12a4:	5238                	lw	a4,96(a2)
    12a6:	00a9                	addi	ra,ra,10
    12a8:	0000                	unimp
    12aa:	7ee09103          	lh	sp,2030(ra)
    12ae:	062a                	slli	a2,a2,0xa
    12b0:	0004                	.insn	2, 0x0004
    12b2:	0100                	addi	s0,sp,128
    12b4:	153a                	slli	a0,a0,0x2e
    12b6:	0d30                	addi	a2,sp,664
    12b8:	0000                	unimp
    12ba:	0240                	addi	s0,sp,260
    12bc:	007f 0b00 00b5 0000 	.insn	10, 0x0d30000000b50b00007f
    12c4:	0d30 
    12c6:	0000                	unimp
    12c8:	850c                	.insn	2, 0x850c
    12ca:	0000                	unimp
    12cc:	0700                	addi	s0,sp,896
    12ce:	0500                	addi	s0,sp,640
    12d0:	0d20                	addi	s0,sp,664
    12d2:	0000                	unimp
    12d4:	02150117          	auipc	sp,0x2150
    12d8:	0000                	unimp
    12da:	2e01                	sext.w	t3,t3
    12dc:	0106                	slli	sp,sp,0x1
    12de:	000000f3          	.insn	4, 0x00f3
    12e2:	0b34                	addi	a3,sp,408
    12e4:	8000                	.insn	2, 0x8000
    12e6:	0000                	unimp
    12e8:	0000                	unimp
    12ea:	0b6e                	slli	s6,s6,0x1b
    12ec:	8000                	.insn	2, 0x8000
    12ee:	0000                	unimp
    12f0:	0000                	unimp
    12f2:	101a                	c.slli	zero,0x26
    12f4:	0000                	unimp
    12f6:	6c01                	.insn	2, 0x6c01
    12f8:	000d                	c.nop	3
    12fa:	1c00                	addi	s0,sp,560
    12fc:	00727473          	csrrci	s0,0x7,4
    1300:	2e01                	sext.w	t3,t3
    1302:	ff1d                	bnez	a4,1240 <threadsense.3+0x123c>
    1304:	0000                	unimp
    1306:	0200                	addi	s0,sp,256
    1308:	6891                	lui	a7,0x4
    130a:	1200                	addi	s0,sp,288
    130c:	0c01                	addi	s8,s8,0
    130e:	01000003          	lb	zero,16(zero) # 10 <threadsense.3+0xc>
    1312:	0626                	slli	a2,a2,0x9
    1314:	f301                	bnez	a4,1214 <threadsense.3+0x1210>
    1316:	0000                	unimp
    1318:	ee00                	sd	s0,24(a2)
    131a:	000a                	c.slli	zero,0x2
    131c:	0080                	addi	s0,sp,64
    131e:	0000                	unimp
    1320:	3400                	fld	fs0,40(s0)
    1322:	0080000b          	.insn	4, 0x0080000b
    1326:	0000                	unimp
    1328:	8e00                	.insn	2, 0x8e00
    132a:	0010                	.insn	2, 0x0010
    132c:	0100                	addi	s0,sp,128
    132e:	0db2                	slli	s11,s11,0xc
    1330:	0000                	unimp
    1332:	cb0d                	beqz	a4,1364 <threadsense.3+0x1360>
    1334:	01000003          	lb	zero,16(zero) # 10 <threadsense.3+0xc>
    1338:	0db21527          	.insn	4, 0x0db21527
    133c:	0000                	unimp
    133e:	9102                	jalr	sp
    1340:	0d68                	addi	a0,sp,668
    1342:	00000303          	lb	t1,0(zero) # 0 <threadsense.2>
    1346:	2801                	sext.w	a6,a6
    1348:	b215                	j	c6c <threadsense.3+0xc68>
    134a:	000d                	c.nop	3
    134c:	0200                	addi	s0,sp,256
    134e:	6091                	lui	ra,0x4
    1350:	0900                	addi	s0,sp,144
    1352:	a408                	fsd	fa0,8(s0)
    1354:	0000                	unimp
    1356:	2600                	fld	fs0,8(a2)
    1358:	e701                	bnez	a4,1360 <threadsense.3+0x135c>
    135a:	0001                	nop
    135c:	0100                	addi	s0,sp,128
    135e:	061e                	slli	a2,a2,0x7
    1360:	a001                	j	1360 <threadsense.3+0x135c>
    1362:	000a                	c.slli	zero,0x2
    1364:	0080                	addi	s0,sp,64
    1366:	0000                	unimp
    1368:	ee00                	sd	s0,24(a2)
    136a:	000a                	c.slli	zero,0x2
    136c:	0080                	addi	s0,sp,64
    136e:	0000                	unimp
    1370:	0200                	addi	s0,sp,256
    1372:	0011                	c.nop	4
    1374:	0100                	addi	s0,sp,128
    1376:	00000e07          	.insn	4, 0x0e07
    137a:	631c                	ld	a5,0(a4)
    137c:	0100                	addi	s0,sp,128
    137e:	141e                	slli	s0,s0,0x27
    1380:	000000f3          	.insn	4, 0x00f3
    1384:	9102                	jalr	sp
    1386:	0d5f 038c 0000      	.insn	6, 0x038c0d5f
    138c:	1f01                	addi	t5,t5,-32
    138e:	b215                	j	cb2 <threadsense.3+0xcae>
    1390:	000d                	c.nop	3
    1392:	0200                	addi	s0,sp,256
    1394:	6891                	lui	a7,0x4
    1396:	030d                	addi	t1,t1,3
    1398:	01000003          	lb	zero,16(zero) # 10 <threadsense.3+0xc>
    139c:	1520                	addi	s0,sp,680
    139e:	0db2                	slli	s11,s11,0xc
    13a0:	0000                	unimp
    13a2:	9102                	jalr	sp
    13a4:	0060                	addi	s0,sp,12
    13a6:	0126                	slli	sp,sp,0x9
    13a8:	000002c7          	fmsub.s	ft5,ft0,ft0,ft0,rne
    13ac:	1901                	addi	s2,s2,-32 # 6fe0 <threadsense.3+0x6fdc>
    13ae:	0106                	slli	sp,sp,0x1
    13b0:	0a7a                	slli	s4,s4,0x1e
    13b2:	8000                	.insn	2, 0x8000
    13b4:	0000                	unimp
    13b6:	0000                	unimp
    13b8:	0aa0                	addi	s0,sp,344
    13ba:	8000                	.insn	2, 0x8000
    13bc:	0000                	unimp
    13be:	0000                	unimp
    13c0:	1176                	slli	sp,sp,0x3d
    13c2:	0000                	unimp
    13c4:	3a01                	addiw	s4,s4,-32 # afe0 <threadsense.3+0xafdc>
    13c6:	000e                	c.slli	zero,0x3
    13c8:	0d00                	addi	s0,sp,656
    13ca:	02d0                	addi	a2,sp,324
    13cc:	0000                	unimp
    13ce:	1a01                	addi	s4,s4,-32
    13d0:	b215                	j	cf4 <threadsense.3+0xcf0>
    13d2:	000d                	c.nop	3
    13d4:	0200                	addi	s0,sp,256
    13d6:	6891                	lui	a7,0x4
    13d8:	2200                	fld	fs0,0(a2)
    13da:	0032                	c.slli	zero,0xc
    13dc:	0000                	unimp
    13de:	4602                	lw	a2,0(sp)
    13e0:	0112                	slli	sp,sp,0x4
    13e2:	00ba                	slli	ra,ra,0xe
    13e4:	0000                	unimp
    13e6:	0a4e                	slli	s4,s4,0x13
    13e8:	8000                	.insn	2, 0x8000
    13ea:	0000                	unimp
    13ec:	0000                	unimp
    13ee:	0a7a                	slli	s4,s4,0x1e
    13f0:	8000                	.insn	2, 0x8000
    13f2:	0000                	unimp
    13f4:	0000                	unimp
    13f6:	11ea                	slli	gp,gp,0x3a
    13f8:	0000                	unimp
    13fa:	6f01                	.insn	2, 0x6f01
    13fc:	000e                	c.slli	zero,0x3
    13fe:	1c00                	addi	s0,sp,560
    1400:	6370                	ld	a2,192(a4)
    1402:	0200                	addi	s0,sp,256
    1404:	2546                	fld	fa0,80(sp)
    1406:	00ba                	slli	ra,ra,0xe
    1408:	0000                	unimp
    140a:	9102                	jalr	sp
    140c:	0068                	addi	a0,sp,12
    140e:	4922                	lw	s2,8(sp)
    1410:	0000                	unimp
    1412:	0200                	addi	s0,sp,256
    1414:	1140                	addi	s0,sp,164
    1416:	a901                	j	1826 <threadsense.3+0x1822>
    1418:	0000                	unimp
    141a:	1400                	addi	s0,sp,544
    141c:	000a                	c.slli	zero,0x2
    141e:	0080                	addi	s0,sp,64
    1420:	0000                	unimp
    1422:	4e00                	lw	s0,24(a2)
    1424:	000a                	c.slli	zero,0x2
    1426:	0080                	addi	s0,sp,64
    1428:	0000                	unimp
    142a:	5e00                	lw	s0,56(a2)
    142c:	0012                	c.slli	zero,0x4
    142e:	0100                	addi	s0,sp,128
    1430:	0eb2                	slli	t4,t4,0xc
    1432:	0000                	unimp
    1434:	781c                	ld	a5,48(s0)
    1436:	0200                	addi	s0,sp,256
    1438:	1f40                	addi	s0,sp,948
    143a:	00a9                	addi	ra,ra,10 # 400a <threadsense.3+0x4006>
    143c:	0000                	unimp
    143e:	9102                	jalr	sp
    1440:	1d58                	addi	a4,sp,692
    1442:	6962                	ld	s2,24(sp)
    1444:	0074                	addi	a3,sp,12
    1446:	4202                	lw	tp,0(sp)
    1448:	a90c                	fsd	fa1,16(a0)
    144a:	0000                	unimp
    144c:	0200                	addi	s0,sp,256
    144e:	6891                	lui	a7,0x4
    1450:	2b00                	fld	fs0,16(a4)
    1452:	0085                	addi	ra,ra,1
    1454:	0000                	unimp
    1456:	2c02                	fld	fs8,0(sp)
    1458:	099c0127          	.insn	4, 0x099c0127
    145c:	8000                	.insn	2, 0x8000
    145e:	0000                	unimp
    1460:	0000                	unimp
    1462:	0a14                	addi	a3,sp,272
    1464:	8000                	.insn	2, 0x8000
    1466:	0000                	unimp
    1468:	0000                	unimp
    146a:	12d2                	slli	t0,t0,0x34
    146c:	0000                	unimp
    146e:	1c01                	addi	s8,s8,-32
    1470:	1b00000f          	.insn	4, 0x1b00000f
    1474:	0000002b          	.insn	4, 0x002b
    1478:	2c02                	fld	fs8,0(sp)
    147a:	00005533          	srl	a0,zero,zero
    147e:	0200                	addi	s0,sp,256
    1480:	6c91                	lui	s9,0x4
    1482:	700d                	c.lui	zero,0xfffe3
    1484:	0000                	unimp
    1486:	0200                	addi	s0,sp,256
    1488:	172e                	slli	a4,a4,0x2b
    148a:	005c                	addi	a5,sp,4
    148c:	0000                	unimp
    148e:	0309                	addi	t1,t1,2
    1490:	2074                	fld	fa3,192(s0)
    1492:	8000                	.insn	2, 0x8000
    1494:	0000                	unimp
    1496:	0000                	unimp
    1498:	000d                	c.nop	3
    149a:	0000                	unimp
    149c:	0200                	addi	s0,sp,256
    149e:	005c172f          	.insn	4, 0x005c172f
    14a2:	0000                	unimp
    14a4:	0309                	addi	t1,t1,2
    14a6:	2070                	fld	fa2,192(s0)
    14a8:	8000                	.insn	2, 0x8000
    14aa:	0000                	unimp
    14ac:	0000                	unimp
    14ae:	6a2c                	ld	a1,80(a2)
    14b0:	0000                	unimp
    14b2:	0200                	addi	s0,sp,256
    14b4:	1730                	addi	a2,sp,936
    14b6:	0055                	c.nop	21
    14b8:	0000                	unimp
    14ba:	2200                	fld	fs0,0(a2)
    14bc:	00ea                	slli	ra,ra,0x1a
    14be:	0000                	unimp
    14c0:	1c02                	slli	s8,s8,0x20
    14c2:	010c                	addi	a1,sp,128
    14c4:	0055                	c.nop	21
    14c6:	0000                	unimp
    14c8:	087e                	slli	a6,a6,0x1f
    14ca:	8000                	.insn	2, 0x8000
    14cc:	0000                	unimp
    14ce:	0000                	unimp
    14d0:	099c                	addi	a5,sp,208
    14d2:	8000                	.insn	2, 0x8000
    14d4:	0000                	unimp
    14d6:	0000                	unimp
    14d8:	1346                	slli	t1,t1,0x31
    14da:	0000                	unimp
    14dc:	e601                	bnez	a2,14e4 <threadsense.3+0x14e0>
    14de:	1c00000f          	.insn	4, 0x1c00000f
    14e2:	006e                	c.slli	zero,0x1b
    14e4:	1c02                	slli	s8,s8,0x20
    14e6:	551d                	li	a0,-25
    14e8:	0000                	unimp
    14ea:	0300                	addi	s0,sp,384
    14ec:	bc91                	j	f40 <threadsense.3+0xf3c>
    14ee:	00921b7f 1c020000 	.insn	12, 0x000fe6371c02000000921b7f
    14f6:	000fe637 
    14fa:	0300                	addi	s0,sp,384
    14fc:	b091                	j	d40 <threadsense.3+0xd3c>
    14fe:	00761b7f 1c020000 	.insn	12, 0x000ffd4b1c02000000761b7f
    1506:	000ffd4b 
    150a:	0300                	addi	s0,sp,384
    150c:	a891                	j	1560 <threadsense.3+0x155c>
    150e:	00691d7f 55071e02 	.insn	12, 0x0200000055071e0200691d7f
    1516:	02000000 
    151a:	6c91                	lui	s9,0x4
    151c:	9a15                	andi	a2,a2,-27
    151e:	0008                	.insn	2, 0x0008
    1520:	0080                	addi	s0,sp,64
    1522:	0000                	unimp
    1524:	3000                	fld	fs0,32(s0)
    1526:	0009                	c.nop	2
    1528:	0080                	addi	s0,sp,64
    152a:	0000                	unimp
    152c:	1d00                	addi	s0,sp,688
    152e:	3074                	fld	fa3,224(s0)
    1530:	0200                	addi	s0,sp,256
    1532:	0c22                	slli	s8,s8,0x8
    1534:	0fec                	addi	a1,sp,988
    1536:	0000                	unimp
    1538:	9102                	jalr	sp
    153a:	1d60                	addi	s0,sp,700
    153c:	3174                	fld	fa3,224(a0)
    153e:	0200                	addi	s0,sp,256
    1540:	1a22                	slli	s4,s4,0x28
    1542:	0fec                	addi	a1,sp,988
    1544:	0000                	unimp
    1546:	9102                	jalr	sp
    1548:	1d58                	addi	a4,sp,692
    154a:	3076                	fld	ft0,376(sp)
    154c:	0200                	addi	s0,sp,256
    154e:	0fec0c23          	sb	t5,248(s8)
    1552:	0000                	unimp
    1554:	9102                	jalr	sp
    1556:	1d50                	addi	a2,sp,692
    1558:	3176                	fld	ft2,376(sp)
    155a:	0200                	addi	s0,sp,256
    155c:	0fec1c23          	sh	t5,248(s8)
    1560:	0000                	unimp
    1562:	9102                	jalr	sp
    1564:	1d48                	addi	a0,sp,692
    1566:	7165                	addi	sp,sp,-400
    1568:	0031                	c.nop	12
    156a:	2402                	fld	fs0,0(sp)
    156c:	5509                	li	a0,-30
    156e:	0000                	unimp
    1570:	0200                	addi	s0,sp,256
    1572:	4491                	li	s1,4
    1574:	651d                	lui	a0,0x7
    1576:	3271                	addiw	tp,tp,-4 # fffffffffffffffc <__global_pointer$+0xffffffff7fffd7b4>
    1578:	0200                	addi	s0,sp,256
    157a:	1924                	addi	s1,sp,184
    157c:	0055                	c.nop	21
    157e:	0000                	unimp
    1580:	9102                	jalr	sp
    1582:	0040                	addi	s0,sp,4
    1584:	0900                	addi	s0,sp,144
    1586:	f808                	sd	a0,48(s0)
    1588:	0200000f          	fence	r,unknown
    158c:	0408                	addi	a0,sp,512
    158e:	00000197          	auipc	gp,0x0
    1592:	ec06                	sd	ra,24(sp)
    1594:	0500000f          	fence	ow,unknown
    1598:	00000ff3          	.insn	4, 0x0ff3
    159c:	0809                	addi	a6,a6,2
    159e:	00000ff3          	.insn	4, 0x0ff3
    15a2:	7622                	ld	a2,40(sp)
    15a4:	0000                	unimp
    15a6:	0200                	addi	s0,sp,256
    15a8:	0c0c                	addi	a1,sp,528
    15aa:	5501                	li	a0,-32
    15ac:	0000                	unimp
    15ae:	7000                	ld	s0,32(s0)
    15b0:	00800007          	.insn	4, 0x00800007
    15b4:	0000                	unimp
    15b6:	7e00                	ld	s0,56(a2)
    15b8:	0008                	.insn	2, 0x0008
    15ba:	0080                	addi	s0,sp,64
    15bc:	0000                	unimp
    15be:	bc00                	fsd	fs0,56(s0)
    15c0:	01000013          	li	zero,16
    15c4:	10ad                	addi	ra,ra,-21
    15c6:	0000                	unimp
    15c8:	6e1c                	ld	a5,24(a2)
    15ca:	0200                	addi	s0,sp,256
    15cc:	170c                	addi	a1,sp,928
    15ce:	0055                	c.nop	21
    15d0:	0000                	unimp
    15d2:	9102                	jalr	sp
    15d4:	1b4c                	addi	a1,sp,436
    15d6:	0092                	slli	ra,ra,0x4
    15d8:	0000                	unimp
    15da:	0c02                	c.slli64	s8
    15dc:	ad2e                	fsd	fa1,152(sp)
    15de:	0010                	.insn	2, 0x0010
    15e0:	0200                	addi	s0,sp,256
    15e2:	4091                	li	ra,4
    15e4:	0000761b          	.insn	4, 0x761b
    15e8:	0200                	addi	s0,sp,256
    15ea:	3f0c                	fld	fa1,56(a4)
    15ec:	000010b3          	sll	ra,zero,zero
    15f0:	7fb89103          	lh	sp,2043(a7) # 47fb <threadsense.3+0x47f7>
    15f4:	691d                	lui	s2,0x7
    15f6:	0200                	addi	s0,sp,256
    15f8:	070e                	slli	a4,a4,0x3
    15fa:	0055                	c.nop	21
    15fc:	0000                	unimp
    15fe:	9102                	jalr	sp
    1600:	156c                	addi	a1,sp,684
    1602:	078c                	addi	a1,sp,960
    1604:	8000                	.insn	2, 0x8000
    1606:	0000                	unimp
    1608:	0000                	unimp
    160a:	0810                	addi	a2,sp,16
    160c:	8000                	.insn	2, 0x8000
    160e:	0000                	unimp
    1610:	0000                	unimp
    1612:	741d                	lui	s0,0xfffe7
    1614:	0030                	addi	a2,sp,8
    1616:	1202                	slli	tp,tp,0x20
    1618:	5509                	li	a0,-30
    161a:	0000                	unimp
    161c:	0200                	addi	s0,sp,256
    161e:	6891                	lui	a7,0x4
    1620:	741d                	lui	s0,0xfffe7
    1622:	0031                	c.nop	12
    1624:	1202                	slli	tp,tp,0x20
    1626:	00005517          	auipc	a0,0x5
    162a:	0200                	addi	s0,sp,256
    162c:	6491                	lui	s1,0x4
    162e:	761d                	lui	a2,0xfffe7
    1630:	0030                	addi	a2,sp,8
    1632:	1302                	slli	t1,t1,0x20
    1634:	5509                	li	a0,-30
    1636:	0000                	unimp
    1638:	0200                	addi	s0,sp,256
    163a:	6091                	lui	ra,0x4
    163c:	761d                	lui	a2,0xfffe7
    163e:	0031                	c.nop	12
    1640:	1302                	slli	t1,t1,0x20
    1642:	5519                	li	a0,-26
    1644:	0000                	unimp
    1646:	0200                	addi	s0,sp,256
    1648:	5c91                	li	s9,-28
    164a:	0000                	unimp
    164c:	0809                	addi	a6,a6,2
    164e:	0061                	c.nop	24
    1650:	0000                	unimp
    1652:	0809                	addi	a6,a6,2
    1654:	0066                	c.slli	zero,0x19
    1656:	0000                	unimp
	...

Disassembly of section .debug_abbrev:

0000000000000000 <.debug_abbrev>:
   0:	1101                	addi	sp,sp,-32 # 21512b4 <threadsense.3+0x21512b0>
   2:	2501                	sext.w	a0,a0
   4:	130e                	slli	t1,t1,0x23
   6:	1b0e030b          	.insn	4, 0x1b0e030b
   a:	110e                	slli	sp,sp,0x23
   c:	1201                	addi	tp,tp,-32 # ffffffffffffffe0 <__global_pointer$+0xffffffff7fffd798>
   e:	1001                	c.nop	-32
  10:	0006                	c.slli	zero,0x1
  12:	0200                	addi	s0,sp,256
  14:	0024                	addi	s1,sp,8
  16:	0b3e0b0b          	.insn	4, 0x0b3e0b0b
  1a:	00000e03          	lb	t3,0(zero) # 0 <threadsense.2>
  1e:	03001603          	lh	a2,48(zero) # 30 <threadsense.3+0x2c>
  22:	3a0e                	fld	fs4,224(sp)
  24:	390b3b0b          	.insn	4, 0x390b3b0b
  28:	0013490b          	.insn	4, 0x0013490b
  2c:	0400                	addi	s0,sp,512
  2e:	0024                	addi	s1,sp,8
  30:	0b3e0b0b          	.insn	4, 0x0b3e0b0b
  34:	00000803          	lb	a6,0(zero) # 0 <threadsense.2>
  38:	3505                	addiw	a0,a0,-31 # 6607 <threadsense.3+0x6603>
  3a:	4900                	lw	s0,16(a0)
  3c:	06000013          	li	zero,96
  40:	0026                	c.slli	zero,0x9
  42:	1349                	addi	t1,t1,-14
  44:	0000                	unimp
  46:	0b000f07          	.insn	4, 0x0b000f07
  4a:	0013490b          	.insn	4, 0x0013490b
  4e:	0800                	addi	s0,sp,16
  50:	012e                	slli	sp,sp,0xb
  52:	0e030c3f 0b3b0b3a 	.insn	8, 0x0b3b0b3a0e030c3f
  5a:	0b39                	addi	s6,s6,14
  5c:	13490c27          	.insn	4, 0x13490c27
  60:	0c3c                	addi	a5,sp,536
  62:	1301                	addi	t1,t1,-32
  64:	0000                	unimp
  66:	0509                	addi	a0,a0,2
  68:	4900                	lw	s0,16(a0)
  6a:	0a000013          	li	zero,160
  6e:	0018                	.insn	2, 0x0018
  70:	0000                	unimp
  72:	3f012e0b          	.insn	4, 0x3f012e0b
  76:	030c                	addi	a1,sp,384
  78:	3a0e                	fld	fs4,224(sp)
  7a:	390b3b0b          	.insn	4, 0x390b3b0b
  7e:	3c0c270b          	.insn	4, 0x3c0c270b
  82:	010c                	addi	a1,sp,128
  84:	0c000013          	li	zero,192
  88:	012e                	slli	sp,sp,0xb
  8a:	0e030c3f 0b3b0b3a 	.insn	8, 0x0b3b0b3a0e030c3f
  92:	0b39                	addi	s6,s6,14
  94:	13490c27          	.insn	4, 0x13490c27
  98:	0111                	addi	sp,sp,4
  9a:	0112                	slli	sp,sp,0x4
  9c:	0640                	addi	s0,sp,772
  9e:	4296                	lw	t0,68(sp)
  a0:	010c                	addi	a1,sp,128
  a2:	0d000013          	li	zero,208
  a6:	0034                	addi	a3,sp,8
  a8:	0b3a0e03          	lb	t3,179(s4)
  ac:	0b390b3b          	.insn	4, 0x0b390b3b
  b0:	1349                	addi	t1,t1,-14
  b2:	0a02                	c.slli64	s4
  b4:	0000                	unimp
  b6:	340e                	fld	fs0,224(sp)
  b8:	0300                	addi	s0,sp,384
  ba:	3a08                	fld	fa0,48(a2)
  bc:	390b3b0b          	.insn	4, 0x390b3b0b
  c0:	0213490b          	.insn	4, 0x0213490b
  c4:	000a                	c.slli	zero,0x2
  c6:	0f00                	addi	s0,sp,912
  c8:	0111010b          	.insn	4, 0x0111010b
  cc:	0112                	slli	sp,sp,0x4
  ce:	0000                	unimp
  d0:	0110                	addi	a2,sp,128
  d2:	4901                	li	s2,0
  d4:	00130113          	addi	sp,t1,1
  d8:	1100                	addi	s0,sp,160
  da:	0021                	c.nop	8
  dc:	1349                	addi	t1,t1,-14
  de:	00000b2f          	.insn	4, 0x0b2f
  e2:	2e12                	fld	ft8,256(sp)
  e4:	3f01                	addiw	t5,t5,-32
  e6:	030c                	addi	a1,sp,384
  e8:	3a08                	fld	fa0,48(a2)
  ea:	390b3b0b          	.insn	4, 0x390b3b0b
  ee:	110c270b          	.insn	4, 0x110c270b
  f2:	1201                	addi	tp,tp,-32 # ffffffffffffffe0 <__global_pointer$+0xffffffff7fffd798>
  f4:	4001                	c.li	zero,0
  f6:	9606                	add	a2,a2,ra
  f8:	0c42                	slli	s8,s8,0x10
  fa:	1301                	addi	t1,t1,-32
  fc:	0000                	unimp
  fe:	03000513          	li	a0,48
 102:	3a08                	fld	fa0,48(a2)
 104:	390b3b0b          	.insn	4, 0x390b3b0b
 108:	0213490b          	.insn	4, 0x0213490b
 10c:	000a                	c.slli	zero,0x2
 10e:	1400                	addi	s0,sp,544
 110:	012e                	slli	sp,sp,0xb
 112:	0e030c3f 0b3b0b3a 	.insn	8, 0x0b3b0b3a0e030c3f
 11a:	0b39                	addi	s6,s6,14
 11c:	13490c27          	.insn	4, 0x13490c27
 120:	0111                	addi	sp,sp,4
 122:	0112                	slli	sp,sp,0x4
 124:	0640                	addi	s0,sp,772
 126:	010c4297          	auipc	t0,0x10c4
 12a:	15000013          	li	zero,336
 12e:	012e                	slli	sp,sp,0xb
 130:	0b3a0e03          	lb	t3,179(s4)
 134:	0b390b3b          	.insn	4, 0x0b390b3b
 138:	13490c27          	.insn	4, 0x13490c27
 13c:	0111                	addi	sp,sp,4
 13e:	0112                	slli	sp,sp,0x4
 140:	0640                	addi	s0,sp,772
 142:	010c4297          	auipc	t0,0x10c4
 146:	16000013          	li	zero,352
 14a:	012e                	slli	sp,sp,0xb
 14c:	0b3a0e03          	lb	t3,179(s4)
 150:	0b390b3b          	.insn	4, 0x0b390b3b
 154:	01110c27          	.insn	4, 0x01110c27
 158:	0112                	slli	sp,sp,0x4
 15a:	0640                	addi	s0,sp,772
 15c:	010c4297          	auipc	t0,0x10c4
 160:	17000013          	li	zero,368
 164:	0005                	c.nop	1
 166:	0b3a0e03          	lb	t3,179(s4)
 16a:	0b390b3b          	.insn	4, 0x0b390b3b
 16e:	1349                	addi	t1,t1,-14
 170:	0a02                	c.slli64	s4
 172:	0000                	unimp
 174:	3418                	fld	fa4,40(s0)
 176:	0300                	addi	s0,sp,384
 178:	3a0e                	fld	fs4,224(sp)
 17a:	390b3b0b          	.insn	4, 0x390b3b0b
 17e:	0013490b          	.insn	4, 0x0013490b
 182:	0000                	unimp
 184:	1101                	addi	sp,sp,-32
 186:	1000                	addi	s0,sp,32
 188:	1106                	slli	sp,sp,0x21
 18a:	1201                	addi	tp,tp,-32 # ffffffffffffffe0 <__global_pointer$+0xffffffff7fffd798>
 18c:	0301                	addi	t1,t1,0
 18e:	1b0e                	slli	s6,s6,0x23
 190:	250e                	fld	fa0,192(sp)
 192:	130e                	slli	t1,t1,0x23
 194:	0005                	c.nop	1
 196:	0000                	unimp
 198:	1101                	addi	sp,sp,-32
 19a:	2501                	sext.w	a0,a0
 19c:	130e                	slli	t1,t1,0x23
 19e:	1b0e030b          	.insn	4, 0x1b0e030b
 1a2:	110e                	slli	sp,sp,0x23
 1a4:	1201                	addi	tp,tp,-32 # ffffffffffffffe0 <__global_pointer$+0xffffffff7fffd798>
 1a6:	1001                	c.nop	-32
 1a8:	0006                	c.slli	zero,0x1
 1aa:	0200                	addi	s0,sp,256
 1ac:	0024                	addi	s1,sp,8
 1ae:	0b3e0b0b          	.insn	4, 0x0b3e0b0b
 1b2:	00000e03          	lb	t3,0(zero) # 0 <threadsense.2>
 1b6:	03001603          	lh	a2,48(zero) # 30 <threadsense.3+0x2c>
 1ba:	3a0e                	fld	fs4,224(sp)
 1bc:	390b3b0b          	.insn	4, 0x390b3b0b
 1c0:	0013490b          	.insn	4, 0x0013490b
 1c4:	0400                	addi	s0,sp,512
 1c6:	0024                	addi	s1,sp,8
 1c8:	0b3e0b0b          	.insn	4, 0x0b3e0b0b
 1cc:	00000803          	lb	a6,0(zero) # 0 <threadsense.2>
 1d0:	3505                	addiw	a0,a0,-31
 1d2:	4900                	lw	s0,16(a0)
 1d4:	06000013          	li	zero,96
 1d8:	0026                	c.slli	zero,0x9
 1da:	1349                	addi	t1,t1,-14
 1dc:	0000                	unimp
 1de:	0b000f07          	.insn	4, 0x0b000f07
 1e2:	0800000b          	.insn	4, 0x0800000b
 1e6:	0b0b000f          	.insn	4, 0x0b0b000f
 1ea:	00000e03          	lb	t3,0(zero) # 0 <threadsense.2>
 1ee:	0f09                	addi	t5,t5,2
 1f0:	0b00                	addi	s0,sp,400
 1f2:	0013490b          	.insn	4, 0x0013490b
 1f6:	0a00                	addi	s0,sp,272
 1f8:	0034                	addi	a3,sp,8
 1fa:	0b3a0e03          	lb	t3,179(s4)
 1fe:	0b390b3b          	.insn	4, 0x0b390b3b
 202:	1349                	addi	t1,t1,-14
 204:	0c3c0c3f 010b0000 	.insn	8, 0x010b00000c3c0c3f
 20c:	4901                	li	s2,0
 20e:	00130113          	addi	sp,t1,1
 212:	0c00                	addi	s0,sp,528
 214:	0021                	c.nop	8
 216:	1349                	addi	t1,t1,-14
 218:	00000b2f          	.insn	4, 0x0b2f
 21c:	340d                	addiw	s0,s0,-29 # fffffffffffe6fe3 <__global_pointer$+0xffffffff7ffe479b>
 21e:	0300                	addi	s0,sp,384
 220:	3a0e                	fld	fs4,224(sp)
 222:	390b3b0b          	.insn	4, 0x390b3b0b
 226:	0213490b          	.insn	4, 0x0213490b
 22a:	000a                	c.slli	zero,0x2
 22c:	0e00                	addi	s0,sp,784
 22e:	012e                	slli	sp,sp,0xb
 230:	0e030c3f 053b0b3a 	.insn	8, 0x053b0b3a0e030c3f
 238:	0b39                	addi	s6,s6,14
 23a:	13490c27          	.insn	4, 0x13490c27
 23e:	0111                	addi	sp,sp,4
 240:	0112                	slli	sp,sp,0x4
 242:	0640                	addi	s0,sp,772
 244:	010c4297          	auipc	t0,0x10c4
 248:	0f000013          	li	zero,240
 24c:	0005                	c.nop	1
 24e:	0b3a0803          	lb	a6,179(s4)
 252:	0b39053b          	.insn	4, 0x0b39053b
 256:	1349                	addi	t1,t1,-14
 258:	0a02                	c.slli64	s4
 25a:	0000                	unimp
 25c:	3410                	fld	fa2,40(s0)
 25e:	0300                	addi	s0,sp,384
 260:	3a08                	fld	fa0,48(a2)
 262:	39053b0b          	.insn	4, 0x39053b0b
 266:	0213490b          	.insn	4, 0x0213490b
 26a:	000a                	c.slli	zero,0x2
 26c:	1100                	addi	s0,sp,160
 26e:	0034                	addi	a3,sp,8
 270:	0b3a0e03          	lb	t3,179(s4)
 274:	0b39053b          	.insn	4, 0x0b39053b
 278:	1349                	addi	t1,t1,-14
 27a:	0a02                	c.slli64	s4
 27c:	0000                	unimp
 27e:	2e12                	fld	ft8,256(sp)
 280:	3f01                	addiw	t5,t5,-32
 282:	030c                	addi	a1,sp,384
 284:	3a0e                	fld	fs4,224(sp)
 286:	390b3b0b          	.insn	4, 0x390b3b0b
 28a:	490c270b          	.insn	4, 0x490c270b
 28e:	12011113          	.insn	4, 0x12011113
 292:	4001                	c.li	zero,0
 294:	9706                	add	a4,a4,ra
 296:	0c42                	slli	s8,s8,0x10
 298:	1301                	addi	t1,t1,-32
 29a:	0000                	unimp
 29c:	03000513          	li	a0,48
 2a0:	3a0e                	fld	fs4,224(sp)
 2a2:	39053b0b          	.insn	4, 0x39053b0b
 2a6:	0213490b          	.insn	4, 0x0213490b
 2aa:	000a                	c.slli	zero,0x2
 2ac:	1400                	addi	s0,sp,544
 2ae:	0111010b          	.insn	4, 0x0111010b
 2b2:	0112                	slli	sp,sp,0x4
 2b4:	1301                	addi	t1,t1,-32
 2b6:	0000                	unimp
 2b8:	0b15                	addi	s6,s6,5
 2ba:	1101                	addi	sp,sp,-32
 2bc:	1201                	addi	tp,tp,-32 # ffffffffffffffe0 <__global_pointer$+0xffffffff7fffd798>
 2be:	0001                	nop
 2c0:	1600                	addi	s0,sp,800
 2c2:	0026                	c.slli	zero,0x9
 2c4:	0000                	unimp
 2c6:	3f012e17          	auipc	t3,0x3f012
 2ca:	030c                	addi	a1,sp,384
 2cc:	3a0e                	fld	fs4,224(sp)
 2ce:	390b3b0b          	.insn	4, 0x390b3b0b
 2d2:	490c270b          	.insn	4, 0x490c270b
 2d6:	12011113          	.insn	4, 0x12011113
 2da:	4001                	c.li	zero,0
 2dc:	9606                	add	a2,a2,ra
 2de:	0c42                	slli	s8,s8,0x10
 2e0:	1301                	addi	t1,t1,-32
 2e2:	0000                	unimp
 2e4:	1818                	addi	a4,sp,48
 2e6:	0000                	unimp
 2e8:	1900                	addi	s0,sp,176
 2ea:	012e                	slli	sp,sp,0xb
 2ec:	0b3a0e03          	lb	t3,179(s4)
 2f0:	0b39053b          	.insn	4, 0x0b39053b
 2f4:	01110c27          	.insn	4, 0x01110c27
 2f8:	0112                	slli	sp,sp,0x4
 2fa:	0640                	addi	s0,sp,772
 2fc:	0a48                	addi	a0,sp,276
 2fe:	000c4297          	auipc	t0,0xc4
 302:	1a00                	addi	s0,sp,304
 304:	012e                	slli	sp,sp,0xb
 306:	0b3a0e03          	lb	t3,179(s4)
 30a:	0b390b3b          	.insn	4, 0x0b390b3b
 30e:	01110c27          	.insn	4, 0x01110c27
 312:	0112                	slli	sp,sp,0x4
 314:	0640                	addi	s0,sp,772
 316:	4296                	lw	t0,68(sp)
 318:	010c                	addi	a1,sp,128
 31a:	1b000013          	li	zero,432
 31e:	0005                	c.nop	1
 320:	0b3a0e03          	lb	t3,179(s4)
 324:	0b390b3b          	.insn	4, 0x0b390b3b
 328:	1349                	addi	t1,t1,-14
 32a:	0a02                	c.slli64	s4
 32c:	0000                	unimp
 32e:	051c                	addi	a5,sp,640
 330:	0300                	addi	s0,sp,384
 332:	3a08                	fld	fa0,48(a2)
 334:	390b3b0b          	.insn	4, 0x390b3b0b
 338:	0213490b          	.insn	4, 0x0213490b
 33c:	000a                	c.slli	zero,0x2
 33e:	1d00                	addi	s0,sp,688
 340:	0034                	addi	a3,sp,8
 342:	0b3a0803          	lb	a6,179(s4)
 346:	0b390b3b          	.insn	4, 0x0b390b3b
 34a:	1349                	addi	t1,t1,-14
 34c:	0a02                	c.slli64	s4
 34e:	0000                	unimp
 350:	341e                	fld	fs0,480(sp)
 352:	0300                	addi	s0,sp,384
 354:	3a08                	fld	fa0,48(a2)
 356:	39053b0b          	.insn	4, 0x39053b0b
 35a:	0013490b          	.insn	4, 0x0013490b
 35e:	1f00                	addi	s0,sp,944
 360:	000a                	c.slli	zero,0x2
 362:	0b3a0e03          	lb	t3,179(s4)
 366:	0b39053b          	.insn	4, 0x0b39053b
 36a:	0111                	addi	sp,sp,4
 36c:	0000                	unimp
 36e:	1520                	addi	s0,sp,680
 370:	2701                	sext.w	a4,a4
 372:	010c                	addi	a1,sp,128
 374:	21000013          	li	zero,528
 378:	0005                	c.nop	1
 37a:	1349                	addi	t1,t1,-14
 37c:	0000                	unimp
 37e:	2e22                	fld	ft8,8(sp)
 380:	0301                	addi	t1,t1,0
 382:	3a0e                	fld	fs4,224(sp)
 384:	390b3b0b          	.insn	4, 0x390b3b0b
 388:	490c270b          	.insn	4, 0x490c270b
 38c:	12011113          	.insn	4, 0x12011113
 390:	4001                	c.li	zero,0
 392:	9706                	add	a4,a4,ra
 394:	0c42                	slli	s8,s8,0x10
 396:	1301                	addi	t1,t1,-32
 398:	0000                	unimp
 39a:	3f012e23          	sw	a6,1020(sp)
 39e:	030c                	addi	a1,sp,384
 3a0:	3a0e                	fld	fs4,224(sp)
 3a2:	390b3b0b          	.insn	4, 0x390b3b0b
 3a6:	110c270b          	.insn	4, 0x110c270b
 3aa:	1201                	addi	tp,tp,-32 # ffffffffffffffe0 <__global_pointer$+0xffffffff7fffd798>
 3ac:	4001                	c.li	zero,0
 3ae:	9606                	add	a2,a2,ra
 3b0:	0c42                	slli	s8,s8,0x10
 3b2:	1301                	addi	t1,t1,-32
 3b4:	0000                	unimp
 3b6:	3424                	fld	fs1,104(s0)
 3b8:	0300                	addi	s0,sp,384
 3ba:	3a08                	fld	fa0,48(a2)
 3bc:	390b3b0b          	.insn	4, 0x390b3b0b
 3c0:	8813490b          	.insn	4, 0x8813490b
 3c4:	0b01                	addi	s6,s6,0
 3c6:	0a02                	c.slli64	s4
 3c8:	0000                	unimp
 3ca:	2e25                	addiw	t3,t3,9 # 3f0122cf <threadsense.3+0x3f0122cb>
 3cc:	0301                	addi	t1,t1,0
 3ce:	3a0e                	fld	fs4,224(sp)
 3d0:	390b3b0b          	.insn	4, 0x390b3b0b
 3d4:	1201110b          	.insn	4, 0x1201110b
 3d8:	4001                	c.li	zero,0
 3da:	9606                	add	a2,a2,ra
 3dc:	0c42                	slli	s8,s8,0x10
 3de:	1301                	addi	t1,t1,-32
 3e0:	0000                	unimp
 3e2:	2e26                	fld	ft8,72(sp)
 3e4:	3f01                	addiw	t5,t5,-32
 3e6:	030c                	addi	a1,sp,384
 3e8:	3a0e                	fld	fs4,224(sp)
 3ea:	390b3b0b          	.insn	4, 0x390b3b0b
 3ee:	110c270b          	.insn	4, 0x110c270b
 3f2:	1201                	addi	tp,tp,-32 # ffffffffffffffe0 <__global_pointer$+0xffffffff7fffd798>
 3f4:	4001                	c.li	zero,0
 3f6:	9706                	add	a4,a4,ra
 3f8:	0c42                	slli	s8,s8,0x10
 3fa:	1301                	addi	t1,t1,-32
 3fc:	0000                	unimp
 3fe:	3f002e27          	fsw	fa6,1020(zero) # 3fc <threadsense.3+0x3f8>
 402:	030c                	addi	a1,sp,384
 404:	3a0e                	fld	fs4,224(sp)
 406:	390b3b0b          	.insn	4, 0x390b3b0b
 40a:	1201110b          	.insn	4, 0x1201110b
 40e:	4001                	c.li	zero,0
 410:	9606                	add	a2,a2,ra
 412:	0c42                	slli	s8,s8,0x10
 414:	0000                	unimp
 416:	2e28                	fld	fa0,88(a2)
 418:	3f01                	addiw	t5,t5,-32
 41a:	030c                	addi	a1,sp,384
 41c:	3a0e                	fld	fs4,224(sp)
 41e:	390b3b0b          	.insn	4, 0x390b3b0b
 422:	870c270b          	.insn	4, 0x870c270b
 426:	0c01                	addi	s8,s8,0
 428:	0111                	addi	sp,sp,4
 42a:	0112                	slli	sp,sp,0x4
 42c:	0640                	addi	s0,sp,772
 42e:	4296                	lw	t0,68(sp)
 430:	010c                	addi	a1,sp,128
 432:	29000013          	li	zero,656
 436:	012e                	slli	sp,sp,0xb
 438:	0e030c3f 0b3b0b3a 	.insn	8, 0x0b3b0b3a0e030c3f
 440:	0b39                	addi	s6,s6,14
 442:	01870c27          	.insn	4, 0x01870c27
 446:	110c                	addi	a1,sp,160
 448:	1201                	addi	tp,tp,-32 # ffffffffffffffe0 <__global_pointer$+0xffffffff7fffd798>
 44a:	4001                	c.li	zero,0
 44c:	9706                	add	a4,a4,ra
 44e:	0c42                	slli	s8,s8,0x10
 450:	1301                	addi	t1,t1,-32
 452:	0000                	unimp
 454:	342a                	fld	fs0,168(sp)
 456:	0300                	addi	s0,sp,384
 458:	3a0e                	fld	fs4,224(sp)
 45a:	390b3b0b          	.insn	4, 0x390b3b0b
 45e:	8813490b          	.insn	4, 0x8813490b
 462:	0b01                	addi	s6,s6,0
 464:	0a02                	c.slli64	s4
 466:	0000                	unimp
 468:	03012e2b          	.insn	4, 0x03012e2b
 46c:	3a0e                	fld	fs4,224(sp)
 46e:	390b3b0b          	.insn	4, 0x390b3b0b
 472:	110c270b          	.insn	4, 0x110c270b
 476:	1201                	addi	tp,tp,-32 # ffffffffffffffe0 <__global_pointer$+0xffffffff7fffd798>
 478:	4001                	c.li	zero,0
 47a:	9706                	add	a4,a4,ra
 47c:	0c42                	slli	s8,s8,0x10
 47e:	1301                	addi	t1,t1,-32
 480:	0000                	unimp
 482:	342c                	fld	fa1,104(s0)
 484:	0300                	addi	s0,sp,384
 486:	3a0e                	fld	fs4,224(sp)
 488:	390b3b0b          	.insn	4, 0x390b3b0b
 48c:	0013490b          	.insn	4, 0x0013490b
	...

Disassembly of section .debug_loc:

0000000000000000 <.debug_loc>:
       0:	0482                	c.slli64	s1
       2:	0000                	unimp
       4:	0000                	unimp
       6:	0000                	unimp
       8:	0484                	addi	s1,sp,576
       a:	0000                	unimp
       c:	0000                	unimp
       e:	0000                	unimp
      10:	0002                	c.slli64	zero
      12:	0072                	c.slli	zero,0x1c
      14:	0484                	addi	s1,sp,576
      16:	0000                	unimp
      18:	0000                	unimp
      1a:	0000                	unimp
      1c:	048a                	slli	s1,s1,0x2
      1e:	0000                	unimp
      20:	0000                	unimp
      22:	0000                	unimp
      24:	90720003          	lb	zero,-1785(tp) # fffffffffffff907 <__global_pointer$+0xffffffff7fffd0bf>
      28:	8a02                	jr	s4
      2a:	0004                	.insn	2, 0x0004
      2c:	0000                	unimp
      2e:	0000                	unimp
      30:	aa00                	fsd	fs0,16(a2)
      32:	0005                	c.nop	1
      34:	0000                	unimp
      36:	0000                	unimp
      38:	0200                	addi	s0,sp,256
      3a:	7800                	ld	s0,48(s0)
      3c:	aa00                	fsd	fs0,16(a2)
      3e:	0005                	c.nop	1
      40:	0000                	unimp
      42:	0000                	unimp
      44:	ac00                	fsd	fs0,24(s0)
      46:	0005                	c.nop	1
      48:	0000                	unimp
      4a:	0000                	unimp
      4c:	0300                	addi	s0,sp,384
      4e:	7200                	ld	s0,32(a2)
      50:	0290                	addi	a2,sp,320
      52:	05ac                	addi	a1,sp,712
      54:	0000                	unimp
      56:	0000                	unimp
      58:	0000                	unimp
      5a:	05ae                	slli	a1,a1,0xb
      5c:	0000                	unimp
      5e:	0000                	unimp
      60:	0000                	unimp
      62:	0002                	c.slli64	zero
      64:	0072                	c.slli	zero,0x1c
	...
      76:	0386                	slli	t2,t2,0x1
      78:	0000                	unimp
      7a:	0000                	unimp
      7c:	0000                	unimp
      7e:	0388                	addi	a0,sp,448
      80:	0000                	unimp
      82:	0000                	unimp
      84:	0000                	unimp
      86:	0002                	c.slli64	zero
      88:	0072                	c.slli	zero,0x1c
      8a:	0388                	addi	a0,sp,448
      8c:	0000                	unimp
      8e:	0000                	unimp
      90:	0000                	unimp
      92:	0392                	slli	t2,t2,0x4
      94:	0000                	unimp
      96:	0000                	unimp
      98:	0000                	unimp
      9a:	d0720003          	lb	zero,-761(tp) # fffffffffffffd07 <__global_pointer$+0xffffffff7fffd4bf>
      9e:	9200                	.insn	2, 0x9200
      a0:	00000003          	lb	zero,0(zero) # 0 <threadsense.2>
      a4:	0000                	unimp
      a6:	7a00                	ld	s0,48(a2)
      a8:	0004                	.insn	2, 0x0004
      aa:	0000                	unimp
      ac:	0000                	unimp
      ae:	0200                	addi	s0,sp,256
      b0:	7800                	ld	s0,48(s0)
      b2:	7a00                	ld	s0,48(a2)
      b4:	0004                	.insn	2, 0x0004
      b6:	0000                	unimp
      b8:	0000                	unimp
      ba:	8000                	.insn	2, 0x8000
      bc:	0004                	.insn	2, 0x0004
      be:	0000                	unimp
      c0:	0000                	unimp
      c2:	0300                	addi	s0,sp,384
      c4:	7200                	ld	s0,32(a2)
      c6:	00d0                	addi	a2,sp,68
      c8:	0480                	addi	s0,sp,576
      ca:	0000                	unimp
      cc:	0000                	unimp
      ce:	0000                	unimp
      d0:	0482                	c.slli64	s1
      d2:	0000                	unimp
      d4:	0000                	unimp
      d6:	0000                	unimp
      d8:	0002                	c.slli64	zero
      da:	0072                	c.slli	zero,0x1c
	...
      ec:	0348                	addi	a0,sp,388
      ee:	0000                	unimp
      f0:	0000                	unimp
      f2:	0000                	unimp
      f4:	034a                	slli	t1,t1,0x12
      f6:	0000                	unimp
      f8:	0000                	unimp
      fa:	0000                	unimp
      fc:	0002                	c.slli64	zero
      fe:	0072                	c.slli	zero,0x1c
     100:	034a                	slli	t1,t1,0x12
     102:	0000                	unimp
     104:	0000                	unimp
     106:	0000                	unimp
     108:	0350                	addi	a2,sp,388
     10a:	0000                	unimp
     10c:	0000                	unimp
     10e:	0000                	unimp
     110:	0002                	c.slli64	zero
     112:	3072                	fld	ft0,312(sp)
     114:	0350                	addi	a2,sp,388
     116:	0000                	unimp
     118:	0000                	unimp
     11a:	0000                	unimp
     11c:	0382                	c.slli64	t2
     11e:	0000                	unimp
     120:	0000                	unimp
     122:	0000                	unimp
     124:	0002                	c.slli64	zero
     126:	0078                	addi	a4,sp,12
     128:	0382                	c.slli64	t2
     12a:	0000                	unimp
     12c:	0000                	unimp
     12e:	0000                	unimp
     130:	0384                	addi	s1,sp,448
     132:	0000                	unimp
     134:	0000                	unimp
     136:	0000                	unimp
     138:	0002                	c.slli64	zero
     13a:	3072                	fld	ft0,312(sp)
     13c:	0384                	addi	s1,sp,448
     13e:	0000                	unimp
     140:	0000                	unimp
     142:	0000                	unimp
     144:	0386                	slli	t2,t2,0x1
     146:	0000                	unimp
     148:	0000                	unimp
     14a:	0000                	unimp
     14c:	0002                	c.slli64	zero
     14e:	0072                	c.slli	zero,0x1c
	...
     160:	031a                	slli	t1,t1,0x6
     162:	0000                	unimp
     164:	0000                	unimp
     166:	0000                	unimp
     168:	031c                	addi	a5,sp,384
     16a:	0000                	unimp
     16c:	0000                	unimp
     16e:	0000                	unimp
     170:	0002                	c.slli64	zero
     172:	0072                	c.slli	zero,0x1c
     174:	031c                	addi	a5,sp,384
     176:	0000                	unimp
     178:	0000                	unimp
     17a:	0000                	unimp
     17c:	0322                	slli	t1,t1,0x8
     17e:	0000                	unimp
     180:	0000                	unimp
     182:	0000                	unimp
     184:	0002                	c.slli64	zero
     186:	2072                	fld	ft0,280(sp)
     188:	0322                	slli	t1,t1,0x8
     18a:	0000                	unimp
     18c:	0000                	unimp
     18e:	0000                	unimp
     190:	0344                	addi	s1,sp,388
     192:	0000                	unimp
     194:	0000                	unimp
     196:	0000                	unimp
     198:	0002                	c.slli64	zero
     19a:	0078                	addi	a4,sp,12
     19c:	0344                	addi	s1,sp,388
     19e:	0000                	unimp
     1a0:	0000                	unimp
     1a2:	0000                	unimp
     1a4:	0346                	slli	t1,t1,0x11
     1a6:	0000                	unimp
     1a8:	0000                	unimp
     1aa:	0000                	unimp
     1ac:	0002                	c.slli64	zero
     1ae:	2072                	fld	ft0,280(sp)
     1b0:	0346                	slli	t1,t1,0x11
     1b2:	0000                	unimp
     1b4:	0000                	unimp
     1b6:	0000                	unimp
     1b8:	0348                	addi	a0,sp,388
     1ba:	0000                	unimp
     1bc:	0000                	unimp
     1be:	0000                	unimp
     1c0:	0002                	c.slli64	zero
     1c2:	0072                	c.slli	zero,0x1c
	...
     1d4:	02ee                	slli	t0,t0,0x1b
     1d6:	0000                	unimp
     1d8:	0000                	unimp
     1da:	0000                	unimp
     1dc:	02f0                	addi	a2,sp,332
     1de:	0000                	unimp
     1e0:	0000                	unimp
     1e2:	0000                	unimp
     1e4:	0002                	c.slli64	zero
     1e6:	0072                	c.slli	zero,0x1c
     1e8:	02f0                	addi	a2,sp,332
     1ea:	0000                	unimp
     1ec:	0000                	unimp
     1ee:	0000                	unimp
     1f0:	02f6                	slli	t0,t0,0x1d
     1f2:	0000                	unimp
     1f4:	0000                	unimp
     1f6:	0000                	unimp
     1f8:	0002                	c.slli64	zero
     1fa:	2072                	fld	ft0,280(sp)
     1fc:	02f6                	slli	t0,t0,0x1d
     1fe:	0000                	unimp
     200:	0000                	unimp
     202:	0000                	unimp
     204:	0316                	slli	t1,t1,0x5
     206:	0000                	unimp
     208:	0000                	unimp
     20a:	0000                	unimp
     20c:	0002                	c.slli64	zero
     20e:	0078                	addi	a4,sp,12
     210:	0316                	slli	t1,t1,0x5
     212:	0000                	unimp
     214:	0000                	unimp
     216:	0000                	unimp
     218:	0318                	addi	a4,sp,384
     21a:	0000                	unimp
     21c:	0000                	unimp
     21e:	0000                	unimp
     220:	0002                	c.slli64	zero
     222:	2072                	fld	ft0,280(sp)
     224:	0318                	addi	a4,sp,384
     226:	0000                	unimp
     228:	0000                	unimp
     22a:	0000                	unimp
     22c:	031a                	slli	t1,t1,0x6
     22e:	0000                	unimp
     230:	0000                	unimp
     232:	0000                	unimp
     234:	0002                	c.slli64	zero
     236:	0072                	c.slli	zero,0x1c
	...
     248:	02b4                	addi	a3,sp,328
     24a:	0000                	unimp
     24c:	0000                	unimp
     24e:	0000                	unimp
     250:	02b6                	slli	t0,t0,0xd
     252:	0000                	unimp
     254:	0000                	unimp
     256:	0000                	unimp
     258:	0002                	c.slli64	zero
     25a:	0072                	c.slli	zero,0x1c
     25c:	02b6                	slli	t0,t0,0xd
     25e:	0000                	unimp
     260:	0000                	unimp
     262:	0000                	unimp
     264:	02bc                	addi	a5,sp,328
     266:	0000                	unimp
     268:	0000                	unimp
     26a:	0000                	unimp
     26c:	0002                	c.slli64	zero
     26e:	3072                	fld	ft0,312(sp)
     270:	02bc                	addi	a5,sp,328
     272:	0000                	unimp
     274:	0000                	unimp
     276:	0000                	unimp
     278:	02ea                	slli	t0,t0,0x1a
     27a:	0000                	unimp
     27c:	0000                	unimp
     27e:	0000                	unimp
     280:	0002                	c.slli64	zero
     282:	0078                	addi	a4,sp,12
     284:	02ea                	slli	t0,t0,0x1a
     286:	0000                	unimp
     288:	0000                	unimp
     28a:	0000                	unimp
     28c:	02ec                	addi	a1,sp,332
     28e:	0000                	unimp
     290:	0000                	unimp
     292:	0000                	unimp
     294:	0002                	c.slli64	zero
     296:	3072                	fld	ft0,312(sp)
     298:	02ec                	addi	a1,sp,332
     29a:	0000                	unimp
     29c:	0000                	unimp
     29e:	0000                	unimp
     2a0:	02ee                	slli	t0,t0,0x1b
     2a2:	0000                	unimp
     2a4:	0000                	unimp
     2a6:	0000                	unimp
     2a8:	0002                	c.slli64	zero
     2aa:	0072                	c.slli	zero,0x1c
	...
     2bc:	022c                	addi	a1,sp,264
     2be:	0000                	unimp
     2c0:	0000                	unimp
     2c2:	0000                	unimp
     2c4:	022e                	slli	tp,tp,0xb
     2c6:	0000                	unimp
     2c8:	0000                	unimp
     2ca:	0000                	unimp
     2cc:	0002                	c.slli64	zero
     2ce:	0072                	c.slli	zero,0x1c
     2d0:	022e                	slli	tp,tp,0xb
     2d2:	0000                	unimp
     2d4:	0000                	unimp
     2d6:	0000                	unimp
     2d8:	0234                	addi	a3,sp,264
     2da:	0000                	unimp
     2dc:	0000                	unimp
     2de:	0000                	unimp
     2e0:	0002                	c.slli64	zero
     2e2:	2072                	fld	ft0,280(sp)
     2e4:	0234                	addi	a3,sp,264
     2e6:	0000                	unimp
     2e8:	0000                	unimp
     2ea:	0000                	unimp
     2ec:	02b0                	addi	a2,sp,328
     2ee:	0000                	unimp
     2f0:	0000                	unimp
     2f2:	0000                	unimp
     2f4:	0002                	c.slli64	zero
     2f6:	0078                	addi	a4,sp,12
     2f8:	02b0                	addi	a2,sp,328
     2fa:	0000                	unimp
     2fc:	0000                	unimp
     2fe:	0000                	unimp
     300:	02b2                	slli	t0,t0,0xc
     302:	0000                	unimp
     304:	0000                	unimp
     306:	0000                	unimp
     308:	0002                	c.slli64	zero
     30a:	2072                	fld	ft0,280(sp)
     30c:	02b2                	slli	t0,t0,0xc
     30e:	0000                	unimp
     310:	0000                	unimp
     312:	0000                	unimp
     314:	02b4                	addi	a3,sp,328
     316:	0000                	unimp
     318:	0000                	unimp
     31a:	0000                	unimp
     31c:	0002                	c.slli64	zero
     31e:	0072                	c.slli	zero,0x1c
	...
     330:	010e                	slli	sp,sp,0x3
     332:	0000                	unimp
     334:	0000                	unimp
     336:	0000                	unimp
     338:	0110                	addi	a2,sp,128
     33a:	0000                	unimp
     33c:	0000                	unimp
     33e:	0000                	unimp
     340:	0002                	c.slli64	zero
     342:	0072                	c.slli	zero,0x1c
     344:	0110                	addi	a2,sp,128
     346:	0000                	unimp
     348:	0000                	unimp
     34a:	0000                	unimp
     34c:	0116                	slli	sp,sp,0x5
     34e:	0000                	unimp
     350:	0000                	unimp
     352:	0000                	unimp
     354:	e0720003          	lb	zero,-505(tp) # fffffffffffffe07 <__global_pointer$+0xffffffff7fffd5bf>
     358:	1600                	addi	s0,sp,800
     35a:	0001                	nop
     35c:	0000                	unimp
     35e:	0000                	unimp
     360:	2800                	fld	fs0,16(s0)
     362:	0002                	c.slli64	zero
     364:	0000                	unimp
     366:	0000                	unimp
     368:	0200                	addi	s0,sp,256
     36a:	7800                	ld	s0,48(s0)
     36c:	2800                	fld	fs0,16(s0)
     36e:	0002                	c.slli64	zero
     370:	0000                	unimp
     372:	0000                	unimp
     374:	2a00                	fld	fs0,16(a2)
     376:	0002                	c.slli64	zero
     378:	0000                	unimp
     37a:	0000                	unimp
     37c:	0300                	addi	s0,sp,384
     37e:	7200                	ld	s0,32(a2)
     380:	00e0                	addi	s0,sp,76
     382:	022a                	slli	tp,tp,0xa
     384:	0000                	unimp
     386:	0000                	unimp
     388:	0000                	unimp
     38a:	022c                	addi	a1,sp,264
     38c:	0000                	unimp
     38e:	0000                	unimp
     390:	0000                	unimp
     392:	0002                	c.slli64	zero
     394:	0072                	c.slli	zero,0x1c
	...
     3ae:	0002                	c.slli64	zero
     3b0:	0000                	unimp
     3b2:	0000                	unimp
     3b4:	0000                	unimp
     3b6:	0002                	c.slli64	zero
     3b8:	0072                	c.slli	zero,0x1c
     3ba:	0002                	c.slli64	zero
     3bc:	0000                	unimp
     3be:	0000                	unimp
     3c0:	0000                	unimp
     3c2:	0008                	.insn	2, 0x0008
     3c4:	0000                	unimp
     3c6:	0000                	unimp
     3c8:	0000                	unimp
     3ca:	d0720003          	lb	zero,-761(tp) # fffffffffffffd07 <__global_pointer$+0xffffffff7fffd4bf>
     3ce:	0800                	addi	s0,sp,16
     3d0:	0000                	unimp
     3d2:	0000                	unimp
     3d4:	0000                	unimp
     3d6:	0a00                	addi	s0,sp,272
     3d8:	0001                	nop
     3da:	0000                	unimp
     3dc:	0000                	unimp
     3de:	0200                	addi	s0,sp,256
     3e0:	7800                	ld	s0,48(s0)
     3e2:	0a00                	addi	s0,sp,272
     3e4:	0001                	nop
     3e6:	0000                	unimp
     3e8:	0000                	unimp
     3ea:	0c00                	addi	s0,sp,528
     3ec:	0001                	nop
     3ee:	0000                	unimp
     3f0:	0000                	unimp
     3f2:	0300                	addi	s0,sp,384
     3f4:	7200                	ld	s0,32(a2)
     3f6:	00d0                	addi	a2,sp,68
     3f8:	010c                	addi	a1,sp,128
     3fa:	0000                	unimp
     3fc:	0000                	unimp
     3fe:	0000                	unimp
     400:	010e                	slli	sp,sp,0x3
     402:	0000                	unimp
     404:	0000                	unimp
     406:	0000                	unimp
     408:	0002                	c.slli64	zero
     40a:	0072                	c.slli	zero,0x1c
	...
     41c:	11ee                	slli	gp,gp,0x3b
     41e:	0000                	unimp
     420:	0000                	unimp
     422:	0000                	unimp
     424:	11f0                	addi	a2,sp,236
     426:	0000                	unimp
     428:	0000                	unimp
     42a:	0000                	unimp
     42c:	0002                	c.slli64	zero
     42e:	0072                	c.slli	zero,0x1c
     430:	11f0                	addi	a2,sp,236
     432:	0000                	unimp
     434:	0000                	unimp
     436:	0000                	unimp
     438:	11f6                	slli	gp,gp,0x3d
     43a:	0000                	unimp
     43c:	0000                	unimp
     43e:	0000                	unimp
     440:	0002                	c.slli64	zero
     442:	3072                	fld	ft0,312(sp)
     444:	11f6                	slli	gp,gp,0x3d
     446:	0000                	unimp
     448:	0000                	unimp
     44a:	0000                	unimp
     44c:	12ca                	slli	t0,t0,0x32
     44e:	0000                	unimp
     450:	0000                	unimp
     452:	0000                	unimp
     454:	0002                	c.slli64	zero
     456:	0078                	addi	a4,sp,12
     458:	12ca                	slli	t0,t0,0x32
     45a:	0000                	unimp
     45c:	0000                	unimp
     45e:	0000                	unimp
     460:	12cc                	addi	a1,sp,356
     462:	0000                	unimp
     464:	0000                	unimp
     466:	0000                	unimp
     468:	0002                	c.slli64	zero
     46a:	3072                	fld	ft0,312(sp)
     46c:	12cc                	addi	a1,sp,356
     46e:	0000                	unimp
     470:	0000                	unimp
     472:	0000                	unimp
     474:	12ce                	slli	t0,t0,0x33
     476:	0000                	unimp
     478:	0000                	unimp
     47a:	0000                	unimp
     47c:	0002                	c.slli64	zero
     47e:	0072                	c.slli	zero,0x1c
	...
     490:	11a0                	addi	s0,sp,232
     492:	0000                	unimp
     494:	0000                	unimp
     496:	0000                	unimp
     498:	11a2                	slli	gp,gp,0x28
     49a:	0000                	unimp
     49c:	0000                	unimp
     49e:	0000                	unimp
     4a0:	0002                	c.slli64	zero
     4a2:	0072                	c.slli	zero,0x1c
     4a4:	11a2                	slli	gp,gp,0x28
     4a6:	0000                	unimp
     4a8:	0000                	unimp
     4aa:	0000                	unimp
     4ac:	11a8                	addi	a0,sp,232
     4ae:	0000                	unimp
     4b0:	0000                	unimp
     4b2:	0000                	unimp
     4b4:	0002                	c.slli64	zero
     4b6:	3072                	fld	ft0,312(sp)
     4b8:	11a8                	addi	a0,sp,232
     4ba:	0000                	unimp
     4bc:	0000                	unimp
     4be:	0000                	unimp
     4c0:	11ea                	slli	gp,gp,0x3a
     4c2:	0000                	unimp
     4c4:	0000                	unimp
     4c6:	0000                	unimp
     4c8:	0002                	c.slli64	zero
     4ca:	0078                	addi	a4,sp,12
     4cc:	11ea                	slli	gp,gp,0x3a
     4ce:	0000                	unimp
     4d0:	0000                	unimp
     4d2:	0000                	unimp
     4d4:	11ec                	addi	a1,sp,236
     4d6:	0000                	unimp
     4d8:	0000                	unimp
     4da:	0000                	unimp
     4dc:	0002                	c.slli64	zero
     4de:	3072                	fld	ft0,312(sp)
     4e0:	11ec                	addi	a1,sp,236
     4e2:	0000                	unimp
     4e4:	0000                	unimp
     4e6:	0000                	unimp
     4e8:	11ee                	slli	gp,gp,0x3b
     4ea:	0000                	unimp
     4ec:	0000                	unimp
     4ee:	0000                	unimp
     4f0:	0002                	c.slli64	zero
     4f2:	0072                	c.slli	zero,0x1c
	...
     504:	112a                	slli	sp,sp,0x2a
     506:	0000                	unimp
     508:	0000                	unimp
     50a:	0000                	unimp
     50c:	112c                	addi	a1,sp,168
     50e:	0000                	unimp
     510:	0000                	unimp
     512:	0000                	unimp
     514:	0002                	c.slli64	zero
     516:	0072                	c.slli	zero,0x1c
     518:	112c                	addi	a1,sp,168
     51a:	0000                	unimp
     51c:	0000                	unimp
     51e:	0000                	unimp
     520:	1132                	slli	sp,sp,0x2c
     522:	0000                	unimp
     524:	0000                	unimp
     526:	0000                	unimp
     528:	0002                	c.slli64	zero
     52a:	3072                	fld	ft0,312(sp)
     52c:	1132                	slli	sp,sp,0x2c
     52e:	0000                	unimp
     530:	0000                	unimp
     532:	0000                	unimp
     534:	119c                	addi	a5,sp,224
     536:	0000                	unimp
     538:	0000                	unimp
     53a:	0000                	unimp
     53c:	0002                	c.slli64	zero
     53e:	0078                	addi	a4,sp,12
     540:	119c                	addi	a5,sp,224
     542:	0000                	unimp
     544:	0000                	unimp
     546:	0000                	unimp
     548:	119e                	slli	gp,gp,0x27
     54a:	0000                	unimp
     54c:	0000                	unimp
     54e:	0000                	unimp
     550:	0002                	c.slli64	zero
     552:	3072                	fld	ft0,312(sp)
     554:	119e                	slli	gp,gp,0x27
     556:	0000                	unimp
     558:	0000                	unimp
     55a:	0000                	unimp
     55c:	11a0                	addi	s0,sp,232
     55e:	0000                	unimp
     560:	0000                	unimp
     562:	0000                	unimp
     564:	0002                	c.slli64	zero
     566:	0072                	c.slli	zero,0x1c
	...
     578:	10d8                	addi	a4,sp,100
     57a:	0000                	unimp
     57c:	0000                	unimp
     57e:	0000                	unimp
     580:	10da                	slli	ra,ra,0x36
     582:	0000                	unimp
     584:	0000                	unimp
     586:	0000                	unimp
     588:	0002                	c.slli64	zero
     58a:	0072                	c.slli	zero,0x1c
     58c:	10da                	slli	ra,ra,0x36
     58e:	0000                	unimp
     590:	0000                	unimp
     592:	0000                	unimp
     594:	10e0                	addi	s0,sp,108
     596:	0000                	unimp
     598:	0000                	unimp
     59a:	0000                	unimp
     59c:	0002                	c.slli64	zero
     59e:	3072                	fld	ft0,312(sp)
     5a0:	10e0                	addi	s0,sp,108
     5a2:	0000                	unimp
     5a4:	0000                	unimp
     5a6:	0000                	unimp
     5a8:	1126                	slli	sp,sp,0x29
     5aa:	0000                	unimp
     5ac:	0000                	unimp
     5ae:	0000                	unimp
     5b0:	0002                	c.slli64	zero
     5b2:	0078                	addi	a4,sp,12
     5b4:	1126                	slli	sp,sp,0x29
     5b6:	0000                	unimp
     5b8:	0000                	unimp
     5ba:	0000                	unimp
     5bc:	1128                	addi	a0,sp,168
     5be:	0000                	unimp
     5c0:	0000                	unimp
     5c2:	0000                	unimp
     5c4:	0002                	c.slli64	zero
     5c6:	3072                	fld	ft0,312(sp)
     5c8:	1128                	addi	a0,sp,168
     5ca:	0000                	unimp
     5cc:	0000                	unimp
     5ce:	0000                	unimp
     5d0:	112a                	slli	sp,sp,0x2a
     5d2:	0000                	unimp
     5d4:	0000                	unimp
     5d6:	0000                	unimp
     5d8:	0002                	c.slli64	zero
     5da:	0072                	c.slli	zero,0x1c
	...
     5ec:	1098                	addi	a4,sp,96
     5ee:	0000                	unimp
     5f0:	0000                	unimp
     5f2:	0000                	unimp
     5f4:	109a                	slli	ra,ra,0x26
     5f6:	0000                	unimp
     5f8:	0000                	unimp
     5fa:	0000                	unimp
     5fc:	0002                	c.slli64	zero
     5fe:	0072                	c.slli	zero,0x1c
     600:	109a                	slli	ra,ra,0x26
     602:	0000                	unimp
     604:	0000                	unimp
     606:	0000                	unimp
     608:	10a0                	addi	s0,sp,104
     60a:	0000                	unimp
     60c:	0000                	unimp
     60e:	0000                	unimp
     610:	0002                	c.slli64	zero
     612:	3072                	fld	ft0,312(sp)
     614:	10a0                	addi	s0,sp,104
     616:	0000                	unimp
     618:	0000                	unimp
     61a:	0000                	unimp
     61c:	10d4                	addi	a3,sp,100
     61e:	0000                	unimp
     620:	0000                	unimp
     622:	0000                	unimp
     624:	0002                	c.slli64	zero
     626:	0078                	addi	a4,sp,12
     628:	10d4                	addi	a3,sp,100
     62a:	0000                	unimp
     62c:	0000                	unimp
     62e:	0000                	unimp
     630:	10d6                	slli	ra,ra,0x35
     632:	0000                	unimp
     634:	0000                	unimp
     636:	0000                	unimp
     638:	0002                	c.slli64	zero
     63a:	3072                	fld	ft0,312(sp)
     63c:	10d6                	slli	ra,ra,0x35
     63e:	0000                	unimp
     640:	0000                	unimp
     642:	0000                	unimp
     644:	10d8                	addi	a4,sp,100
     646:	0000                	unimp
     648:	0000                	unimp
     64a:	0000                	unimp
     64c:	0002                	c.slli64	zero
     64e:	0072                	c.slli	zero,0x1c
	...
     660:	0fc6                	slli	t6,t6,0x11
     662:	0000                	unimp
     664:	0000                	unimp
     666:	0000                	unimp
     668:	0fc8                	addi	a0,sp,980
     66a:	0000                	unimp
     66c:	0000                	unimp
     66e:	0000                	unimp
     670:	0002                	c.slli64	zero
     672:	0072                	c.slli	zero,0x1c
     674:	0fc8                	addi	a0,sp,980
     676:	0000                	unimp
     678:	0000                	unimp
     67a:	0000                	unimp
     67c:	0fce                	slli	t6,t6,0x13
     67e:	0000                	unimp
     680:	0000                	unimp
     682:	0000                	unimp
     684:	d0720003          	lb	zero,-761(tp) # fffffffffffffd07 <__global_pointer$+0xffffffff7fffd4bf>
     688:	ce00                	sw	s0,24(a2)
     68a:	0000000f          	fence	unknown,unknown
     68e:	0000                	unimp
     690:	9400                	.insn	2, 0x9400
     692:	0010                	.insn	2, 0x0010
     694:	0000                	unimp
     696:	0000                	unimp
     698:	0200                	addi	s0,sp,256
     69a:	7800                	ld	s0,48(s0)
     69c:	9400                	.insn	2, 0x9400
     69e:	0010                	.insn	2, 0x0010
     6a0:	0000                	unimp
     6a2:	0000                	unimp
     6a4:	9600                	.insn	2, 0x9600
     6a6:	0010                	.insn	2, 0x0010
     6a8:	0000                	unimp
     6aa:	0000                	unimp
     6ac:	0300                	addi	s0,sp,384
     6ae:	7200                	ld	s0,32(a2)
     6b0:	00d0                	addi	a2,sp,68
     6b2:	1096                	slli	ra,ra,0x25
     6b4:	0000                	unimp
     6b6:	0000                	unimp
     6b8:	0000                	unimp
     6ba:	1098                	addi	a4,sp,96
     6bc:	0000                	unimp
     6be:	0000                	unimp
     6c0:	0000                	unimp
     6c2:	0002                	c.slli64	zero
     6c4:	0072                	c.slli	zero,0x1c
	...
     6d6:	0f0a                	slli	t5,t5,0x2
     6d8:	0000                	unimp
     6da:	0000                	unimp
     6dc:	0000                	unimp
     6de:	0f0c                	addi	a1,sp,912
     6e0:	0000                	unimp
     6e2:	0000                	unimp
     6e4:	0000                	unimp
     6e6:	0002                	c.slli64	zero
     6e8:	0072                	c.slli	zero,0x1c
     6ea:	0f0c                	addi	a1,sp,912
     6ec:	0000                	unimp
     6ee:	0000                	unimp
     6f0:	0000                	unimp
     6f2:	0f12                	slli	t5,t5,0x4
     6f4:	0000                	unimp
     6f6:	0000                	unimp
     6f8:	0000                	unimp
     6fa:	d0720003          	lb	zero,-761(tp) # fffffffffffffd07 <__global_pointer$+0xffffffff7fffd4bf>
     6fe:	1200                	addi	s0,sp,288
     700:	0000000f          	fence	unknown,unknown
     704:	0000                	unimp
     706:	c200                	sw	s0,0(a2)
     708:	0000000f          	fence	unknown,unknown
     70c:	0000                	unimp
     70e:	0200                	addi	s0,sp,256
     710:	7800                	ld	s0,48(s0)
     712:	c200                	sw	s0,0(a2)
     714:	0000000f          	fence	unknown,unknown
     718:	0000                	unimp
     71a:	c400                	sw	s0,8(s0)
     71c:	0000000f          	fence	unknown,unknown
     720:	0000                	unimp
     722:	0300                	addi	s0,sp,384
     724:	7200                	ld	s0,32(a2)
     726:	00d0                	addi	a2,sp,68
     728:	0fc4                	addi	s1,sp,980
     72a:	0000                	unimp
     72c:	0000                	unimp
     72e:	0000                	unimp
     730:	0fc6                	slli	t6,t6,0x11
     732:	0000                	unimp
     734:	0000                	unimp
     736:	0000                	unimp
     738:	0002                	c.slli64	zero
     73a:	0072                	c.slli	zero,0x1c
	...
     74c:	0e48                	addi	a0,sp,788
     74e:	0000                	unimp
     750:	0000                	unimp
     752:	0000                	unimp
     754:	0e4a                	slli	t3,t3,0x12
     756:	0000                	unimp
     758:	0000                	unimp
     75a:	0000                	unimp
     75c:	0002                	c.slli64	zero
     75e:	0072                	c.slli	zero,0x1c
     760:	0e4a                	slli	t3,t3,0x12
     762:	0000                	unimp
     764:	0000                	unimp
     766:	0000                	unimp
     768:	0e50                	addi	a2,sp,788
     76a:	0000                	unimp
     76c:	0000                	unimp
     76e:	0000                	unimp
     770:	90720003          	lb	zero,-1785(tp) # fffffffffffff907 <__global_pointer$+0xffffffff7fffd0bf>
     774:	5002                	.insn	2, 0x5002
     776:	000e                	c.slli	zero,0x3
     778:	0000                	unimp
     77a:	0000                	unimp
     77c:	0600                	addi	s0,sp,768
     77e:	0000000f          	fence	unknown,unknown
     782:	0000                	unimp
     784:	0200                	addi	s0,sp,256
     786:	7800                	ld	s0,48(s0)
     788:	0630                	addi	a2,sp,776
     78a:	0000000f          	fence	unknown,unknown
     78e:	0000                	unimp
     790:	0800                	addi	s0,sp,16
     792:	0000000f          	fence	unknown,unknown
     796:	0000                	unimp
     798:	0300                	addi	s0,sp,384
     79a:	7200                	ld	s0,32(a2)
     79c:	0290                	addi	a2,sp,320
     79e:	0f08                	addi	a0,sp,912
     7a0:	0000                	unimp
     7a2:	0000                	unimp
     7a4:	0000                	unimp
     7a6:	0f0a                	slli	t5,t5,0x2
     7a8:	0000                	unimp
     7aa:	0000                	unimp
     7ac:	0000                	unimp
     7ae:	0002                	c.slli64	zero
     7b0:	0072                	c.slli	zero,0x1c
	...
     7c2:	0dfe                	slli	s11,s11,0x1f
     7c4:	0000                	unimp
     7c6:	0000                	unimp
     7c8:	0000                	unimp
     7ca:	0e00                	addi	s0,sp,784
     7cc:	0000                	unimp
     7ce:	0000                	unimp
     7d0:	0000                	unimp
     7d2:	0002                	c.slli64	zero
     7d4:	0072                	c.slli	zero,0x1c
     7d6:	0e00                	addi	s0,sp,784
     7d8:	0000                	unimp
     7da:	0000                	unimp
     7dc:	0000                	unimp
     7de:	0e06                	slli	t3,t3,0x1
     7e0:	0000                	unimp
     7e2:	0000                	unimp
     7e4:	0000                	unimp
     7e6:	c0720003          	lb	zero,-1017(tp) # fffffffffffffc07 <__global_pointer$+0xffffffff7fffd3bf>
     7ea:	0600                	addi	s0,sp,768
     7ec:	000e                	c.slli	zero,0x3
     7ee:	0000                	unimp
     7f0:	0000                	unimp
     7f2:	4400                	lw	s0,8(s0)
     7f4:	000e                	c.slli	zero,0x3
     7f6:	0000                	unimp
     7f8:	0000                	unimp
     7fa:	0200                	addi	s0,sp,256
     7fc:	7800                	ld	s0,48(s0)
     7fe:	4400                	lw	s0,8(s0)
     800:	000e                	c.slli	zero,0x3
     802:	0000                	unimp
     804:	0000                	unimp
     806:	4600                	lw	s0,8(a2)
     808:	000e                	c.slli	zero,0x3
     80a:	0000                	unimp
     80c:	0000                	unimp
     80e:	0300                	addi	s0,sp,384
     810:	7200                	ld	s0,32(a2)
     812:	00c0                	addi	s0,sp,68
     814:	0e46                	slli	t3,t3,0x11
     816:	0000                	unimp
     818:	0000                	unimp
     81a:	0000                	unimp
     81c:	0e48                	addi	a0,sp,788
     81e:	0000                	unimp
     820:	0000                	unimp
     822:	0000                	unimp
     824:	0002                	c.slli64	zero
     826:	0072                	c.slli	zero,0x1c
	...
     838:	0da8                	addi	a0,sp,728
     83a:	0000                	unimp
     83c:	0000                	unimp
     83e:	0000                	unimp
     840:	0daa                	slli	s11,s11,0xa
     842:	0000                	unimp
     844:	0000                	unimp
     846:	0000                	unimp
     848:	0002                	c.slli64	zero
     84a:	0072                	c.slli	zero,0x1c
     84c:	0daa                	slli	s11,s11,0xa
     84e:	0000                	unimp
     850:	0000                	unimp
     852:	0000                	unimp
     854:	0db0                	addi	a2,sp,728
     856:	0000                	unimp
     858:	0000                	unimp
     85a:	0000                	unimp
     85c:	f0720003          	lb	zero,-249(tp) # ffffffffffffff07 <__global_pointer$+0xffffffff7fffd6bf>
     860:	b000                	fsd	fs0,32(s0)
     862:	000d                	c.nop	3
     864:	0000                	unimp
     866:	0000                	unimp
     868:	fa00                	sd	s0,48(a2)
     86a:	000d                	c.nop	3
     86c:	0000                	unimp
     86e:	0000                	unimp
     870:	0300                	addi	s0,sp,384
     872:	7800                	ld	s0,48(s0)
     874:	00c0                	addi	s0,sp,68
     876:	0dfa                	slli	s11,s11,0x1e
     878:	0000                	unimp
     87a:	0000                	unimp
     87c:	0000                	unimp
     87e:	0dfc                	addi	a5,sp,732
     880:	0000                	unimp
     882:	0000                	unimp
     884:	0000                	unimp
     886:	f0720003          	lb	zero,-249(tp) # ffffffffffffff07 <__global_pointer$+0xffffffff7fffd6bf>
     88a:	fc00                	sd	s0,56(s0)
     88c:	000d                	c.nop	3
     88e:	0000                	unimp
     890:	0000                	unimp
     892:	fe00                	sd	s0,56(a2)
     894:	000d                	c.nop	3
     896:	0000                	unimp
     898:	0000                	unimp
     89a:	0200                	addi	s0,sp,256
     89c:	7200                	ld	s0,32(a2)
	...
     8ae:	4a00                	lw	s0,16(a2)
     8b0:	000a                	c.slli	zero,0x2
     8b2:	0000                	unimp
     8b4:	0000                	unimp
     8b6:	4c00                	lw	s0,24(s0)
     8b8:	000a                	c.slli	zero,0x2
     8ba:	0000                	unimp
     8bc:	0000                	unimp
     8be:	0200                	addi	s0,sp,256
     8c0:	7200                	ld	s0,32(a2)
     8c2:	4c00                	lw	s0,24(s0)
     8c4:	000a                	c.slli	zero,0x2
     8c6:	0000                	unimp
     8c8:	0000                	unimp
     8ca:	5600                	lw	s0,40(a2)
     8cc:	000a                	c.slli	zero,0x2
     8ce:	0000                	unimp
     8d0:	0000                	unimp
     8d2:	0300                	addi	s0,sp,384
     8d4:	7200                	ld	s0,32(a2)
     8d6:	00f0                	addi	a2,sp,76
     8d8:	0a56                	slli	s4,s4,0x15
     8da:	0000                	unimp
     8dc:	0000                	unimp
     8de:	0000                	unimp
     8e0:	0da0                	addi	s0,sp,728
     8e2:	0000                	unimp
     8e4:	0000                	unimp
     8e6:	0000                	unimp
     8e8:	0002                	c.slli64	zero
     8ea:	0078                	addi	a4,sp,12
     8ec:	0da0                	addi	s0,sp,728
     8ee:	0000                	unimp
     8f0:	0000                	unimp
     8f2:	0000                	unimp
     8f4:	0da6                	slli	s11,s11,0x9
     8f6:	0000                	unimp
     8f8:	0000                	unimp
     8fa:	0000                	unimp
     8fc:	f0720003          	lb	zero,-249(tp) # ffffffffffffff07 <__global_pointer$+0xffffffff7fffd6bf>
     900:	a600                	fsd	fs0,8(a2)
     902:	000d                	c.nop	3
     904:	0000                	unimp
     906:	0000                	unimp
     908:	a800                	fsd	fs0,16(s0)
     90a:	000d                	c.nop	3
     90c:	0000                	unimp
     90e:	0000                	unimp
     910:	0200                	addi	s0,sp,256
     912:	7200                	ld	s0,32(a2)
	...
     924:	de00                	sw	s0,56(a2)
     926:	0009                	c.nop	2
     928:	0000                	unimp
     92a:	0000                	unimp
     92c:	e000                	sd	s0,0(s0)
     92e:	0009                	c.nop	2
     930:	0000                	unimp
     932:	0000                	unimp
     934:	0200                	addi	s0,sp,256
     936:	7200                	ld	s0,32(a2)
     938:	e000                	sd	s0,0(s0)
     93a:	0009                	c.nop	2
     93c:	0000                	unimp
     93e:	0000                	unimp
     940:	e600                	sd	s0,8(a2)
     942:	0009                	c.nop	2
     944:	0000                	unimp
     946:	0000                	unimp
     948:	0200                	addi	s0,sp,256
     94a:	7200                	ld	s0,32(a2)
     94c:	e620                	sd	s0,72(a2)
     94e:	0009                	c.nop	2
     950:	0000                	unimp
     952:	0000                	unimp
     954:	4600                	lw	s0,8(a2)
     956:	000a                	c.slli	zero,0x2
     958:	0000                	unimp
     95a:	0000                	unimp
     95c:	0200                	addi	s0,sp,256
     95e:	7800                	ld	s0,48(s0)
     960:	4600                	lw	s0,8(a2)
     962:	000a                	c.slli	zero,0x2
     964:	0000                	unimp
     966:	0000                	unimp
     968:	4800                	lw	s0,16(s0)
     96a:	000a                	c.slli	zero,0x2
     96c:	0000                	unimp
     96e:	0000                	unimp
     970:	0200                	addi	s0,sp,256
     972:	7200                	ld	s0,32(a2)
     974:	4820                	lw	s0,80(s0)
     976:	000a                	c.slli	zero,0x2
     978:	0000                	unimp
     97a:	0000                	unimp
     97c:	4a00                	lw	s0,16(a2)
     97e:	000a                	c.slli	zero,0x2
     980:	0000                	unimp
     982:	0000                	unimp
     984:	0200                	addi	s0,sp,256
     986:	7200                	ld	s0,32(a2)
	...
     998:	6e00                	ld	s0,24(a2)
     99a:	0009                	c.nop	2
     99c:	0000                	unimp
     99e:	0000                	unimp
     9a0:	7000                	ld	s0,32(s0)
     9a2:	0009                	c.nop	2
     9a4:	0000                	unimp
     9a6:	0000                	unimp
     9a8:	0200                	addi	s0,sp,256
     9aa:	7200                	ld	s0,32(a2)
     9ac:	7000                	ld	s0,32(s0)
     9ae:	0009                	c.nop	2
     9b0:	0000                	unimp
     9b2:	0000                	unimp
     9b4:	7600                	ld	s0,40(a2)
     9b6:	0009                	c.nop	2
     9b8:	0000                	unimp
     9ba:	0000                	unimp
     9bc:	0200                	addi	s0,sp,256
     9be:	7200                	ld	s0,32(a2)
     9c0:	7620                	ld	s0,104(a2)
     9c2:	0009                	c.nop	2
     9c4:	0000                	unimp
     9c6:	0000                	unimp
     9c8:	da00                	sw	s0,48(a2)
     9ca:	0009                	c.nop	2
     9cc:	0000                	unimp
     9ce:	0000                	unimp
     9d0:	0200                	addi	s0,sp,256
     9d2:	7800                	ld	s0,48(s0)
     9d4:	da00                	sw	s0,48(a2)
     9d6:	0009                	c.nop	2
     9d8:	0000                	unimp
     9da:	0000                	unimp
     9dc:	dc00                	sw	s0,56(s0)
     9de:	0009                	c.nop	2
     9e0:	0000                	unimp
     9e2:	0000                	unimp
     9e4:	0200                	addi	s0,sp,256
     9e6:	7200                	ld	s0,32(a2)
     9e8:	dc20                	sw	s0,120(s0)
     9ea:	0009                	c.nop	2
     9ec:	0000                	unimp
     9ee:	0000                	unimp
     9f0:	de00                	sw	s0,56(a2)
     9f2:	0009                	c.nop	2
     9f4:	0000                	unimp
     9f6:	0000                	unimp
     9f8:	0200                	addi	s0,sp,256
     9fa:	7200                	ld	s0,32(a2)
	...
     a0c:	7600                	ld	s0,40(a2)
     a0e:	0008                	.insn	2, 0x0008
     a10:	0000                	unimp
     a12:	0000                	unimp
     a14:	7800                	ld	s0,48(s0)
     a16:	0008                	.insn	2, 0x0008
     a18:	0000                	unimp
     a1a:	0000                	unimp
     a1c:	0200                	addi	s0,sp,256
     a1e:	7200                	ld	s0,32(a2)
     a20:	7800                	ld	s0,48(s0)
     a22:	0008                	.insn	2, 0x0008
     a24:	0000                	unimp
     a26:	0000                	unimp
     a28:	7e00                	ld	s0,56(a2)
     a2a:	0008                	.insn	2, 0x0008
     a2c:	0000                	unimp
     a2e:	0000                	unimp
     a30:	0300                	addi	s0,sp,384
     a32:	7200                	ld	s0,32(a2)
     a34:	02d0                	addi	a2,sp,324
     a36:	087e                	slli	a6,a6,0x1f
     a38:	0000                	unimp
     a3a:	0000                	unimp
     a3c:	0000                	unimp
     a3e:	096a                	slli	s2,s2,0x1a
     a40:	0000                	unimp
     a42:	0000                	unimp
     a44:	0000                	unimp
     a46:	0002                	c.slli64	zero
     a48:	0078                	addi	a4,sp,12
     a4a:	096a                	slli	s2,s2,0x1a
     a4c:	0000                	unimp
     a4e:	0000                	unimp
     a50:	0000                	unimp
     a52:	096c                	addi	a1,sp,156
     a54:	0000                	unimp
     a56:	0000                	unimp
     a58:	0000                	unimp
     a5a:	d0720003          	lb	zero,-761(tp) # fffffffffffffd07 <__global_pointer$+0xffffffff7fffd4bf>
     a5e:	6c02                	ld	s8,0(sp)
     a60:	0009                	c.nop	2
     a62:	0000                	unimp
     a64:	0000                	unimp
     a66:	6e00                	ld	s0,24(a2)
     a68:	0009                	c.nop	2
     a6a:	0000                	unimp
     a6c:	0000                	unimp
     a6e:	0200                	addi	s0,sp,256
     a70:	7200                	ld	s0,32(a2)
	...
     a82:	ea00                	sd	s0,16(a2)
     a84:	00000007          	.insn	4, 0x0007
     a88:	0000                	unimp
     a8a:	ec00                	sd	s0,24(s0)
     a8c:	00000007          	.insn	4, 0x0007
     a90:	0000                	unimp
     a92:	0200                	addi	s0,sp,256
     a94:	7200                	ld	s0,32(a2)
     a96:	ec00                	sd	s0,24(s0)
     a98:	00000007          	.insn	4, 0x0007
     a9c:	0000                	unimp
     a9e:	f200                	sd	s0,32(a2)
     aa0:	00000007          	.insn	4, 0x0007
     aa4:	0000                	unimp
     aa6:	0300                	addi	s0,sp,384
     aa8:	7200                	ld	s0,32(a2)
     aaa:	00c0                	addi	s0,sp,68
     aac:	07f2                	slli	a5,a5,0x1c
     aae:	0000                	unimp
     ab0:	0000                	unimp
     ab2:	0000                	unimp
     ab4:	0872                	slli	a6,a6,0x1c
     ab6:	0000                	unimp
     ab8:	0000                	unimp
     aba:	0000                	unimp
     abc:	0002                	c.slli64	zero
     abe:	0078                	addi	a4,sp,12
     ac0:	0872                	slli	a6,a6,0x1c
     ac2:	0000                	unimp
     ac4:	0000                	unimp
     ac6:	0000                	unimp
     ac8:	0874                	addi	a3,sp,28
     aca:	0000                	unimp
     acc:	0000                	unimp
     ace:	0000                	unimp
     ad0:	c0720003          	lb	zero,-1017(tp) # fffffffffffffc07 <__global_pointer$+0xffffffff7fffd3bf>
     ad4:	7400                	ld	s0,40(s0)
     ad6:	0008                	.insn	2, 0x0008
     ad8:	0000                	unimp
     ada:	0000                	unimp
     adc:	7600                	ld	s0,40(a2)
     ade:	0008                	.insn	2, 0x0008
     ae0:	0000                	unimp
     ae2:	0000                	unimp
     ae4:	0200                	addi	s0,sp,256
     ae6:	7200                	ld	s0,32(a2)
	...
     af8:	c200                	sw	s0,0(a2)
     afa:	00000007          	.insn	4, 0x0007
     afe:	0000                	unimp
     b00:	c400                	sw	s0,8(s0)
     b02:	00000007          	.insn	4, 0x0007
     b06:	0000                	unimp
     b08:	0200                	addi	s0,sp,256
     b0a:	7200                	ld	s0,32(a2)
     b0c:	c400                	sw	s0,8(s0)
     b0e:	00000007          	.insn	4, 0x0007
     b12:	0000                	unimp
     b14:	ca00                	sw	s0,16(a2)
     b16:	00000007          	.insn	4, 0x0007
     b1a:	0000                	unimp
     b1c:	0200                	addi	s0,sp,256
     b1e:	7200                	ld	s0,32(a2)
     b20:	ca20                	sw	s0,80(a2)
     b22:	00000007          	.insn	4, 0x0007
     b26:	0000                	unimp
     b28:	e600                	sd	s0,8(a2)
     b2a:	00000007          	.insn	4, 0x0007
     b2e:	0000                	unimp
     b30:	0200                	addi	s0,sp,256
     b32:	7800                	ld	s0,48(s0)
     b34:	e600                	sd	s0,8(a2)
     b36:	00000007          	.insn	4, 0x0007
     b3a:	0000                	unimp
     b3c:	e800                	sd	s0,16(s0)
     b3e:	00000007          	.insn	4, 0x0007
     b42:	0000                	unimp
     b44:	0200                	addi	s0,sp,256
     b46:	7200                	ld	s0,32(a2)
     b48:	e820                	sd	s0,80(s0)
     b4a:	00000007          	.insn	4, 0x0007
     b4e:	0000                	unimp
     b50:	ea00                	sd	s0,16(a2)
     b52:	00000007          	.insn	4, 0x0007
     b56:	0000                	unimp
     b58:	0200                	addi	s0,sp,256
     b5a:	7200                	ld	s0,32(a2)
	...
     b6c:	dc00                	sw	s0,56(s0)
     b6e:	0006                	c.slli	zero,0x1
     b70:	0000                	unimp
     b72:	0000                	unimp
     b74:	de00                	sw	s0,56(a2)
     b76:	0006                	c.slli	zero,0x1
     b78:	0000                	unimp
     b7a:	0000                	unimp
     b7c:	0200                	addi	s0,sp,256
     b7e:	7200                	ld	s0,32(a2)
     b80:	de00                	sw	s0,56(a2)
     b82:	0006                	c.slli	zero,0x1
     b84:	0000                	unimp
     b86:	0000                	unimp
     b88:	e600                	sd	s0,8(a2)
     b8a:	0006                	c.slli	zero,0x1
     b8c:	0000                	unimp
     b8e:	0000                	unimp
     b90:	0300                	addi	s0,sp,384
     b92:	7200                	ld	s0,32(a2)
     b94:	01b0                	addi	a2,sp,200
     b96:	06e6                	slli	a3,a3,0x19
     b98:	0000                	unimp
     b9a:	0000                	unimp
     b9c:	0000                	unimp
     b9e:	07c2                	slli	a5,a5,0x10
     ba0:	0000                	unimp
     ba2:	0000                	unimp
     ba4:	0000                	unimp
     ba6:	0002                	c.slli64	zero
     ba8:	0078                	addi	a4,sp,12
	...
     bba:	0686                	slli	a3,a3,0x1
     bbc:	0000                	unimp
     bbe:	0000                	unimp
     bc0:	0000                	unimp
     bc2:	0688                	addi	a0,sp,832
     bc4:	0000                	unimp
     bc6:	0000                	unimp
     bc8:	0000                	unimp
     bca:	0002                	c.slli64	zero
     bcc:	0072                	c.slli	zero,0x1c
     bce:	0688                	addi	a0,sp,832
     bd0:	0000                	unimp
     bd2:	0000                	unimp
     bd4:	0000                	unimp
     bd6:	068e                	slli	a3,a3,0x3
     bd8:	0000                	unimp
     bda:	0000                	unimp
     bdc:	0000                	unimp
     bde:	0002                	c.slli64	zero
     be0:	2072                	fld	ft0,280(sp)
     be2:	068e                	slli	a3,a3,0x3
     be4:	0000                	unimp
     be6:	0000                	unimp
     be8:	0000                	unimp
     bea:	06d8                	addi	a4,sp,836
     bec:	0000                	unimp
     bee:	0000                	unimp
     bf0:	0000                	unimp
     bf2:	0002                	c.slli64	zero
     bf4:	0078                	addi	a4,sp,12
     bf6:	06d8                	addi	a4,sp,836
     bf8:	0000                	unimp
     bfa:	0000                	unimp
     bfc:	0000                	unimp
     bfe:	06da                	slli	a3,a3,0x16
     c00:	0000                	unimp
     c02:	0000                	unimp
     c04:	0000                	unimp
     c06:	0002                	c.slli64	zero
     c08:	2072                	fld	ft0,280(sp)
     c0a:	06da                	slli	a3,a3,0x16
     c0c:	0000                	unimp
     c0e:	0000                	unimp
     c10:	0000                	unimp
     c12:	06dc                	addi	a5,sp,836
     c14:	0000                	unimp
     c16:	0000                	unimp
     c18:	0000                	unimp
     c1a:	0002                	c.slli64	zero
     c1c:	0072                	c.slli	zero,0x1c
	...
     c2e:	065c                	addi	a5,sp,772
     c30:	0000                	unimp
     c32:	0000                	unimp
     c34:	0000                	unimp
     c36:	065e                	slli	a2,a2,0x17
     c38:	0000                	unimp
     c3a:	0000                	unimp
     c3c:	0000                	unimp
     c3e:	0002                	c.slli64	zero
     c40:	0072                	c.slli	zero,0x1c
     c42:	065e                	slli	a2,a2,0x17
     c44:	0000                	unimp
     c46:	0000                	unimp
     c48:	0000                	unimp
     c4a:	0664                	addi	s1,sp,780
     c4c:	0000                	unimp
     c4e:	0000                	unimp
     c50:	0000                	unimp
     c52:	0002                	c.slli64	zero
     c54:	2072                	fld	ft0,280(sp)
     c56:	0664                	addi	s1,sp,780
     c58:	0000                	unimp
     c5a:	0000                	unimp
     c5c:	0000                	unimp
     c5e:	0682                	c.slli64	a3
     c60:	0000                	unimp
     c62:	0000                	unimp
     c64:	0000                	unimp
     c66:	0002                	c.slli64	zero
     c68:	0078                	addi	a4,sp,12
     c6a:	0682                	c.slli64	a3
     c6c:	0000                	unimp
     c6e:	0000                	unimp
     c70:	0000                	unimp
     c72:	0684                	addi	s1,sp,832
     c74:	0000                	unimp
     c76:	0000                	unimp
     c78:	0000                	unimp
     c7a:	0002                	c.slli64	zero
     c7c:	2072                	fld	ft0,280(sp)
     c7e:	0684                	addi	s1,sp,832
     c80:	0000                	unimp
     c82:	0000                	unimp
     c84:	0000                	unimp
     c86:	0686                	slli	a3,a3,0x1
     c88:	0000                	unimp
     c8a:	0000                	unimp
     c8c:	0000                	unimp
     c8e:	0002                	c.slli64	zero
     c90:	0072                	c.slli	zero,0x1c
	...
     ca2:	0630                	addi	a2,sp,776
     ca4:	0000                	unimp
     ca6:	0000                	unimp
     ca8:	0000                	unimp
     caa:	0632                	slli	a2,a2,0xc
     cac:	0000                	unimp
     cae:	0000                	unimp
     cb0:	0000                	unimp
     cb2:	0002                	c.slli64	zero
     cb4:	0072                	c.slli	zero,0x1c
     cb6:	0632                	slli	a2,a2,0xc
     cb8:	0000                	unimp
     cba:	0000                	unimp
     cbc:	0000                	unimp
     cbe:	0638                	addi	a4,sp,776
     cc0:	0000                	unimp
     cc2:	0000                	unimp
     cc4:	0000                	unimp
     cc6:	0002                	c.slli64	zero
     cc8:	2072                	fld	ft0,280(sp)
     cca:	0638                	addi	a4,sp,776
     ccc:	0000                	unimp
     cce:	0000                	unimp
     cd0:	0000                	unimp
     cd2:	0658                	addi	a4,sp,772
     cd4:	0000                	unimp
     cd6:	0000                	unimp
     cd8:	0000                	unimp
     cda:	0002                	c.slli64	zero
     cdc:	0078                	addi	a4,sp,12
     cde:	0658                	addi	a4,sp,772
     ce0:	0000                	unimp
     ce2:	0000                	unimp
     ce4:	0000                	unimp
     ce6:	065a                	slli	a2,a2,0x16
     ce8:	0000                	unimp
     cea:	0000                	unimp
     cec:	0000                	unimp
     cee:	0002                	c.slli64	zero
     cf0:	2072                	fld	ft0,280(sp)
     cf2:	065a                	slli	a2,a2,0x16
     cf4:	0000                	unimp
     cf6:	0000                	unimp
     cf8:	0000                	unimp
     cfa:	065c                	addi	a5,sp,772
     cfc:	0000                	unimp
     cfe:	0000                	unimp
     d00:	0000                	unimp
     d02:	0002                	c.slli64	zero
     d04:	0072                	c.slli	zero,0x1c
	...
     d16:	0610                	addi	a2,sp,768
     d18:	0000                	unimp
     d1a:	0000                	unimp
     d1c:	0000                	unimp
     d1e:	0612                	slli	a2,a2,0x4
     d20:	0000                	unimp
     d22:	0000                	unimp
     d24:	0000                	unimp
     d26:	0002                	c.slli64	zero
     d28:	0072                	c.slli	zero,0x1c
     d2a:	0612                	slli	a2,a2,0x4
     d2c:	0000                	unimp
     d2e:	0000                	unimp
     d30:	0000                	unimp
     d32:	0618                	addi	a4,sp,768
     d34:	0000                	unimp
     d36:	0000                	unimp
     d38:	0000                	unimp
     d3a:	0002                	c.slli64	zero
     d3c:	2072                	fld	ft0,280(sp)
     d3e:	0618                	addi	a4,sp,768
     d40:	0000                	unimp
     d42:	0000                	unimp
     d44:	0000                	unimp
     d46:	062c                	addi	a1,sp,776
     d48:	0000                	unimp
     d4a:	0000                	unimp
     d4c:	0000                	unimp
     d4e:	0002                	c.slli64	zero
     d50:	0078                	addi	a4,sp,12
     d52:	062c                	addi	a1,sp,776
     d54:	0000                	unimp
     d56:	0000                	unimp
     d58:	0000                	unimp
     d5a:	062e                	slli	a2,a2,0xb
     d5c:	0000                	unimp
     d5e:	0000                	unimp
     d60:	0000                	unimp
     d62:	0002                	c.slli64	zero
     d64:	2072                	fld	ft0,280(sp)
     d66:	062e                	slli	a2,a2,0xb
     d68:	0000                	unimp
     d6a:	0000                	unimp
     d6c:	0000                	unimp
     d6e:	0630                	addi	a2,sp,776
     d70:	0000                	unimp
     d72:	0000                	unimp
     d74:	0000                	unimp
     d76:	0002                	c.slli64	zero
     d78:	0072                	c.slli	zero,0x1c
	...
     d8a:	05f2                	slli	a1,a1,0x1c
     d8c:	0000                	unimp
     d8e:	0000                	unimp
     d90:	0000                	unimp
     d92:	05f4                	addi	a3,sp,716
     d94:	0000                	unimp
     d96:	0000                	unimp
     d98:	0000                	unimp
     d9a:	0002                	c.slli64	zero
     d9c:	0072                	c.slli	zero,0x1c
     d9e:	05f4                	addi	a3,sp,716
     da0:	0000                	unimp
     da2:	0000                	unimp
     da4:	0000                	unimp
     da6:	05fa                	slli	a1,a1,0x1e
     da8:	0000                	unimp
     daa:	0000                	unimp
     dac:	0000                	unimp
     dae:	0002                	c.slli64	zero
     db0:	2072                	fld	ft0,280(sp)
     db2:	05fa                	slli	a1,a1,0x1e
     db4:	0000                	unimp
     db6:	0000                	unimp
     db8:	0000                	unimp
     dba:	060c                	addi	a1,sp,768
     dbc:	0000                	unimp
     dbe:	0000                	unimp
     dc0:	0000                	unimp
     dc2:	0002                	c.slli64	zero
     dc4:	0078                	addi	a4,sp,12
     dc6:	060c                	addi	a1,sp,768
     dc8:	0000                	unimp
     dca:	0000                	unimp
     dcc:	0000                	unimp
     dce:	060e                	slli	a2,a2,0x3
     dd0:	0000                	unimp
     dd2:	0000                	unimp
     dd4:	0000                	unimp
     dd6:	0002                	c.slli64	zero
     dd8:	2072                	fld	ft0,280(sp)
     dda:	060e                	slli	a2,a2,0x3
     ddc:	0000                	unimp
     dde:	0000                	unimp
     de0:	0000                	unimp
     de2:	0610                	addi	a2,sp,768
     de4:	0000                	unimp
     de6:	0000                	unimp
     de8:	0000                	unimp
     dea:	0002                	c.slli64	zero
     dec:	0072                	c.slli	zero,0x1c
	...
     dfe:	05e2                	slli	a1,a1,0x18
     e00:	0000                	unimp
     e02:	0000                	unimp
     e04:	0000                	unimp
     e06:	05e4                	addi	s1,sp,716
     e08:	0000                	unimp
     e0a:	0000                	unimp
     e0c:	0000                	unimp
     e0e:	0002                	c.slli64	zero
     e10:	0072                	c.slli	zero,0x1c
     e12:	05e4                	addi	s1,sp,716
     e14:	0000                	unimp
     e16:	0000                	unimp
     e18:	0000                	unimp
     e1a:	05ea                	slli	a1,a1,0x1a
     e1c:	0000                	unimp
     e1e:	0000                	unimp
     e20:	0000                	unimp
     e22:	0002                	c.slli64	zero
     e24:	1072                	c.slli	zero,0x3c
     e26:	05ea                	slli	a1,a1,0x1a
     e28:	0000                	unimp
     e2a:	0000                	unimp
     e2c:	0000                	unimp
     e2e:	05f2                	slli	a1,a1,0x1c
     e30:	0000                	unimp
     e32:	0000                	unimp
     e34:	0000                	unimp
     e36:	0002                	c.slli64	zero
     e38:	0078                	addi	a4,sp,12
	...
     e4a:	05ca                	slli	a1,a1,0x12
     e4c:	0000                	unimp
     e4e:	0000                	unimp
     e50:	0000                	unimp
     e52:	05cc                	addi	a1,sp,708
     e54:	0000                	unimp
     e56:	0000                	unimp
     e58:	0000                	unimp
     e5a:	0002                	c.slli64	zero
     e5c:	0072                	c.slli	zero,0x1c
     e5e:	05cc                	addi	a1,sp,708
     e60:	0000                	unimp
     e62:	0000                	unimp
     e64:	0000                	unimp
     e66:	05d2                	slli	a1,a1,0x14
     e68:	0000                	unimp
     e6a:	0000                	unimp
     e6c:	0000                	unimp
     e6e:	0002                	c.slli64	zero
     e70:	2072                	fld	ft0,280(sp)
     e72:	05d2                	slli	a1,a1,0x14
     e74:	0000                	unimp
     e76:	0000                	unimp
     e78:	0000                	unimp
     e7a:	05e2                	slli	a1,a1,0x18
     e7c:	0000                	unimp
     e7e:	0000                	unimp
     e80:	0000                	unimp
     e82:	0002                	c.slli64	zero
     e84:	0078                	addi	a4,sp,12
	...
     e96:	05ae                	slli	a1,a1,0xb
     e98:	0000                	unimp
     e9a:	0000                	unimp
     e9c:	0000                	unimp
     e9e:	05b0                	addi	a2,sp,712
     ea0:	0000                	unimp
     ea2:	0000                	unimp
     ea4:	0000                	unimp
     ea6:	0002                	c.slli64	zero
     ea8:	0072                	c.slli	zero,0x1c
     eaa:	05b0                	addi	a2,sp,712
     eac:	0000                	unimp
     eae:	0000                	unimp
     eb0:	0000                	unimp
     eb2:	05b6                	slli	a1,a1,0xd
     eb4:	0000                	unimp
     eb6:	0000                	unimp
     eb8:	0000                	unimp
     eba:	0002                	c.slli64	zero
     ebc:	3072                	fld	ft0,312(sp)
     ebe:	05b6                	slli	a1,a1,0xd
     ec0:	0000                	unimp
     ec2:	0000                	unimp
     ec4:	0000                	unimp
     ec6:	05ca                	slli	a1,a1,0x12
     ec8:	0000                	unimp
     eca:	0000                	unimp
     ecc:	0000                	unimp
     ece:	0002                	c.slli64	zero
     ed0:	0078                	addi	a4,sp,12
	...
     ee2:	058c                	addi	a1,sp,704
     ee4:	0000                	unimp
     ee6:	0000                	unimp
     ee8:	0000                	unimp
     eea:	058e                	slli	a1,a1,0x3
     eec:	0000                	unimp
     eee:	0000                	unimp
     ef0:	0000                	unimp
     ef2:	0002                	c.slli64	zero
     ef4:	0072                	c.slli	zero,0x1c
     ef6:	058e                	slli	a1,a1,0x3
     ef8:	0000                	unimp
     efa:	0000                	unimp
     efc:	0000                	unimp
     efe:	0594                	addi	a3,sp,704
     f00:	0000                	unimp
     f02:	0000                	unimp
     f04:	0000                	unimp
     f06:	0002                	c.slli64	zero
     f08:	2072                	fld	ft0,280(sp)
     f0a:	0594                	addi	a3,sp,704
     f0c:	0000                	unimp
     f0e:	0000                	unimp
     f10:	0000                	unimp
     f12:	05ae                	slli	a1,a1,0xb
     f14:	0000                	unimp
     f16:	0000                	unimp
     f18:	0000                	unimp
     f1a:	0002                	c.slli64	zero
     f1c:	0078                	addi	a4,sp,12
	...
     f2e:	0480                	addi	s0,sp,576
     f30:	0000                	unimp
     f32:	0000                	unimp
     f34:	0000                	unimp
     f36:	0482                	c.slli64	s1
     f38:	0000                	unimp
     f3a:	0000                	unimp
     f3c:	0000                	unimp
     f3e:	0002                	c.slli64	zero
     f40:	0072                	c.slli	zero,0x1c
     f42:	0482                	c.slli64	s1
     f44:	0000                	unimp
     f46:	0000                	unimp
     f48:	0000                	unimp
     f4a:	0488                	addi	a0,sp,576
     f4c:	0000                	unimp
     f4e:	0000                	unimp
     f50:	0000                	unimp
     f52:	d0720003          	lb	zero,-761(tp) # fffffffffffffd07 <__global_pointer$+0xffffffff7fffd4bf>
     f56:	8800                	.insn	2, 0x8800
     f58:	0004                	.insn	2, 0x0004
     f5a:	0000                	unimp
     f5c:	0000                	unimp
     f5e:	8800                	.insn	2, 0x8800
     f60:	0005                	c.nop	1
     f62:	0000                	unimp
     f64:	0000                	unimp
     f66:	0200                	addi	s0,sp,256
     f68:	7800                	ld	s0,48(s0)
     f6a:	8800                	.insn	2, 0x8800
     f6c:	0005                	c.nop	1
     f6e:	0000                	unimp
     f70:	0000                	unimp
     f72:	8a00                	.insn	2, 0x8a00
     f74:	0005                	c.nop	1
     f76:	0000                	unimp
     f78:	0000                	unimp
     f7a:	0300                	addi	s0,sp,384
     f7c:	7200                	ld	s0,32(a2)
     f7e:	00d0                	addi	a2,sp,68
     f80:	058a                	slli	a1,a1,0x2
     f82:	0000                	unimp
     f84:	0000                	unimp
     f86:	0000                	unimp
     f88:	058c                	addi	a1,sp,704
     f8a:	0000                	unimp
     f8c:	0000                	unimp
     f8e:	0000                	unimp
     f90:	0002                	c.slli64	zero
     f92:	0072                	c.slli	zero,0x1c
	...
     fa4:	03fe                	slli	t2,t2,0x1f
     fa6:	0000                	unimp
     fa8:	0000                	unimp
     faa:	0000                	unimp
     fac:	0400                	addi	s0,sp,512
     fae:	0000                	unimp
     fb0:	0000                	unimp
     fb2:	0000                	unimp
     fb4:	0002                	c.slli64	zero
     fb6:	0072                	c.slli	zero,0x1c
     fb8:	0400                	addi	s0,sp,512
     fba:	0000                	unimp
     fbc:	0000                	unimp
     fbe:	0000                	unimp
     fc0:	0406                	slli	s0,s0,0x1
     fc2:	0000                	unimp
     fc4:	0000                	unimp
     fc6:	0000                	unimp
     fc8:	b0720003          	lb	zero,-1273(tp) # fffffffffffffb07 <__global_pointer$+0xffffffff7fffd2bf>
     fcc:	0601                	addi	a2,a2,0 # fffffffffffe7000 <__global_pointer$+0xffffffff7ffe47b8>
     fce:	0004                	.insn	2, 0x0004
     fd0:	0000                	unimp
     fd2:	0000                	unimp
     fd4:	7c00                	ld	s0,56(s0)
     fd6:	0004                	.insn	2, 0x0004
     fd8:	0000                	unimp
     fda:	0000                	unimp
     fdc:	0200                	addi	s0,sp,256
     fde:	7800                	ld	s0,48(s0)
     fe0:	7c00                	ld	s0,56(s0)
     fe2:	0004                	.insn	2, 0x0004
     fe4:	0000                	unimp
     fe6:	0000                	unimp
     fe8:	7e00                	ld	s0,56(a2)
     fea:	0004                	.insn	2, 0x0004
     fec:	0000                	unimp
     fee:	0000                	unimp
     ff0:	0300                	addi	s0,sp,384
     ff2:	7200                	ld	s0,32(a2)
     ff4:	01b0                	addi	a2,sp,200
     ff6:	047e                	slli	s0,s0,0x1f
     ff8:	0000                	unimp
     ffa:	0000                	unimp
     ffc:	0000                	unimp
     ffe:	0480                	addi	s0,sp,576
    1000:	0000                	unimp
    1002:	0000                	unimp
    1004:	0000                	unimp
    1006:	0002                	c.slli64	zero
    1008:	0072                	c.slli	zero,0x1c
	...
    101a:	03c4                	addi	s1,sp,452
    101c:	0000                	unimp
    101e:	0000                	unimp
    1020:	0000                	unimp
    1022:	03c6                	slli	t2,t2,0x11
    1024:	0000                	unimp
    1026:	0000                	unimp
    1028:	0000                	unimp
    102a:	0002                	c.slli64	zero
    102c:	0072                	c.slli	zero,0x1c
    102e:	03c6                	slli	t2,t2,0x11
    1030:	0000                	unimp
    1032:	0000                	unimp
    1034:	0000                	unimp
    1036:	03cc                	addi	a1,sp,452
    1038:	0000                	unimp
    103a:	0000                	unimp
    103c:	0000                	unimp
    103e:	0002                	c.slli64	zero
    1040:	2072                	fld	ft0,280(sp)
    1042:	03cc                	addi	a1,sp,452
    1044:	0000                	unimp
    1046:	0000                	unimp
    1048:	0000                	unimp
    104a:	03fa                	slli	t2,t2,0x1e
    104c:	0000                	unimp
    104e:	0000                	unimp
    1050:	0000                	unimp
    1052:	0002                	c.slli64	zero
    1054:	0078                	addi	a4,sp,12
    1056:	03fa                	slli	t2,t2,0x1e
    1058:	0000                	unimp
    105a:	0000                	unimp
    105c:	0000                	unimp
    105e:	03fc                	addi	a5,sp,460
    1060:	0000                	unimp
    1062:	0000                	unimp
    1064:	0000                	unimp
    1066:	0002                	c.slli64	zero
    1068:	2072                	fld	ft0,280(sp)
    106a:	03fc                	addi	a5,sp,460
    106c:	0000                	unimp
    106e:	0000                	unimp
    1070:	0000                	unimp
    1072:	03fe                	slli	t2,t2,0x1f
    1074:	0000                	unimp
    1076:	0000                	unimp
    1078:	0000                	unimp
    107a:	0002                	c.slli64	zero
    107c:	0072                	c.slli	zero,0x1c
	...
    108e:	037e                	slli	t1,t1,0x1f
    1090:	0000                	unimp
    1092:	0000                	unimp
    1094:	0000                	unimp
    1096:	0380                	addi	s0,sp,448
    1098:	0000                	unimp
    109a:	0000                	unimp
    109c:	0000                	unimp
    109e:	0002                	c.slli64	zero
    10a0:	0072                	c.slli	zero,0x1c
    10a2:	0380                	addi	s0,sp,448
    10a4:	0000                	unimp
    10a6:	0000                	unimp
    10a8:	0000                	unimp
    10aa:	0386                	slli	t2,t2,0x1
    10ac:	0000                	unimp
    10ae:	0000                	unimp
    10b0:	0000                	unimp
    10b2:	0002                	c.slli64	zero
    10b4:	2072                	fld	ft0,280(sp)
    10b6:	0386                	slli	t2,t2,0x1
    10b8:	0000                	unimp
    10ba:	0000                	unimp
    10bc:	0000                	unimp
    10be:	03c0                	addi	s0,sp,452
    10c0:	0000                	unimp
    10c2:	0000                	unimp
    10c4:	0000                	unimp
    10c6:	0002                	c.slli64	zero
    10c8:	0078                	addi	a4,sp,12
    10ca:	03c0                	addi	s0,sp,452
    10cc:	0000                	unimp
    10ce:	0000                	unimp
    10d0:	0000                	unimp
    10d2:	03c2                	slli	t2,t2,0x10
    10d4:	0000                	unimp
    10d6:	0000                	unimp
    10d8:	0000                	unimp
    10da:	0002                	c.slli64	zero
    10dc:	2072                	fld	ft0,280(sp)
    10de:	03c2                	slli	t2,t2,0x10
    10e0:	0000                	unimp
    10e2:	0000                	unimp
    10e4:	0000                	unimp
    10e6:	03c4                	addi	s1,sp,452
    10e8:	0000                	unimp
    10ea:	0000                	unimp
    10ec:	0000                	unimp
    10ee:	0002                	c.slli64	zero
    10f0:	0072                	c.slli	zero,0x1c
	...
    1102:	0330                	addi	a2,sp,392
    1104:	0000                	unimp
    1106:	0000                	unimp
    1108:	0000                	unimp
    110a:	0332                	slli	t1,t1,0xc
    110c:	0000                	unimp
    110e:	0000                	unimp
    1110:	0000                	unimp
    1112:	0002                	c.slli64	zero
    1114:	0072                	c.slli	zero,0x1c
    1116:	0332                	slli	t1,t1,0xc
    1118:	0000                	unimp
    111a:	0000                	unimp
    111c:	0000                	unimp
    111e:	0338                	addi	a4,sp,392
    1120:	0000                	unimp
    1122:	0000                	unimp
    1124:	0000                	unimp
    1126:	0002                	c.slli64	zero
    1128:	3072                	fld	ft0,312(sp)
    112a:	0338                	addi	a4,sp,392
    112c:	0000                	unimp
    112e:	0000                	unimp
    1130:	0000                	unimp
    1132:	037a                	slli	t1,t1,0x1e
    1134:	0000                	unimp
    1136:	0000                	unimp
    1138:	0000                	unimp
    113a:	0002                	c.slli64	zero
    113c:	0078                	addi	a4,sp,12
    113e:	037a                	slli	t1,t1,0x1e
    1140:	0000                	unimp
    1142:	0000                	unimp
    1144:	0000                	unimp
    1146:	037c                	addi	a5,sp,396
    1148:	0000                	unimp
    114a:	0000                	unimp
    114c:	0000                	unimp
    114e:	0002                	c.slli64	zero
    1150:	3072                	fld	ft0,312(sp)
    1152:	037c                	addi	a5,sp,396
    1154:	0000                	unimp
    1156:	0000                	unimp
    1158:	0000                	unimp
    115a:	037e                	slli	t1,t1,0x1f
    115c:	0000                	unimp
    115e:	0000                	unimp
    1160:	0000                	unimp
    1162:	0002                	c.slli64	zero
    1164:	0072                	c.slli	zero,0x1c
	...
    1176:	030a                	slli	t1,t1,0x2
    1178:	0000                	unimp
    117a:	0000                	unimp
    117c:	0000                	unimp
    117e:	030c                	addi	a1,sp,384
    1180:	0000                	unimp
    1182:	0000                	unimp
    1184:	0000                	unimp
    1186:	0002                	c.slli64	zero
    1188:	0072                	c.slli	zero,0x1c
    118a:	030c                	addi	a1,sp,384
    118c:	0000                	unimp
    118e:	0000                	unimp
    1190:	0000                	unimp
    1192:	0312                	slli	t1,t1,0x4
    1194:	0000                	unimp
    1196:	0000                	unimp
    1198:	0000                	unimp
    119a:	0002                	c.slli64	zero
    119c:	2072                	fld	ft0,280(sp)
    119e:	0312                	slli	t1,t1,0x4
    11a0:	0000                	unimp
    11a2:	0000                	unimp
    11a4:	0000                	unimp
    11a6:	032c                	addi	a1,sp,392
    11a8:	0000                	unimp
    11aa:	0000                	unimp
    11ac:	0000                	unimp
    11ae:	0002                	c.slli64	zero
    11b0:	0078                	addi	a4,sp,12
    11b2:	032c                	addi	a1,sp,392
    11b4:	0000                	unimp
    11b6:	0000                	unimp
    11b8:	0000                	unimp
    11ba:	032e                	slli	t1,t1,0xb
    11bc:	0000                	unimp
    11be:	0000                	unimp
    11c0:	0000                	unimp
    11c2:	0002                	c.slli64	zero
    11c4:	2072                	fld	ft0,280(sp)
    11c6:	032e                	slli	t1,t1,0xb
    11c8:	0000                	unimp
    11ca:	0000                	unimp
    11cc:	0000                	unimp
    11ce:	0330                	addi	a2,sp,392
    11d0:	0000                	unimp
    11d2:	0000                	unimp
    11d4:	0000                	unimp
    11d6:	0002                	c.slli64	zero
    11d8:	0072                	c.slli	zero,0x1c
	...
    11ea:	02de                	slli	t0,t0,0x17
    11ec:	0000                	unimp
    11ee:	0000                	unimp
    11f0:	0000                	unimp
    11f2:	02e0                	addi	s0,sp,332
    11f4:	0000                	unimp
    11f6:	0000                	unimp
    11f8:	0000                	unimp
    11fa:	0002                	c.slli64	zero
    11fc:	0072                	c.slli	zero,0x1c
    11fe:	02e0                	addi	s0,sp,332
    1200:	0000                	unimp
    1202:	0000                	unimp
    1204:	0000                	unimp
    1206:	02e6                	slli	t0,t0,0x19
    1208:	0000                	unimp
    120a:	0000                	unimp
    120c:	0000                	unimp
    120e:	0002                	c.slli64	zero
    1210:	2072                	fld	ft0,280(sp)
    1212:	02e6                	slli	t0,t0,0x19
    1214:	0000                	unimp
    1216:	0000                	unimp
    1218:	0000                	unimp
    121a:	0306                	slli	t1,t1,0x1
    121c:	0000                	unimp
    121e:	0000                	unimp
    1220:	0000                	unimp
    1222:	0002                	c.slli64	zero
    1224:	0078                	addi	a4,sp,12
    1226:	0306                	slli	t1,t1,0x1
    1228:	0000                	unimp
    122a:	0000                	unimp
    122c:	0000                	unimp
    122e:	0308                	addi	a0,sp,384
    1230:	0000                	unimp
    1232:	0000                	unimp
    1234:	0000                	unimp
    1236:	0002                	c.slli64	zero
    1238:	2072                	fld	ft0,280(sp)
    123a:	0308                	addi	a0,sp,384
    123c:	0000                	unimp
    123e:	0000                	unimp
    1240:	0000                	unimp
    1242:	030a                	slli	t1,t1,0x2
    1244:	0000                	unimp
    1246:	0000                	unimp
    1248:	0000                	unimp
    124a:	0002                	c.slli64	zero
    124c:	0072                	c.slli	zero,0x1c
	...
    125e:	02a4                	addi	s1,sp,328
    1260:	0000                	unimp
    1262:	0000                	unimp
    1264:	0000                	unimp
    1266:	02a6                	slli	t0,t0,0x9
    1268:	0000                	unimp
    126a:	0000                	unimp
    126c:	0000                	unimp
    126e:	0002                	c.slli64	zero
    1270:	0072                	c.slli	zero,0x1c
    1272:	02a6                	slli	t0,t0,0x9
    1274:	0000                	unimp
    1276:	0000                	unimp
    1278:	0000                	unimp
    127a:	02ac                	addi	a1,sp,328
    127c:	0000                	unimp
    127e:	0000                	unimp
    1280:	0000                	unimp
    1282:	0002                	c.slli64	zero
    1284:	3072                	fld	ft0,312(sp)
    1286:	02ac                	addi	a1,sp,328
    1288:	0000                	unimp
    128a:	0000                	unimp
    128c:	0000                	unimp
    128e:	02da                	slli	t0,t0,0x16
    1290:	0000                	unimp
    1292:	0000                	unimp
    1294:	0000                	unimp
    1296:	0002                	c.slli64	zero
    1298:	0078                	addi	a4,sp,12
    129a:	02da                	slli	t0,t0,0x16
    129c:	0000                	unimp
    129e:	0000                	unimp
    12a0:	0000                	unimp
    12a2:	02dc                	addi	a5,sp,324
    12a4:	0000                	unimp
    12a6:	0000                	unimp
    12a8:	0000                	unimp
    12aa:	0002                	c.slli64	zero
    12ac:	3072                	fld	ft0,312(sp)
    12ae:	02dc                	addi	a5,sp,324
    12b0:	0000                	unimp
    12b2:	0000                	unimp
    12b4:	0000                	unimp
    12b6:	02de                	slli	t0,t0,0x17
    12b8:	0000                	unimp
    12ba:	0000                	unimp
    12bc:	0000                	unimp
    12be:	0002                	c.slli64	zero
    12c0:	0072                	c.slli	zero,0x1c
	...
    12d2:	022c                	addi	a1,sp,264
    12d4:	0000                	unimp
    12d6:	0000                	unimp
    12d8:	0000                	unimp
    12da:	022e                	slli	tp,tp,0xb
    12dc:	0000                	unimp
    12de:	0000                	unimp
    12e0:	0000                	unimp
    12e2:	0002                	c.slli64	zero
    12e4:	0072                	c.slli	zero,0x1c
    12e6:	022e                	slli	tp,tp,0xb
    12e8:	0000                	unimp
    12ea:	0000                	unimp
    12ec:	0000                	unimp
    12ee:	0234                	addi	a3,sp,264
    12f0:	0000                	unimp
    12f2:	0000                	unimp
    12f4:	0000                	unimp
    12f6:	0002                	c.slli64	zero
    12f8:	2072                	fld	ft0,280(sp)
    12fa:	0234                	addi	a3,sp,264
    12fc:	0000                	unimp
    12fe:	0000                	unimp
    1300:	0000                	unimp
    1302:	02a0                	addi	s0,sp,328
    1304:	0000                	unimp
    1306:	0000                	unimp
    1308:	0000                	unimp
    130a:	0002                	c.slli64	zero
    130c:	0078                	addi	a4,sp,12
    130e:	02a0                	addi	s0,sp,328
    1310:	0000                	unimp
    1312:	0000                	unimp
    1314:	0000                	unimp
    1316:	02a2                	slli	t0,t0,0x8
    1318:	0000                	unimp
    131a:	0000                	unimp
    131c:	0000                	unimp
    131e:	0002                	c.slli64	zero
    1320:	2072                	fld	ft0,280(sp)
    1322:	02a2                	slli	t0,t0,0x8
    1324:	0000                	unimp
    1326:	0000                	unimp
    1328:	0000                	unimp
    132a:	02a4                	addi	s1,sp,328
    132c:	0000                	unimp
    132e:	0000                	unimp
    1330:	0000                	unimp
    1332:	0002                	c.slli64	zero
    1334:	0072                	c.slli	zero,0x1c
	...
    1346:	010e                	slli	sp,sp,0x3
    1348:	0000                	unimp
    134a:	0000                	unimp
    134c:	0000                	unimp
    134e:	0110                	addi	a2,sp,128
    1350:	0000                	unimp
    1352:	0000                	unimp
    1354:	0000                	unimp
    1356:	0002                	c.slli64	zero
    1358:	0072                	c.slli	zero,0x1c
    135a:	0110                	addi	a2,sp,128
    135c:	0000                	unimp
    135e:	0000                	unimp
    1360:	0000                	unimp
    1362:	0116                	slli	sp,sp,0x5
    1364:	0000                	unimp
    1366:	0000                	unimp
    1368:	0000                	unimp
    136a:	e0720003          	lb	zero,-505(tp) # fffffffffffffe07 <__global_pointer$+0xffffffff7fffd5bf>
    136e:	1600                	addi	s0,sp,800
    1370:	0001                	nop
    1372:	0000                	unimp
    1374:	0000                	unimp
    1376:	2800                	fld	fs0,16(s0)
    1378:	0002                	c.slli64	zero
    137a:	0000                	unimp
    137c:	0000                	unimp
    137e:	0200                	addi	s0,sp,256
    1380:	7800                	ld	s0,48(s0)
    1382:	2800                	fld	fs0,16(s0)
    1384:	0002                	c.slli64	zero
    1386:	0000                	unimp
    1388:	0000                	unimp
    138a:	2a00                	fld	fs0,16(a2)
    138c:	0002                	c.slli64	zero
    138e:	0000                	unimp
    1390:	0000                	unimp
    1392:	0300                	addi	s0,sp,384
    1394:	7200                	ld	s0,32(a2)
    1396:	00e0                	addi	s0,sp,76
    1398:	022a                	slli	tp,tp,0xa
    139a:	0000                	unimp
    139c:	0000                	unimp
    139e:	0000                	unimp
    13a0:	022c                	addi	a1,sp,264
    13a2:	0000                	unimp
    13a4:	0000                	unimp
    13a6:	0000                	unimp
    13a8:	0002                	c.slli64	zero
    13aa:	0072                	c.slli	zero,0x1c
	...
    13c4:	0002                	c.slli64	zero
    13c6:	0000                	unimp
    13c8:	0000                	unimp
    13ca:	0000                	unimp
    13cc:	0002                	c.slli64	zero
    13ce:	0072                	c.slli	zero,0x1c
    13d0:	0002                	c.slli64	zero
    13d2:	0000                	unimp
    13d4:	0000                	unimp
    13d6:	0000                	unimp
    13d8:	0008                	.insn	2, 0x0008
    13da:	0000                	unimp
    13dc:	0000                	unimp
    13de:	0000                	unimp
    13e0:	d0720003          	lb	zero,-761(tp) # fffffffffffffd07 <__global_pointer$+0xffffffff7fffd4bf>
    13e4:	0800                	addi	s0,sp,16
    13e6:	0000                	unimp
    13e8:	0000                	unimp
    13ea:	0000                	unimp
    13ec:	0a00                	addi	s0,sp,272
    13ee:	0001                	nop
    13f0:	0000                	unimp
    13f2:	0000                	unimp
    13f4:	0200                	addi	s0,sp,256
    13f6:	7800                	ld	s0,48(s0)
    13f8:	0a00                	addi	s0,sp,272
    13fa:	0001                	nop
    13fc:	0000                	unimp
    13fe:	0000                	unimp
    1400:	0c00                	addi	s0,sp,528
    1402:	0001                	nop
    1404:	0000                	unimp
    1406:	0000                	unimp
    1408:	0300                	addi	s0,sp,384
    140a:	7200                	ld	s0,32(a2)
    140c:	00d0                	addi	a2,sp,68
    140e:	010c                	addi	a1,sp,128
    1410:	0000                	unimp
    1412:	0000                	unimp
    1414:	0000                	unimp
    1416:	010e                	slli	sp,sp,0x3
    1418:	0000                	unimp
    141a:	0000                	unimp
    141c:	0000                	unimp
    141e:	0002                	c.slli64	zero
    1420:	0072                	c.slli	zero,0x1c
	...

Disassembly of section .debug_aranges:

0000000000000000 <.debug_aranges>:
   0:	002c                	addi	a1,sp,8
   2:	0000                	unimp
   4:	0002                	c.slli64	zero
   6:	0000                	unimp
   8:	0000                	unimp
   a:	0008                	.insn	2, 0x0008
   c:	0000                	unimp
   e:	0000                	unimp
  10:	01c2                	slli	gp,gp,0x10
  12:	8000                	.insn	2, 0x8000
  14:	0000                	unimp
  16:	0000                	unimp
  18:	05ae                	slli	a1,a1,0xb
	...
  2e:	0000                	unimp
  30:	002c                	addi	a1,sp,8
  32:	0000                	unimp
  34:	0002                	c.slli64	zero
  36:	0571                	addi	a0,a0,28
  38:	0000                	unimp
  3a:	0008                	.insn	2, 0x0008
  3c:	0000                	unimp
  3e:	0000                	unimp
  40:	0000                	unimp
  42:	8000                	.insn	2, 0x8000
  44:	0000                	unimp
  46:	0000                	unimp
  48:	01c0                	addi	s0,sp,196
	...
  5e:	0000                	unimp
  60:	002c                	addi	a1,sp,8
  62:	0000                	unimp
  64:	0002                	c.slli64	zero
  66:	059f 0000 0008      	.insn	6, 0x00080000059f
  6c:	0000                	unimp
  6e:	0000                	unimp
  70:	0770                	addi	a2,sp,908
  72:	8000                	.insn	2, 0x8000
  74:	0000                	unimp
  76:	0000                	unimp
  78:	12ce                	slli	t0,t0,0x33
	...

Disassembly of section .debug_line:

0000000000000000 <.debug_line>:
       0:	05d8                	addi	a4,sp,708
       2:	0000                	unimp
       4:	0002                	c.slli64	zero
       6:	00d1                	addi	ra,ra,20 # 4014 <threadsense.3+0x4010>
       8:	0000                	unimp
       a:	0101                	addi	sp,sp,0
       c:	000a0efb          	.insn	4, 0x000a0efb
      10:	0101                	addi	sp,sp,0
      12:	0101                	addi	sp,sp,0
      14:	0000                	unimp
      16:	0100                	addi	s0,sp,128
      18:	74706f2f          	.insn	4, 0x74706f2f
      1c:	7369722f          	.insn	4, 0x7369722f
      20:	722f7663          	bgeu	t5,sp,74c <threadsense.3+0x748>
      24:	7369                	lui	t1,0xffffa
      26:	34367663          	bgeu	a2,gp,372 <threadsense.3+0x36e>
      2a:	752d                	lui	a0,0xfffeb
      2c:	6b6e                	ld	s6,216(sp)
      2e:	6f6e                	ld	t5,216(sp)
      30:	652d6e77          	.insn	4, 0x652d6e77
      34:	666c                	ld	a1,200(a2)
      36:	636e692f          	.insn	4, 0x636e692f
      3a:	756c                	ld	a1,232(a0)
      3c:	6564                	ld	s1,200(a0)
      3e:	63616d2f          	.insn	4, 0x63616d2f
      42:	6968                	ld	a0,208(a0)
      44:	656e                	ld	a0,216(sp)
      46:	2f00                	fld	fs0,24(a4)
      48:	2f74706f          	j	47b3e <threadsense.3+0x47b3a>
      4c:	6972                	ld	s2,280(sp)
      4e:	2f766373          	csrrsi	t1,0x2f7,12
      52:	6972                	ld	s2,280(sp)
      54:	36766373          	csrrsi	t1,0x367,12
      58:	2d34                	fld	fa3,88(a0)
      5a:	6e75                	lui	t3,0x1d
      5c:	776f6e6b          	.insn	4, 0x776f6e6b
      60:	2d6e                	fld	fs10,216(sp)
      62:	6c65                	lui	s8,0x19
      64:	2f66                	fld	ft10,88(sp)
      66:	6e69                	lui	t3,0x1a
      68:	64756c63          	bltu	a0,t2,6c0 <threadsense.3+0x6bc>
      6c:	2f65                	addiw	t5,t5,25
      6e:	00737973          	csrrci	s2,0x7,6
      72:	74706f2f          	.insn	4, 0x74706f2f
      76:	7369722f          	.insn	4, 0x7369722f
      7a:	722f7663          	bgeu	t5,sp,7a6 <threadsense.3+0x7a2>
      7e:	7369                	lui	t1,0xffffa
      80:	34367663          	bgeu	a2,gp,3cc <threadsense.3+0x3c8>
      84:	752d                	lui	a0,0xfffeb
      86:	6b6e                	ld	s6,216(sp)
      88:	6f6e                	ld	t5,216(sp)
      8a:	652d6e77          	.insn	4, 0x652d6e77
      8e:	666c                	ld	a1,200(a2)
      90:	636e692f          	.insn	4, 0x636e692f
      94:	756c                	ld	a1,232(a0)
      96:	6564                	ld	s1,200(a0)
      98:	0000                	unimp
      9a:	6966                	ld	s2,88(sp)
      9c:	3172                	fld	ft2,312(sp)
      9e:	632e                	ld	t1,200(sp)
      a0:	0000                	unimp
      a2:	0000                	unimp
      a4:	7475                	lui	s0,0xffffd
      a6:	6c69                	lui	s8,0x1a
      a8:	682e                	ld	a6,200(sp)
      aa:	0000                	unimp
      ac:	0000                	unimp
      ae:	645f 6665 7561      	.insn	6, 0x75616665645f
      b4:	746c                	ld	a1,232(s0)
      b6:	745f 7079 7365      	.insn	6, 0x73657079745f
      bc:	682e                	ld	a6,200(sp)
      be:	0100                	addi	s0,sp,128
      c0:	0000                	unimp
      c2:	735f 6474 6e69      	.insn	6, 0x6e696474735f
      c8:	2e74                	fld	fa3,216(a2)
      ca:	0068                	addi	a0,sp,12
      cc:	0002                	c.slli64	zero
      ce:	7300                	ld	s0,32(a4)
      d0:	6474                	ld	a3,200(s0)
      d2:	6f69                	lui	t5,0x1a
      d4:	682e                	ld	a6,200(sp)
      d6:	0300                	addi	s0,sp,384
      d8:	0000                	unimp
      da:	0400                	addi	s0,sp,512
      dc:	0502                	c.slli64	a0
      de:	0001                	nop
      e0:	0209                	addi	tp,tp,2 # 2 <threadsense.2+0x2>
      e2:	01c2                	slli	gp,gp,0x10
      e4:	8000                	.insn	2, 0x8000
      e6:	0000                	unimp
      e8:	0000                	unimp
      ea:	05010c03          	lb	s8,80(sp)
      ee:	030a                	slli	t1,t1,0x2
      f0:	00160903          	lb	s2,1(a2)
      f4:	0501                	addi	a0,a0,0 # fffffffffffeb000 <__global_pointer$+0xffffffff7ffe87b8>
      f6:	09000303          	lb	t1,144(zero) # 90 <threadsense.3+0x8c>
      fa:	0004                	.insn	2, 0x0004
      fc:	0501                	addi	a0,a0,0
      fe:	0312                	slli	t1,t1,0x4
     100:	0902                	c.slli64	s2
     102:	0002                	c.slli64	zero
     104:	0501                	addi	a0,a0,0
     106:	0309                	addi	t1,t1,2 # ffffffffffffa002 <__global_pointer$+0xffffffff7fff77ba>
     108:	0900                	addi	s0,sp,144
     10a:	000c                	.insn	2, 0x000c
     10c:	0501                	addi	a0,a0,0
     10e:	0320                	addi	s0,sp,392
     110:	0900                	addi	s0,sp,144
     112:	0006                	c.slli	zero,0x1
     114:	0501                	addi	a0,a0,0
     116:	09000317          	auipc	t1,0x9000
     11a:	000e                	c.slli	zero,0x3
     11c:	0501                	addi	a0,a0,0
     11e:	0314                	addi	a3,sp,384
     120:	0901                	addi	s2,s2,0 # 7000 <threadsense.3+0x6ffc>
     122:	0006                	c.slli	zero,0x1
     124:	0501                	addi	a0,a0,0
     126:	0309                	addi	t1,t1,2 # 9000118 <threadsense.3+0x9000114>
     128:	0900                	addi	s0,sp,144
     12a:	000c                	.insn	2, 0x000c
     12c:	0501                	addi	a0,a0,0
     12e:	0324                	addi	s1,sp,392
     130:	0900                	addi	s0,sp,144
     132:	0006                	c.slli	zero,0x1
     134:	0501                	addi	a0,a0,0
     136:	0319                	addi	t1,t1,6
     138:	0900                	addi	s0,sp,144
     13a:	000e                	c.slli	zero,0x3
     13c:	0501                	addi	a0,a0,0
     13e:	0308                	addi	a0,sp,384
     140:	0901                	addi	s2,s2,0
     142:	0006                	c.slli	zero,0x1
     144:	0501                	addi	a0,a0,0
     146:	0402001b          	addiw	zero,tp,64 # 40 <threadsense.3+0x3c>
     14a:	0301                	addi	t1,t1,0
     14c:	0900                	addi	s0,sp,144
     14e:	0012                	c.slli	zero,0x4
     150:	0601                	addi	a2,a2,0
     152:	08090003          	lb	zero,128(s2)
     156:	0100                	addi	s0,sp,128
     158:	0805                	addi	a6,a6,1
     15a:	0306                	slli	t1,t1,0x1
     15c:	0901                	addi	s2,s2,0
     15e:	0002                	c.slli64	zero
     160:	0501                	addi	a0,a0,0
     162:	0402001b          	addiw	zero,tp,64 # 40 <threadsense.3+0x3c>
     166:	0301                	addi	t1,t1,0
     168:	0900                	addi	s0,sp,144
     16a:	0012                	c.slli	zero,0x4
     16c:	0601                	addi	a2,a2,0
     16e:	08090003          	lb	zero,128(s2)
     172:	0100                	addi	s0,sp,128
     174:	0200                	addi	s0,sp,256
     176:	0204                	addi	s1,sp,256
     178:	0306                	slli	t1,t1,0x1
     17a:	0002097b          	.insn	4, 0x0002097b
     17e:	0501                	addi	a0,a0,0
     180:	0014                	.insn	2, 0x0014
     182:	0402                	c.slli64	s0
     184:	0301                	addi	t1,t1,0
     186:	0900                	addi	s0,sp,144
     188:	000a                	c.slli	zero,0x2
     18a:	0501                	addi	a0,a0,0
     18c:	0016                	c.slli	zero,0x5
     18e:	0402                	c.slli64	s0
     190:	0301                	addi	t1,t1,0
     192:	0900                	addi	s0,sp,144
     194:	0010                	.insn	2, 0x0010
     196:	0501                	addi	a0,a0,0
     198:	0011                	c.nop	4
     19a:	0402                	c.slli64	s0
     19c:	0301                	addi	t1,t1,0
     19e:	0900                	addi	s0,sp,144
     1a0:	0006                	c.slli	zero,0x1
     1a2:	0501                	addi	a0,a0,0
     1a4:	030d                	addi	t1,t1,3
     1a6:	000a0907          	.insn	4, 0x000a0907
     1aa:	0501                	addi	a0,a0,0
     1ac:	0306                	slli	t1,t1,0x1
     1ae:	0900                	addi	s0,sp,144
     1b0:	0008                	.insn	2, 0x0008
     1b2:	0501                	addi	a0,a0,0
     1b4:	0019                	c.nop	6
     1b6:	0402                	c.slli64	s0
     1b8:	0301                	addi	t1,t1,0
     1ba:	0900                	addi	s0,sp,144
     1bc:	0002                	c.slli64	zero
     1be:	0501                	addi	a0,a0,0
     1c0:	0028                	addi	a0,sp,8
     1c2:	0402                	c.slli64	s0
     1c4:	0301                	addi	t1,t1,0
     1c6:	0900                	addi	s0,sp,144
     1c8:	0014                	.insn	2, 0x0014
     1ca:	0501                	addi	a0,a0,0
     1cc:	001f 0402 0301      	.insn	6, 0x03010402001f
     1d2:	0900                	addi	s0,sp,144
     1d4:	000e                	c.slli	zero,0x3
     1d6:	0501                	addi	a0,a0,0
     1d8:	0012                	c.slli	zero,0x4
     1da:	0402                	c.slli64	s0
     1dc:	0301                	addi	t1,t1,0
     1de:	0900                	addi	s0,sp,144
     1e0:	0002                	c.slli64	zero
     1e2:	0501                	addi	a0,a0,0
     1e4:	030c                	addi	a1,sp,384
     1e6:	0901                	addi	s2,s2,0
     1e8:	0004                	.insn	2, 0x0004
     1ea:	0501                	addi	a0,a0,0
     1ec:	030a                	slli	t1,t1,0x2
     1ee:	0901                	addi	s2,s2,0
     1f0:	0006                	c.slli	zero,0x1
     1f2:	0501                	addi	a0,a0,0
     1f4:	0301                	addi	t1,t1,0
     1f6:	0901                	addi	s2,s2,0
     1f8:	0002                	c.slli64	zero
     1fa:	0301                	addi	t1,t1,0
     1fc:	000a0903          	lb	s2,0(s4)
     200:	0501                	addi	a0,a0,0
     202:	030a                	slli	t1,t1,0x2
     204:	00160903          	lb	s2,1(a2)
     208:	0501                	addi	a0,a0,0
     20a:	09000303          	lb	t1,144(zero) # 90 <threadsense.3+0x8c>
     20e:	0004                	.insn	2, 0x0004
     210:	0501                	addi	a0,a0,0
     212:	0315                	addi	t1,t1,5
     214:	0902                	c.slli64	s2
     216:	0002                	c.slli64	zero
     218:	0501                	addi	a0,a0,0
     21a:	030c                	addi	a1,sp,384
     21c:	0900                	addi	s0,sp,144
     21e:	000c                	.insn	2, 0x000c
     220:	0501                	addi	a0,a0,0
     222:	09000323          	sb	a6,134(zero) # 86 <threadsense.3+0x82>
     226:	0006                	c.slli	zero,0x1
     228:	0501                	addi	a0,a0,0
     22a:	031a                	slli	t1,t1,0x6
     22c:	0900                	addi	s0,sp,144
     22e:	000e                	c.slli	zero,0x3
     230:	0501                	addi	a0,a0,0
     232:	09010317          	auipc	t1,0x9010
     236:	0006                	c.slli	zero,0x1
     238:	0501                	addi	a0,a0,0
     23a:	030c                	addi	a1,sp,384
     23c:	0900                	addi	s0,sp,144
     23e:	000c                	.insn	2, 0x000c
     240:	0501                	addi	a0,a0,0
     242:	09000327          	.insn	4, 0x09000327
     246:	0006                	c.slli	zero,0x1
     248:	0501                	addi	a0,a0,0
     24a:	031c                	addi	a5,sp,384
     24c:	0900                	addi	s0,sp,144
     24e:	000e                	c.slli	zero,0x3
     250:	0501                	addi	a0,a0,0
     252:	0312                	slli	t1,t1,0x4
     254:	0901                	addi	s2,s2,0
     256:	0006                	c.slli	zero,0x1
     258:	0501                	addi	a0,a0,0
     25a:	0309                	addi	t1,t1,2 # 9010234 <threadsense.3+0x9010230>
     25c:	0900                	addi	s0,sp,144
     25e:	0010                	.insn	2, 0x0010
     260:	0501                	addi	a0,a0,0
     262:	0322                	slli	t1,t1,0x8
     264:	0900                	addi	s0,sp,144
     266:	0004                	.insn	2, 0x0004
     268:	0501                	addi	a0,a0,0
     26a:	0319                	addi	t1,t1,6
     26c:	0900                	addi	s0,sp,144
     26e:	0010                	.insn	2, 0x0010
     270:	0501                	addi	a0,a0,0
     272:	0901030f          	.insn	4, 0x0901030f
     276:	0004                	.insn	2, 0x0004
     278:	0501                	addi	a0,a0,0
     27a:	0308                	addi	a0,sp,384
     27c:	0900                	addi	s0,sp,144
     27e:	000e                	c.slli	zero,0x3
     280:	0501                	addi	a0,a0,0
     282:	001f 0402 0301      	.insn	6, 0x03010402001f
     288:	0900                	addi	s0,sp,144
     28a:	0002                	c.slli64	zero
     28c:	0501                	addi	a0,a0,0
     28e:	0021                	c.nop	8
     290:	0402                	c.slli64	s0
     292:	0301                	addi	t1,t1,0
     294:	0900                	addi	s0,sp,144
     296:	0008                	.insn	2, 0x0008
     298:	0601                	addi	a2,a2,0
     29a:	08090003          	lb	zero,128(s2)
     29e:	0100                	addi	s0,sp,128
     2a0:	1b05                	addi	s6,s6,-31
     2a2:	0200                	addi	s0,sp,256
     2a4:	0204                	addi	s1,sp,256
     2a6:	0306                	slli	t1,t1,0x1
     2a8:	0002097b          	.insn	4, 0x0002097b
     2ac:	0501                	addi	a0,a0,0
     2ae:	0014                	.insn	2, 0x0014
     2b0:	0402                	c.slli64	s0
     2b2:	0301                	addi	t1,t1,0
     2b4:	0900                	addi	s0,sp,144
     2b6:	000a                	c.slli	zero,0x2
     2b8:	0501                	addi	a0,a0,0
     2ba:	0016                	c.slli	zero,0x5
     2bc:	0402                	c.slli64	s0
     2be:	0301                	addi	t1,t1,0
     2c0:	0900                	addi	s0,sp,144
     2c2:	0010                	.insn	2, 0x0010
     2c4:	0501                	addi	a0,a0,0
     2c6:	0011                	c.nop	4
     2c8:	0402                	c.slli64	s0
     2ca:	0301                	addi	t1,t1,0
     2cc:	0900                	addi	s0,sp,144
     2ce:	0006                	c.slli	zero,0x1
     2d0:	0501                	addi	a0,a0,0
     2d2:	030d                	addi	t1,t1,3
     2d4:	000a0907          	.insn	4, 0x000a0907
     2d8:	0501                	addi	a0,a0,0
     2da:	0306                	slli	t1,t1,0x1
     2dc:	0900                	addi	s0,sp,144
     2de:	0008                	.insn	2, 0x0008
     2e0:	0501                	addi	a0,a0,0
     2e2:	0019                	c.nop	6
     2e4:	0402                	c.slli64	s0
     2e6:	0301                	addi	t1,t1,0
     2e8:	0900                	addi	s0,sp,144
     2ea:	0002                	c.slli64	zero
     2ec:	0501                	addi	a0,a0,0
     2ee:	0028                	addi	a0,sp,8
     2f0:	0402                	c.slli64	s0
     2f2:	0301                	addi	t1,t1,0
     2f4:	0900                	addi	s0,sp,144
     2f6:	0010                	.insn	2, 0x0010
     2f8:	0501                	addi	a0,a0,0
     2fa:	0012                	c.slli	zero,0x4
     2fc:	0402                	c.slli64	s0
     2fe:	0301                	addi	t1,t1,0
     300:	0900                	addi	s0,sp,144
     302:	0010                	.insn	2, 0x0010
     304:	0501                	addi	a0,a0,0
     306:	030c                	addi	a1,sp,384
     308:	0901                	addi	s2,s2,0
     30a:	0006                	c.slli	zero,0x1
     30c:	0501                	addi	a0,a0,0
     30e:	030a                	slli	t1,t1,0x2
     310:	0901                	addi	s2,s2,0
     312:	0006                	c.slli	zero,0x1
     314:	0501                	addi	a0,a0,0
     316:	0301                	addi	t1,t1,0
     318:	0901                	addi	s2,s2,0
     31a:	0002                	c.slli64	zero
     31c:	0301                	addi	t1,t1,0
     31e:	000a0903          	lb	s2,0(s4)
     322:	0501                	addi	a0,a0,0
     324:	09050303          	lb	t1,144(a0)
     328:	000e                	c.slli	zero,0x3
     32a:	0501                	addi	a0,a0,0
     32c:	0311                	addi	t1,t1,4
     32e:	0902                	c.slli64	s2
     330:	0004                	.insn	2, 0x0004
     332:	0501                	addi	a0,a0,0
     334:	0900030f          	.insn	4, 0x0900030f
     338:	0010                	.insn	2, 0x0010
     33a:	0501                	addi	a0,a0,0
     33c:	09010307          	.insn	4, 0x09010307
     340:	0004                	.insn	2, 0x0004
     342:	0001                	nop
     344:	0402                	c.slli64	s0
     346:	0601                	addi	a2,a2,0
     348:	12090003          	lb	zero,288(s2)
     34c:	0100                	addi	s0,sp,128
     34e:	3005                	.insn	2, 0x3005
     350:	0200                	addi	s0,sp,256
     352:	0104                	addi	s1,sp,128
     354:	0306                	slli	t1,t1,0x1
     356:	0900                	addi	s0,sp,144
     358:	0002                	c.slli64	zero
     35a:	0501                	addi	a0,a0,0
     35c:	0006                	c.slli	zero,0x1
     35e:	0402                	c.slli64	s0
     360:	0301                	addi	t1,t1,0
     362:	0900                	addi	s0,sp,144
     364:	0008                	.insn	2, 0x0008
     366:	0501                	addi	a0,a0,0
     368:	0902030b          	.insn	4, 0x0902030b
     36c:	0004                	.insn	2, 0x0004
     36e:	0301                	addi	t1,t1,0
     370:	0901                	addi	s2,s2,0
     372:	000c                	.insn	2, 0x000c
     374:	0501                	addi	a0,a0,0
     376:	030d                	addi	t1,t1,3
     378:	0902                	c.slli64	s2
     37a:	0010                	.insn	2, 0x0010
     37c:	0501                	addi	a0,a0,0
     37e:	0014                	.insn	2, 0x0014
     380:	0402                	c.slli64	s0
     382:	0301                	addi	t1,t1,0
     384:	0900                	addi	s0,sp,144
     386:	0002                	c.slli64	zero
     388:	0501                	addi	a0,a0,0
     38a:	09030303          	lb	t1,144(t1)
     38e:	0016                	c.slli	zero,0x5
     390:	0501                	addi	a0,a0,0
     392:	0301                	addi	t1,t1,0
     394:	0901                	addi	s2,s2,0
     396:	0004                	.insn	2, 0x0004
     398:	0301                	addi	t1,t1,0
     39a:	000a0903          	lb	s2,0(s4)
     39e:	0501                	addi	a0,a0,0
     3a0:	031a                	slli	t1,t1,0x6
     3a2:	0901                	addi	s2,s2,0
     3a4:	000c                	.insn	2, 0x000c
     3a6:	0501                	addi	a0,a0,0
     3a8:	0315                	addi	t1,t1,5
     3aa:	0900                	addi	s0,sp,144
     3ac:	0008                	.insn	2, 0x0008
     3ae:	0501                	addi	a0,a0,0
     3b0:	030c                	addi	a1,sp,384
     3b2:	0900                	addi	s0,sp,144
     3b4:	0006                	c.slli	zero,0x1
     3b6:	0501                	addi	a0,a0,0
     3b8:	030d                	addi	t1,t1,3
     3ba:	0901                	addi	s2,s2,0
     3bc:	0006                	c.slli	zero,0x1
     3be:	0501                	addi	a0,a0,0
     3c0:	031a                	slli	t1,t1,0x6
     3c2:	0900                	addi	s0,sp,144
     3c4:	0008                	.insn	2, 0x0008
     3c6:	0501                	addi	a0,a0,0
     3c8:	09000313          	li	t1,144
     3cc:	0006                	c.slli	zero,0x1
     3ce:	0501                	addi	a0,a0,0
     3d0:	0301                	addi	t1,t1,0
     3d2:	0901                	addi	s2,s2,0
     3d4:	0002                	c.slli64	zero
     3d6:	0301                	addi	t1,t1,0
     3d8:	000a0903          	lb	s2,0(s4)
     3dc:	0501                	addi	a0,a0,0
     3de:	030c                	addi	a1,sp,384
     3e0:	0901                	addi	s2,s2,0
     3e2:	000c                	.insn	2, 0x000c
     3e4:	0501                	addi	a0,a0,0
     3e6:	0900030b          	.insn	4, 0x0900030b
     3ea:	0004                	.insn	2, 0x0004
     3ec:	0501                	addi	a0,a0,0
     3ee:	0320                	addi	s0,sp,392
     3f0:	0900                	addi	s0,sp,144
     3f2:	0004                	.insn	2, 0x0004
     3f4:	0501                	addi	a0,a0,0
     3f6:	0329                	addi	t1,t1,10
     3f8:	0900                	addi	s0,sp,144
     3fa:	0006                	c.slli	zero,0x1
     3fc:	0001                	nop
     3fe:	0402                	c.slli64	s0
     400:	0601                	addi	a2,a2,0
     402:	02090003          	lb	zero,32(s2)
     406:	0100                	addi	s0,sp,128
     408:	02090003          	lb	zero,32(s2)
     40c:	0100                	addi	s0,sp,128
     40e:	0200                	addi	s0,sp,256
     410:	0204                	addi	s1,sp,256
     412:	02090003          	lb	zero,32(s2)
     416:	0100                	addi	s0,sp,128
     418:	0105                	addi	sp,sp,1
     41a:	0306                	slli	t1,t1,0x1
     41c:	0901                	addi	s2,s2,0
     41e:	0002                	c.slli64	zero
     420:	0401                	addi	s0,s0,0 # ffffffffffffd000 <__global_pointer$+0xffffffff7fffa7b8>
     422:	0501                	addi	a0,a0,0
     424:	7fbc031b          	addiw	t1,s8,2043 # 1a7fb <threadsense.3+0x1a7f7>
     428:	0a09                	addi	s4,s4,2
     42a:	0100                	addi	s0,sp,128
     42c:	0b05                	addi	s6,s6,1
     42e:	16090103          	lb	sp,352(s2)
     432:	0100                	addi	s0,sp,128
     434:	0105                	addi	sp,sp,1
     436:	0e090103          	lb	sp,224(s2)
     43a:	0100                	addi	s0,sp,128
     43c:	1b05                	addi	s6,s6,-31
     43e:	0a090303          	lb	t1,160(s2)
     442:	0100                	addi	s0,sp,128
     444:	0e05                	addi	t3,t3,1 # 1a001 <threadsense.3+0x19ffd>
     446:	16090103          	lb	sp,352(s2)
     44a:	0100                	addi	s0,sp,128
     44c:	1805                	addi	a6,a6,-31
     44e:	04090003          	lb	zero,64(s2)
     452:	0100                	addi	s0,sp,128
     454:	0805                	addi	a6,a6,1
     456:	04090003          	lb	zero,64(s2)
     45a:	0100                	addi	s0,sp,128
     45c:	1605                	addi	a2,a2,-31
     45e:	08090103          	lb	sp,128(s2)
     462:	0100                	addi	s0,sp,128
     464:	0905                	addi	s2,s2,1
     466:	06090003          	lb	zero,96(s2)
     46a:	0100                	addi	s0,sp,128
     46c:	0c05                	addi	s8,s8,1
     46e:	04090303          	lb	t1,64(s2)
     472:	0100                	addi	s0,sp,128
     474:	0105                	addi	sp,sp,1
     476:	04090103          	lb	sp,64(s2)
     47a:	0100                	addi	s0,sp,128
     47c:	3305                	addiw	t1,t1,-31
     47e:	0a090603          	lb	a2,160(s2)
     482:	0100                	addi	s0,sp,128
     484:	0b05                	addi	s6,s6,1
     486:	24090203          	lb	tp,576(s2)
     48a:	0100                	addi	s0,sp,128
     48c:	0505                	addi	a0,a0,1
     48e:	04090003          	lb	zero,64(s2)
     492:	0100                	addi	s0,sp,128
     494:	0a05                	addi	s4,s4,1
     496:	02090103          	lb	sp,32(s2)
     49a:	0100                	addi	s0,sp,128
     49c:	0e05                	addi	t3,t3,1
     49e:	0c090003          	lb	zero,192(s2)
     4a2:	0100                	addi	s0,sp,128
     4a4:	0f05                	addi	t5,t5,1 # 1a001 <threadsense.3+0x19ffd>
     4a6:	04090103          	lb	sp,64(s2)
     4aa:	0100                	addi	s0,sp,128
     4ac:	0905                	addi	s2,s2,1
     4ae:	04090003          	lb	zero,64(s2)
     4b2:	0100                	addi	s0,sp,128
     4b4:	1d05                	addi	s10,s10,-31 # 1cfe1 <threadsense.3+0x1cfdd>
     4b6:	02090103          	lb	sp,32(s2)
     4ba:	0100                	addi	s0,sp,128
     4bc:	1405                	addi	s0,s0,-31
     4be:	0c090003          	lb	zero,192(s2)
     4c2:	0100                	addi	s0,sp,128
     4c4:	2b05                	addiw	s6,s6,1
     4c6:	04090003          	lb	zero,64(s2)
     4ca:	0100                	addi	s0,sp,128
     4cc:	1405                	addi	s0,s0,-31
     4ce:	0c090003          	lb	zero,192(s2)
     4d2:	0100                	addi	s0,sp,128
     4d4:	3305                	addiw	t1,t1,-31
     4d6:	02090003          	lb	zero,32(s2)
     4da:	0100                	addi	s0,sp,128
     4dc:	3805                	addiw	a6,a6,-31
     4de:	12090003          	lb	zero,288(s2)
     4e2:	0100                	addi	s0,sp,128
     4e4:	3505                	addiw	a0,a0,-31
     4e6:	08090003          	lb	zero,128(s2)
     4ea:	0100                	addi	s0,sp,128
     4ec:	3105                	addiw	sp,sp,-31
     4ee:	04090003          	lb	zero,64(s2)
     4f2:	0100                	addi	s0,sp,128
     4f4:	1405                	addi	s0,s0,-31
     4f6:	08090003          	lb	zero,128(s2)
     4fa:	0100                	addi	s0,sp,128
     4fc:	0e05                	addi	t3,t3,1
     4fe:	0200                	addi	s0,sp,256
     500:	0104                	addi	s1,sp,128
     502:	0e090003          	lb	zero,224(s2)
     506:	0100                	addi	s0,sp,128
     508:	1405                	addi	s0,s0,-31
     50a:	0200                	addi	s0,sp,256
     50c:	0104                	addi	s1,sp,128
     50e:	0e090003          	lb	zero,224(s2)
     512:	0100                	addi	s0,sp,128
     514:	1205                	addi	tp,tp,-31 # ffffffffffffffe1 <__global_pointer$+0xffffffff7fffd799>
     516:	0200                	addi	s0,sp,256
     518:	0204                	addi	s1,sp,256
     51a:	0a090003          	lb	zero,160(s2)
     51e:	0100                	addi	s0,sp,128
     520:	1905                	addi	s2,s2,-31
     522:	0200                	addi	s0,sp,256
     524:	0304                	addi	s1,sp,384
     526:	02097f03          	.insn	4, 0x02097f03
     52a:	0100                	addi	s0,sp,128
     52c:	1405                	addi	s0,s0,-31
     52e:	0200                	addi	s0,sp,256
     530:	0104                	addi	s1,sp,128
     532:	0a090003          	lb	zero,160(s2)
     536:	0100                	addi	s0,sp,128
     538:	1905                	addi	s2,s2,-31
     53a:	0200                	addi	s0,sp,256
     53c:	0204                	addi	s1,sp,256
     53e:	12097e03          	.insn	4, 0x12097e03
     542:	0100                	addi	s0,sp,128
     544:	1205                	addi	tp,tp,-31 # ffffffffffffffe1 <__global_pointer$+0xffffffff7fffd799>
     546:	0200                	addi	s0,sp,256
     548:	0104                	addi	s1,sp,128
     54a:	0a090003          	lb	zero,160(s2)
     54e:	0100                	addi	s0,sp,128
     550:	1005                	c.nop	-31
     552:	0200                	addi	s0,sp,256
     554:	0104                	addi	s1,sp,128
     556:	10090003          	lb	zero,256(s2)
     55a:	0100                	addi	s0,sp,128
     55c:	0105                	addi	sp,sp,1
     55e:	0a090503          	lb	a0,160(s2)
     562:	0100                	addi	s0,sp,128
     564:	1005                	c.nop	-31
     566:	10090203          	lb	tp,256(s2)
     56a:	0100                	addi	s0,sp,128
     56c:	0d05                	addi	s10,s10,1
     56e:	08090103          	lb	sp,128(s2)
     572:	0100                	addi	s0,sp,128
     574:	0905                	addi	s2,s2,1
     576:	4c091603          	lh	a2,1216(s2)
     57a:	0100                	addi	s0,sp,128
     57c:	14090203          	lb	tp,320(s2)
     580:	0100                	addi	s0,sp,128
     582:	0505                	addi	a0,a0,1
     584:	44091303          	lh	t1,1088(s2)
     588:	0100                	addi	s0,sp,128
     58a:	06090103          	lb	sp,96(s2)
     58e:	0100                	addi	s0,sp,128
     590:	16090103          	lb	sp,352(s2)
     594:	0100                	addi	s0,sp,128
     596:	0e05                	addi	t3,t3,1
     598:	06090103          	lb	sp,96(s2)
     59c:	0100                	addi	s0,sp,128
     59e:	0505                	addi	a0,a0,1
     5a0:	04090003          	lb	zero,64(s2)
     5a4:	0100                	addi	s0,sp,128
     5a6:	0905                	addi	s2,s2,1
     5a8:	02090103          	lb	sp,32(s2)
     5ac:	0100                	addi	s0,sp,128
     5ae:	1a05                	addi	s4,s4,-31
     5b0:	0200                	addi	s0,sp,256
     5b2:	0304                	addi	s1,sp,384
     5b4:	22097f03          	.insn	4, 0x22097f03
     5b8:	0100                	addi	s0,sp,128
     5ba:	1405                	addi	s0,s0,-31
     5bc:	0200                	addi	s0,sp,256
     5be:	0104                	addi	s1,sp,128
     5c0:	0a090003          	lb	zero,160(s2)
     5c4:	0100                	addi	s0,sp,128
     5c6:	0c05                	addi	s8,s8,1
     5c8:	0e090303          	lb	t1,224(s2)
     5cc:	0100                	addi	s0,sp,128
     5ce:	0105                	addi	sp,sp,1
     5d0:	14090203          	lb	tp,320(s2)
     5d4:	0100                	addi	s0,sp,128
     5d6:	0a09                	addi	s4,s4,2
     5d8:	0000                	unimp
     5da:	0101                	addi	sp,sp,0
     5dc:	03f4                	addi	a3,sp,460
     5de:	0000                	unimp
     5e0:	0002                	c.slli64	zero
     5e2:	0020                	addi	s0,sp,8
     5e4:	0000                	unimp
     5e6:	0101                	addi	sp,sp,0
     5e8:	000a0efb          	.insn	4, 0x000a0efb
     5ec:	0101                	addi	sp,sp,0
     5ee:	0101                	addi	sp,sp,0
     5f0:	0000                	unimp
     5f2:	0100                	addi	s0,sp,128
     5f4:	6d6d6f63          	bltu	s10,s6,cd2 <threadsense.3+0xcce>
     5f8:	00006e6f          	jal	t3,65f8 <threadsense.3+0x65f4>
     5fc:	2e747263          	bgeu	s0,t2,8e0 <threadsense.3+0x8dc>
     600:	00010053          	fadd.s	ft0,ft2,ft0,rne
     604:	0000                	unimp
     606:	0900                	addi	s0,sp,144
     608:	0002                	c.slli64	zero
     60a:	0000                	unimp
     60c:	0080                	addi	s0,sp,64
     60e:	0000                	unimp
     610:	0300                	addi	s0,sp,384
     612:	0111                	addi	sp,sp,4
     614:	02090103          	lb	sp,32(s2)
     618:	0100                	addi	s0,sp,128
     61a:	02090103          	lb	sp,32(s2)
     61e:	0100                	addi	s0,sp,128
     620:	02090103          	lb	sp,32(s2)
     624:	0100                	addi	s0,sp,128
     626:	02090103          	lb	sp,32(s2)
     62a:	0100                	addi	s0,sp,128
     62c:	02090103          	lb	sp,32(s2)
     630:	0100                	addi	s0,sp,128
     632:	02090103          	lb	sp,32(s2)
     636:	0100                	addi	s0,sp,128
     638:	02090103          	lb	sp,32(s2)
     63c:	0100                	addi	s0,sp,128
     63e:	02090103          	lb	sp,32(s2)
     642:	0100                	addi	s0,sp,128
     644:	02090103          	lb	sp,32(s2)
     648:	0100                	addi	s0,sp,128
     64a:	02090103          	lb	sp,32(s2)
     64e:	0100                	addi	s0,sp,128
     650:	02090103          	lb	sp,32(s2)
     654:	0100                	addi	s0,sp,128
     656:	02090103          	lb	sp,32(s2)
     65a:	0100                	addi	s0,sp,128
     65c:	02090103          	lb	sp,32(s2)
     660:	0100                	addi	s0,sp,128
     662:	02090103          	lb	sp,32(s2)
     666:	0100                	addi	s0,sp,128
     668:	02090103          	lb	sp,32(s2)
     66c:	0100                	addi	s0,sp,128
     66e:	02090103          	lb	sp,32(s2)
     672:	0100                	addi	s0,sp,128
     674:	02090103          	lb	sp,32(s2)
     678:	0100                	addi	s0,sp,128
     67a:	02090103          	lb	sp,32(s2)
     67e:	0100                	addi	s0,sp,128
     680:	02090103          	lb	sp,32(s2)
     684:	0100                	addi	s0,sp,128
     686:	02090103          	lb	sp,32(s2)
     68a:	0100                	addi	s0,sp,128
     68c:	02090103          	lb	sp,32(s2)
     690:	0100                	addi	s0,sp,128
     692:	02090103          	lb	sp,32(s2)
     696:	0100                	addi	s0,sp,128
     698:	02090103          	lb	sp,32(s2)
     69c:	0100                	addi	s0,sp,128
     69e:	02090103          	lb	sp,32(s2)
     6a2:	0100                	addi	s0,sp,128
     6a4:	02090103          	lb	sp,32(s2)
     6a8:	0100                	addi	s0,sp,128
     6aa:	02090103          	lb	sp,32(s2)
     6ae:	0100                	addi	s0,sp,128
     6b0:	02090103          	lb	sp,32(s2)
     6b4:	0100                	addi	s0,sp,128
     6b6:	02090103          	lb	sp,32(s2)
     6ba:	0100                	addi	s0,sp,128
     6bc:	02090103          	lb	sp,32(s2)
     6c0:	0100                	addi	s0,sp,128
     6c2:	02090103          	lb	sp,32(s2)
     6c6:	0100                	addi	s0,sp,128
     6c8:	02090303          	lb	t1,32(s2)
     6cc:	0100                	addi	s0,sp,128
     6ce:	02090103          	lb	sp,32(s2)
     6d2:	0100                	addi	s0,sp,128
     6d4:	04090303          	lb	t1,64(s2)
     6d8:	0100                	addi	s0,sp,128
     6da:	02090103          	lb	sp,32(s2)
     6de:	0100                	addi	s0,sp,128
     6e0:	02090203          	lb	tp,32(s2)
     6e4:	0100                	addi	s0,sp,128
     6e6:	04090503          	lb	a0,64(s2)
     6ea:	0100                	addi	s0,sp,128
     6ec:	02090103          	lb	sp,32(s2)
     6f0:	0100                	addi	s0,sp,128
     6f2:	08090103          	lb	sp,128(s2)
     6f6:	0100                	addi	s0,sp,128
     6f8:	02090503          	lb	a0,32(s2)
     6fc:	0100                	addi	s0,sp,128
     6fe:	08090103          	lb	sp,128(s2)
     702:	0100                	addi	s0,sp,128
     704:	04090203          	lb	tp,64(s2)
     708:	0100                	addi	s0,sp,128
     70a:	04090103          	lb	sp,64(s2)
     70e:	0100                	addi	s0,sp,128
     710:	04090103          	lb	sp,64(s2)
     714:	0100                	addi	s0,sp,128
     716:	04090103          	lb	sp,64(s2)
     71a:	0100                	addi	s0,sp,128
     71c:	04090103          	lb	sp,64(s2)
     720:	0100                	addi	s0,sp,128
     722:	04090103          	lb	sp,64(s2)
     726:	0100                	addi	s0,sp,128
     728:	04090103          	lb	sp,64(s2)
     72c:	0100                	addi	s0,sp,128
     72e:	04090103          	lb	sp,64(s2)
     732:	0100                	addi	s0,sp,128
     734:	04090103          	lb	sp,64(s2)
     738:	0100                	addi	s0,sp,128
     73a:	04090103          	lb	sp,64(s2)
     73e:	0100                	addi	s0,sp,128
     740:	04090103          	lb	sp,64(s2)
     744:	0100                	addi	s0,sp,128
     746:	04090103          	lb	sp,64(s2)
     74a:	0100                	addi	s0,sp,128
     74c:	04090103          	lb	sp,64(s2)
     750:	0100                	addi	s0,sp,128
     752:	04090103          	lb	sp,64(s2)
     756:	0100                	addi	s0,sp,128
     758:	04090103          	lb	sp,64(s2)
     75c:	0100                	addi	s0,sp,128
     75e:	04090103          	lb	sp,64(s2)
     762:	0100                	addi	s0,sp,128
     764:	04090103          	lb	sp,64(s2)
     768:	0100                	addi	s0,sp,128
     76a:	04090103          	lb	sp,64(s2)
     76e:	0100                	addi	s0,sp,128
     770:	04090103          	lb	sp,64(s2)
     774:	0100                	addi	s0,sp,128
     776:	04090103          	lb	sp,64(s2)
     77a:	0100                	addi	s0,sp,128
     77c:	04090103          	lb	sp,64(s2)
     780:	0100                	addi	s0,sp,128
     782:	04090103          	lb	sp,64(s2)
     786:	0100                	addi	s0,sp,128
     788:	04090103          	lb	sp,64(s2)
     78c:	0100                	addi	s0,sp,128
     78e:	04090103          	lb	sp,64(s2)
     792:	0100                	addi	s0,sp,128
     794:	04090103          	lb	sp,64(s2)
     798:	0100                	addi	s0,sp,128
     79a:	04090103          	lb	sp,64(s2)
     79e:	0100                	addi	s0,sp,128
     7a0:	04090103          	lb	sp,64(s2)
     7a4:	0100                	addi	s0,sp,128
     7a6:	04090103          	lb	sp,64(s2)
     7aa:	0100                	addi	s0,sp,128
     7ac:	04090103          	lb	sp,64(s2)
     7b0:	0100                	addi	s0,sp,128
     7b2:	04090103          	lb	sp,64(s2)
     7b6:	0100                	addi	s0,sp,128
     7b8:	04090103          	lb	sp,64(s2)
     7bc:	0100                	addi	s0,sp,128
     7be:	04090103          	lb	sp,64(s2)
     7c2:	0100                	addi	s0,sp,128
     7c4:	04090103          	lb	sp,64(s2)
     7c8:	0100                	addi	s0,sp,128
     7ca:	04090503          	lb	a0,64(s2)
     7ce:	0100                	addi	s0,sp,128
     7d0:	08090103          	lb	sp,128(s2)
     7d4:	0100                	addi	s0,sp,128
     7d6:	04090503          	lb	a0,64(s2)
     7da:	0100                	addi	s0,sp,128
     7dc:	08090303          	lb	t1,128(s2)
     7e0:	0100                	addi	s0,sp,128
     7e2:	04090103          	lb	sp,64(s2)
     7e6:	0100                	addi	s0,sp,128
     7e8:	04090303          	lb	t1,64(s2)
     7ec:	0100                	addi	s0,sp,128
     7ee:	04090203          	lb	tp,64(s2)
     7f2:	0100                	addi	s0,sp,128
     7f4:	02090103          	lb	sp,32(s2)
     7f8:	0100                	addi	s0,sp,128
     7fa:	04090403          	lb	s0,64(s2)
     7fe:	0100                	addi	s0,sp,128
     800:	04090103          	lb	sp,64(s2)
     804:	0100                	addi	s0,sp,128
     806:	02090103          	lb	sp,32(s2)
     80a:	0100                	addi	s0,sp,128
     80c:	02090103          	lb	sp,32(s2)
     810:	0100                	addi	s0,sp,128
     812:	04090103          	lb	sp,64(s2)
     816:	0100                	addi	s0,sp,128
     818:	02090203          	lb	tp,32(s2)
     81c:	0100                	addi	s0,sp,128
     81e:	04090403          	lb	s0,64(s2)
     822:	0100                	addi	s0,sp,128
     824:	02090203          	lb	tp,32(s2)
     828:	0100                	addi	s0,sp,128
     82a:	02090103          	lb	sp,32(s2)
     82e:	0100                	addi	s0,sp,128
     830:	02090103          	lb	sp,32(s2)
     834:	0100                	addi	s0,sp,128
     836:	02090103          	lb	sp,32(s2)
     83a:	0100                	addi	s0,sp,128
     83c:	02090103          	lb	sp,32(s2)
     840:	0100                	addi	s0,sp,128
     842:	02090103          	lb	sp,32(s2)
     846:	0100                	addi	s0,sp,128
     848:	02090103          	lb	sp,32(s2)
     84c:	0100                	addi	s0,sp,128
     84e:	02090103          	lb	sp,32(s2)
     852:	0100                	addi	s0,sp,128
     854:	02090103          	lb	sp,32(s2)
     858:	0100                	addi	s0,sp,128
     85a:	02090103          	lb	sp,32(s2)
     85e:	0100                	addi	s0,sp,128
     860:	02090103          	lb	sp,32(s2)
     864:	0100                	addi	s0,sp,128
     866:	02090103          	lb	sp,32(s2)
     86a:	0100                	addi	s0,sp,128
     86c:	02090103          	lb	sp,32(s2)
     870:	0100                	addi	s0,sp,128
     872:	02090103          	lb	sp,32(s2)
     876:	0100                	addi	s0,sp,128
     878:	02090103          	lb	sp,32(s2)
     87c:	0100                	addi	s0,sp,128
     87e:	02090103          	lb	sp,32(s2)
     882:	0100                	addi	s0,sp,128
     884:	02090103          	lb	sp,32(s2)
     888:	0100                	addi	s0,sp,128
     88a:	02090103          	lb	sp,32(s2)
     88e:	0100                	addi	s0,sp,128
     890:	02090103          	lb	sp,32(s2)
     894:	0100                	addi	s0,sp,128
     896:	02090103          	lb	sp,32(s2)
     89a:	0100                	addi	s0,sp,128
     89c:	02090103          	lb	sp,32(s2)
     8a0:	0100                	addi	s0,sp,128
     8a2:	02090103          	lb	sp,32(s2)
     8a6:	0100                	addi	s0,sp,128
     8a8:	02090103          	lb	sp,32(s2)
     8ac:	0100                	addi	s0,sp,128
     8ae:	02090103          	lb	sp,32(s2)
     8b2:	0100                	addi	s0,sp,128
     8b4:	02090103          	lb	sp,32(s2)
     8b8:	0100                	addi	s0,sp,128
     8ba:	02090103          	lb	sp,32(s2)
     8be:	0100                	addi	s0,sp,128
     8c0:	02090103          	lb	sp,32(s2)
     8c4:	0100                	addi	s0,sp,128
     8c6:	02090103          	lb	sp,32(s2)
     8ca:	0100                	addi	s0,sp,128
     8cc:	02090103          	lb	sp,32(s2)
     8d0:	0100                	addi	s0,sp,128
     8d2:	02090103          	lb	sp,32(s2)
     8d6:	0100                	addi	s0,sp,128
     8d8:	02090103          	lb	sp,32(s2)
     8dc:	0100                	addi	s0,sp,128
     8de:	02090203          	lb	tp,32(s2)
     8e2:	0100                	addi	s0,sp,128
     8e4:	04090103          	lb	sp,64(s2)
     8e8:	0100                	addi	s0,sp,128
     8ea:	04090103          	lb	sp,64(s2)
     8ee:	0100                	addi	s0,sp,128
     8f0:	02090103          	lb	sp,32(s2)
     8f4:	0100                	addi	s0,sp,128
     8f6:	04090103          	lb	sp,64(s2)
     8fa:	0100                	addi	s0,sp,128
     8fc:	04090303          	lb	t1,64(s2)
     900:	0100                	addi	s0,sp,128
     902:	06090103          	lb	sp,96(s2)
     906:	0100                	addi	s0,sp,128
     908:	04090203          	lb	tp,64(s2)
     90c:	0100                	addi	s0,sp,128
     90e:	02090103          	lb	sp,32(s2)
     912:	0100                	addi	s0,sp,128
     914:	02090103          	lb	sp,32(s2)
     918:	0100                	addi	s0,sp,128
     91a:	02090103          	lb	sp,32(s2)
     91e:	0100                	addi	s0,sp,128
     920:	02090103          	lb	sp,32(s2)
     924:	0100                	addi	s0,sp,128
     926:	02090103          	lb	sp,32(s2)
     92a:	0100                	addi	s0,sp,128
     92c:	02090103          	lb	sp,32(s2)
     930:	0100                	addi	s0,sp,128
     932:	02090103          	lb	sp,32(s2)
     936:	0100                	addi	s0,sp,128
     938:	02090103          	lb	sp,32(s2)
     93c:	0100                	addi	s0,sp,128
     93e:	02090103          	lb	sp,32(s2)
     942:	0100                	addi	s0,sp,128
     944:	02090103          	lb	sp,32(s2)
     948:	0100                	addi	s0,sp,128
     94a:	02090103          	lb	sp,32(s2)
     94e:	0100                	addi	s0,sp,128
     950:	02090103          	lb	sp,32(s2)
     954:	0100                	addi	s0,sp,128
     956:	02090103          	lb	sp,32(s2)
     95a:	0100                	addi	s0,sp,128
     95c:	02090103          	lb	sp,32(s2)
     960:	0100                	addi	s0,sp,128
     962:	02090103          	lb	sp,32(s2)
     966:	0100                	addi	s0,sp,128
     968:	02090103          	lb	sp,32(s2)
     96c:	0100                	addi	s0,sp,128
     96e:	02090103          	lb	sp,32(s2)
     972:	0100                	addi	s0,sp,128
     974:	02090103          	lb	sp,32(s2)
     978:	0100                	addi	s0,sp,128
     97a:	02090103          	lb	sp,32(s2)
     97e:	0100                	addi	s0,sp,128
     980:	02090103          	lb	sp,32(s2)
     984:	0100                	addi	s0,sp,128
     986:	02090103          	lb	sp,32(s2)
     98a:	0100                	addi	s0,sp,128
     98c:	02090103          	lb	sp,32(s2)
     990:	0100                	addi	s0,sp,128
     992:	02090103          	lb	sp,32(s2)
     996:	0100                	addi	s0,sp,128
     998:	02090103          	lb	sp,32(s2)
     99c:	0100                	addi	s0,sp,128
     99e:	02090103          	lb	sp,32(s2)
     9a2:	0100                	addi	s0,sp,128
     9a4:	02090103          	lb	sp,32(s2)
     9a8:	0100                	addi	s0,sp,128
     9aa:	02090103          	lb	sp,32(s2)
     9ae:	0100                	addi	s0,sp,128
     9b0:	02090103          	lb	sp,32(s2)
     9b4:	0100                	addi	s0,sp,128
     9b6:	02090103          	lb	sp,32(s2)
     9ba:	0100                	addi	s0,sp,128
     9bc:	02090103          	lb	sp,32(s2)
     9c0:	0100                	addi	s0,sp,128
     9c2:	02090203          	lb	tp,32(s2)
     9c6:	0100                	addi	s0,sp,128
     9c8:	02090103          	lb	sp,32(s2)
     9cc:	0100                	addi	s0,sp,128
     9ce:	0409                	addi	s0,s0,2
     9d0:	0000                	unimp
     9d2:	0101                	addi	sp,sp,0
     9d4:	11fa                	slli	gp,gp,0x3e
     9d6:	0000                	unimp
     9d8:	0002                	c.slli64	zero
     9da:	0136                	slli	sp,sp,0xd
     9dc:	0000                	unimp
     9de:	0101                	addi	sp,sp,0
     9e0:	000a0efb          	.insn	4, 0x000a0efb
     9e4:	0101                	addi	sp,sp,0
     9e6:	0101                	addi	sp,sp,0
     9e8:	0000                	unimp
     9ea:	0100                	addi	s0,sp,128
     9ec:	6d6d6f63          	bltu	s10,s6,10ca <threadsense.3+0x10c6>
     9f0:	2f006e6f          	jal	t3,6ce0 <threadsense.3+0x6cdc>
     9f4:	2f74706f          	j	484ea <threadsense.3+0x484e6>
     9f8:	6972                	ld	s2,280(sp)
     9fa:	2f766373          	csrrsi	t1,0x2f7,12
     9fe:	6972                	ld	s2,280(sp)
     a00:	36766373          	csrrsi	t1,0x367,12
     a04:	2d34                	fld	fa3,88(a0)
     a06:	6e75                	lui	t3,0x1d
     a08:	776f6e6b          	.insn	4, 0x776f6e6b
     a0c:	2d6e                	fld	fs10,216(sp)
     a0e:	6c65                	lui	s8,0x19
     a10:	2f66                	fld	ft10,88(sp)
     a12:	6e69                	lui	t3,0x1a
     a14:	64756c63          	bltu	a0,t2,106c <threadsense.3+0x1068>
     a18:	0065                	c.nop	25
     a1a:	74706f2f          	.insn	4, 0x74706f2f
     a1e:	7369722f          	.insn	4, 0x7369722f
     a22:	722f7663          	bgeu	t5,sp,114e <threadsense.3+0x114a>
     a26:	7369                	lui	t1,0xffffa
     a28:	34367663          	bgeu	a2,gp,d74 <threadsense.3+0xd70>
     a2c:	752d                	lui	a0,0xfffeb
     a2e:	6b6e                	ld	s6,216(sp)
     a30:	6f6e                	ld	t5,216(sp)
     a32:	652d6e77          	.insn	4, 0x652d6e77
     a36:	666c                	ld	a1,200(a2)
     a38:	636e692f          	.insn	4, 0x636e692f
     a3c:	756c                	ld	a1,232(a0)
     a3e:	6564                	ld	s1,200(a0)
     a40:	63616d2f          	.insn	4, 0x63616d2f
     a44:	6968                	ld	a0,208(a0)
     a46:	656e                	ld	a0,216(sp)
     a48:	2f00                	fld	fs0,24(a4)
     a4a:	2f74706f          	j	48540 <threadsense.3+0x4853c>
     a4e:	6972                	ld	s2,280(sp)
     a50:	2f766373          	csrrsi	t1,0x2f7,12
     a54:	6972                	ld	s2,280(sp)
     a56:	36766373          	csrrsi	t1,0x367,12
     a5a:	2d34                	fld	fa3,88(a0)
     a5c:	6e75                	lui	t3,0x1d
     a5e:	776f6e6b          	.insn	4, 0x776f6e6b
     a62:	2d6e                	fld	fs10,216(sp)
     a64:	6c65                	lui	s8,0x19
     a66:	2f66                	fld	ft10,88(sp)
     a68:	6e69                	lui	t3,0x1a
     a6a:	64756c63          	bltu	a0,t2,10c2 <threadsense.3+0x10be>
     a6e:	2f65                	addiw	t5,t5,25
     a70:	00737973          	csrrci	s2,0x7,6
     a74:	74706f2f          	.insn	4, 0x74706f2f
     a78:	7369722f          	.insn	4, 0x7369722f
     a7c:	6c2f7663          	bgeu	t5,sp,1148 <threadsense.3+0x1144>
     a80:	6269                	lui	tp,0x1a
     a82:	6363672f          	.insn	4, 0x6363672f
     a86:	7369722f          	.insn	4, 0x7369722f
     a8a:	34367663          	bgeu	a2,gp,dd6 <threadsense.3+0xdd2>
     a8e:	752d                	lui	a0,0xfffeb
     a90:	6b6e                	ld	s6,216(sp)
     a92:	6f6e                	ld	t5,216(sp)
     a94:	652d6e77          	.insn	4, 0x652d6e77
     a98:	666c                	ld	a1,200(a2)
     a9a:	2e34312f          	.insn	4, 0x2e34312f
     a9e:	2e32                	fld	ft8,264(sp)
     aa0:	2f30                	fld	fa2,88(a4)
     aa2:	6e69                	lui	t3,0x1a
     aa4:	64756c63          	bltu	a0,t2,10fc <threadsense.3+0x10f8>
     aa8:	0065                	c.nop	25
     aaa:	7300                	ld	s0,32(a4)
     aac:	7379                	lui	t1,0xffffe
     aae:	6c6c6163          	bltu	s8,t1,1170 <threadsense.3+0x116c>
     ab2:	00632e73          	csrrs	t3,0x6,t1
     ab6:	0001                	nop
     ab8:	7500                	ld	s0,40(a0)
     aba:	6974                	ld	a3,208(a0)
     abc:	2e6c                	fld	fa1,216(a2)
     abe:	0068                	addi	a0,sp,12
     ac0:	0001                	nop
     ac2:	7300                	ld	s0,32(a4)
     ac4:	6474                	ld	a3,200(s0)
     ac6:	6f69                	lui	t5,0x1a
     ac8:	682e                	ld	a6,200(sp)
     aca:	0200                	addi	s0,sp,256
     acc:	0000                	unimp
     ace:	645f 6665 7561      	.insn	6, 0x75616665645f
     ad4:	746c                	ld	a1,232(s0)
     ad6:	745f 7079 7365      	.insn	6, 0x73657079745f
     adc:	682e                	ld	a6,200(sp)
     ade:	0300                	addi	s0,sp,384
     ae0:	0000                	unimp
     ae2:	735f 6474 6e69      	.insn	6, 0x6e696474735f
     ae8:	2e74                	fld	fa3,216(a2)
     aea:	0068                	addi	a0,sp,12
     aec:	0004                	.insn	2, 0x0004
     aee:	7300                	ld	s0,32(a4)
     af0:	6474                	ld	a3,200(s0)
     af2:	6564                	ld	s1,200(a0)
     af4:	2e66                	fld	ft8,88(sp)
     af6:	0068                	addi	a0,sp,12
     af8:	0005                	c.nop	1
     afa:	7300                	ld	s0,32(a4)
     afc:	6474                	ld	a3,200(s0)
     afe:	7261                	lui	tp,0xffff8
     b00:	00682e67          	.insn	4, 0x00682e67
     b04:	0005                	c.nop	1
     b06:	7300                	ld	s0,32(a4)
     b08:	7274                	ld	a3,224(a2)
     b0a:	6e69                	lui	t3,0x1a
     b0c:	00682e67          	.insn	4, 0x00682e67
     b10:	0002                	c.slli64	zero
     b12:	0000                	unimp
     b14:	0204                	addi	s1,sp,256
     b16:	0105                	addi	sp,sp,1
     b18:	0900                	addi	s0,sp,144
     b1a:	7002                	.insn	2, 0x7002
     b1c:	00800007          	.insn	4, 0x00800007
     b20:	0000                	unimp
     b22:	0300                	addi	s0,sp,384
     b24:	010c                	addi	a1,sp,128
     b26:	0a05                	addi	s4,s4,1
     b28:	16090303          	lb	t1,352(s2)
     b2c:	0100                	addi	s0,sp,128
     b2e:	0305                	addi	t1,t1,1 # ffffffffffffe001 <__global_pointer$+0xffffffff7fffb7b9>
     b30:	04090003          	lb	zero,64(s2)
     b34:	0100                	addi	s0,sp,128
     b36:	1205                	addi	tp,tp,-31 # ffffffffffff7fe1 <__global_pointer$+0xffffffff7fff5799>
     b38:	02090203          	lb	tp,32(s2)
     b3c:	0100                	addi	s0,sp,128
     b3e:	0905                	addi	s2,s2,1
     b40:	0c090003          	lb	zero,192(s2)
     b44:	0100                	addi	s0,sp,128
     b46:	2005                	.insn	2, 0x2005
     b48:	06090003          	lb	zero,96(s2)
     b4c:	0100                	addi	s0,sp,128
     b4e:	1705                	addi	a4,a4,-31 # fffffffffffebfe1 <__global_pointer$+0xffffffff7ffe9799>
     b50:	0e090003          	lb	zero,224(s2)
     b54:	0100                	addi	s0,sp,128
     b56:	1405                	addi	s0,s0,-31
     b58:	06090103          	lb	sp,96(s2)
     b5c:	0100                	addi	s0,sp,128
     b5e:	0905                	addi	s2,s2,1
     b60:	0c090003          	lb	zero,192(s2)
     b64:	0100                	addi	s0,sp,128
     b66:	2405                	addiw	s0,s0,1
     b68:	06090003          	lb	zero,96(s2)
     b6c:	0100                	addi	s0,sp,128
     b6e:	1905                	addi	s2,s2,-31
     b70:	0e090003          	lb	zero,224(s2)
     b74:	0100                	addi	s0,sp,128
     b76:	0805                	addi	a6,a6,1
     b78:	06090103          	lb	sp,96(s2)
     b7c:	0100                	addi	s0,sp,128
     b7e:	1b05                	addi	s6,s6,-31
     b80:	0200                	addi	s0,sp,256
     b82:	0104                	addi	s1,sp,128
     b84:	12090003          	lb	zero,288(s2)
     b88:	0100                	addi	s0,sp,128
     b8a:	0306                	slli	t1,t1,0x1
     b8c:	0900                	addi	s0,sp,144
     b8e:	0008                	.insn	2, 0x0008
     b90:	0501                	addi	a0,a0,0 # fffffffffffeb000 <__global_pointer$+0xffffffff7ffe87b8>
     b92:	0608                	addi	a0,sp,768
     b94:	02090103          	lb	sp,32(s2)
     b98:	0100                	addi	s0,sp,128
     b9a:	1b05                	addi	s6,s6,-31
     b9c:	0200                	addi	s0,sp,256
     b9e:	0104                	addi	s1,sp,128
     ba0:	12090003          	lb	zero,288(s2)
     ba4:	0100                	addi	s0,sp,128
     ba6:	0306                	slli	t1,t1,0x1
     ba8:	0900                	addi	s0,sp,144
     baa:	0008                	.insn	2, 0x0008
     bac:	0001                	nop
     bae:	0402                	c.slli64	s0
     bb0:	0602                	c.slli64	a2
     bb2:	02097b03          	.insn	4, 0x02097b03
     bb6:	0100                	addi	s0,sp,128
     bb8:	1405                	addi	s0,s0,-31
     bba:	0200                	addi	s0,sp,256
     bbc:	0104                	addi	s1,sp,128
     bbe:	0a090003          	lb	zero,160(s2)
     bc2:	0100                	addi	s0,sp,128
     bc4:	1605                	addi	a2,a2,-31
     bc6:	0200                	addi	s0,sp,256
     bc8:	0104                	addi	s1,sp,128
     bca:	10090003          	lb	zero,256(s2)
     bce:	0100                	addi	s0,sp,128
     bd0:	1105                	addi	sp,sp,-31
     bd2:	0200                	addi	s0,sp,256
     bd4:	0104                	addi	s1,sp,128
     bd6:	06090003          	lb	zero,96(s2)
     bda:	0100                	addi	s0,sp,128
     bdc:	0d05                	addi	s10,s10,1
     bde:	0a090703          	lb	a4,160(s2)
     be2:	0100                	addi	s0,sp,128
     be4:	0605                	addi	a2,a2,1
     be6:	08090003          	lb	zero,128(s2)
     bea:	0100                	addi	s0,sp,128
     bec:	1905                	addi	s2,s2,-31
     bee:	0200                	addi	s0,sp,256
     bf0:	0104                	addi	s1,sp,128
     bf2:	02090003          	lb	zero,32(s2)
     bf6:	0100                	addi	s0,sp,128
     bf8:	2805                	addiw	a6,a6,1
     bfa:	0200                	addi	s0,sp,256
     bfc:	0104                	addi	s1,sp,128
     bfe:	14090003          	lb	zero,320(s2)
     c02:	0100                	addi	s0,sp,128
     c04:	1f05                	addi	t5,t5,-31 # 19fe1 <threadsense.3+0x19fdd>
     c06:	0200                	addi	s0,sp,256
     c08:	0104                	addi	s1,sp,128
     c0a:	0e090003          	lb	zero,224(s2)
     c0e:	0100                	addi	s0,sp,128
     c10:	1205                	addi	tp,tp,-31 # ffffffffffffffe1 <__global_pointer$+0xffffffff7fffd799>
     c12:	0200                	addi	s0,sp,256
     c14:	0104                	addi	s1,sp,128
     c16:	02090003          	lb	zero,32(s2)
     c1a:	0100                	addi	s0,sp,128
     c1c:	0c05                	addi	s8,s8,1 # 19001 <threadsense.3+0x18ffd>
     c1e:	04090103          	lb	sp,64(s2)
     c22:	0100                	addi	s0,sp,128
     c24:	0a05                	addi	s4,s4,1
     c26:	06090103          	lb	sp,96(s2)
     c2a:	0100                	addi	s0,sp,128
     c2c:	0105                	addi	sp,sp,1
     c2e:	02090103          	lb	sp,32(s2)
     c32:	0100                	addi	s0,sp,128
     c34:	0a090303          	lb	t1,160(s2)
     c38:	0100                	addi	s0,sp,128
     c3a:	0a05                	addi	s4,s4,1
     c3c:	16090303          	lb	t1,352(s2)
     c40:	0100                	addi	s0,sp,128
     c42:	0305                	addi	t1,t1,1
     c44:	04090003          	lb	zero,64(s2)
     c48:	0100                	addi	s0,sp,128
     c4a:	1505                	addi	a0,a0,-31
     c4c:	02090203          	lb	tp,32(s2)
     c50:	0100                	addi	s0,sp,128
     c52:	0c05                	addi	s8,s8,1
     c54:	0c090003          	lb	zero,192(s2)
     c58:	0100                	addi	s0,sp,128
     c5a:	2305                	addiw	t1,t1,1
     c5c:	06090003          	lb	zero,96(s2)
     c60:	0100                	addi	s0,sp,128
     c62:	1a05                	addi	s4,s4,-31
     c64:	0e090003          	lb	zero,224(s2)
     c68:	0100                	addi	s0,sp,128
     c6a:	1705                	addi	a4,a4,-31
     c6c:	06090103          	lb	sp,96(s2)
     c70:	0100                	addi	s0,sp,128
     c72:	0c05                	addi	s8,s8,1
     c74:	0c090003          	lb	zero,192(s2)
     c78:	0100                	addi	s0,sp,128
     c7a:	2705                	addiw	a4,a4,1
     c7c:	06090003          	lb	zero,96(s2)
     c80:	0100                	addi	s0,sp,128
     c82:	1c05                	addi	s8,s8,-31
     c84:	0e090003          	lb	zero,224(s2)
     c88:	0100                	addi	s0,sp,128
     c8a:	1205                	addi	tp,tp,-31 # ffffffffffffffe1 <__global_pointer$+0xffffffff7fffd799>
     c8c:	06090103          	lb	sp,96(s2)
     c90:	0100                	addi	s0,sp,128
     c92:	0905                	addi	s2,s2,1
     c94:	10090003          	lb	zero,256(s2)
     c98:	0100                	addi	s0,sp,128
     c9a:	2205                	addiw	tp,tp,1 # 1 <threadsense.2+0x1>
     c9c:	04090003          	lb	zero,64(s2)
     ca0:	0100                	addi	s0,sp,128
     ca2:	1905                	addi	s2,s2,-31
     ca4:	10090003          	lb	zero,256(s2)
     ca8:	0100                	addi	s0,sp,128
     caa:	0f05                	addi	t5,t5,1
     cac:	04090103          	lb	sp,64(s2)
     cb0:	0100                	addi	s0,sp,128
     cb2:	0805                	addi	a6,a6,1
     cb4:	0e090003          	lb	zero,224(s2)
     cb8:	0100                	addi	s0,sp,128
     cba:	1f05                	addi	t5,t5,-31
     cbc:	0200                	addi	s0,sp,256
     cbe:	0104                	addi	s1,sp,128
     cc0:	02090003          	lb	zero,32(s2)
     cc4:	0100                	addi	s0,sp,128
     cc6:	2105                	addiw	sp,sp,1
     cc8:	0200                	addi	s0,sp,256
     cca:	0104                	addi	s1,sp,128
     ccc:	08090003          	lb	zero,128(s2)
     cd0:	0100                	addi	s0,sp,128
     cd2:	0306                	slli	t1,t1,0x1
     cd4:	0900                	addi	s0,sp,144
     cd6:	0008                	.insn	2, 0x0008
     cd8:	0501                	addi	a0,a0,0
     cda:	0402001b          	addiw	zero,tp,64 # 40 <threadsense.3+0x3c>
     cde:	0602                	c.slli64	a2
     ce0:	02097b03          	.insn	4, 0x02097b03
     ce4:	0100                	addi	s0,sp,128
     ce6:	1405                	addi	s0,s0,-31
     ce8:	0200                	addi	s0,sp,256
     cea:	0104                	addi	s1,sp,128
     cec:	0a090003          	lb	zero,160(s2)
     cf0:	0100                	addi	s0,sp,128
     cf2:	1605                	addi	a2,a2,-31
     cf4:	0200                	addi	s0,sp,256
     cf6:	0104                	addi	s1,sp,128
     cf8:	10090003          	lb	zero,256(s2)
     cfc:	0100                	addi	s0,sp,128
     cfe:	1105                	addi	sp,sp,-31
     d00:	0200                	addi	s0,sp,256
     d02:	0104                	addi	s1,sp,128
     d04:	06090003          	lb	zero,96(s2)
     d08:	0100                	addi	s0,sp,128
     d0a:	0d05                	addi	s10,s10,1
     d0c:	0a090703          	lb	a4,160(s2)
     d10:	0100                	addi	s0,sp,128
     d12:	0605                	addi	a2,a2,1
     d14:	08090003          	lb	zero,128(s2)
     d18:	0100                	addi	s0,sp,128
     d1a:	1905                	addi	s2,s2,-31
     d1c:	0200                	addi	s0,sp,256
     d1e:	0104                	addi	s1,sp,128
     d20:	02090003          	lb	zero,32(s2)
     d24:	0100                	addi	s0,sp,128
     d26:	2805                	addiw	a6,a6,1
     d28:	0200                	addi	s0,sp,256
     d2a:	0104                	addi	s1,sp,128
     d2c:	10090003          	lb	zero,256(s2)
     d30:	0100                	addi	s0,sp,128
     d32:	1205                	addi	tp,tp,-31 # ffffffffffffffe1 <__global_pointer$+0xffffffff7fffd799>
     d34:	0200                	addi	s0,sp,256
     d36:	0104                	addi	s1,sp,128
     d38:	10090003          	lb	zero,256(s2)
     d3c:	0100                	addi	s0,sp,128
     d3e:	0c05                	addi	s8,s8,1
     d40:	06090103          	lb	sp,96(s2)
     d44:	0100                	addi	s0,sp,128
     d46:	0a05                	addi	s4,s4,1
     d48:	06090103          	lb	sp,96(s2)
     d4c:	0100                	addi	s0,sp,128
     d4e:	0105                	addi	sp,sp,1
     d50:	02090103          	lb	sp,32(s2)
     d54:	0100                	addi	s0,sp,128
     d56:	0a090303          	lb	t1,160(s2)
     d5a:	0100                	addi	s0,sp,128
     d5c:	0305                	addi	t1,t1,1
     d5e:	0e090503          	lb	a0,224(s2)
     d62:	0100                	addi	s0,sp,128
     d64:	1105                	addi	sp,sp,-31
     d66:	04090203          	lb	tp,64(s2)
     d6a:	0100                	addi	s0,sp,128
     d6c:	0f05                	addi	t5,t5,1
     d6e:	10090003          	lb	zero,256(s2)
     d72:	0100                	addi	s0,sp,128
     d74:	0705                	addi	a4,a4,1
     d76:	04090103          	lb	sp,64(s2)
     d7a:	0100                	addi	s0,sp,128
     d7c:	0200                	addi	s0,sp,256
     d7e:	0104                	addi	s1,sp,128
     d80:	0306                	slli	t1,t1,0x1
     d82:	0900                	addi	s0,sp,144
     d84:	000e                	c.slli	zero,0x3
     d86:	0501                	addi	a0,a0,0
     d88:	0030                	addi	a2,sp,8
     d8a:	0402                	c.slli64	s0
     d8c:	0601                	addi	a2,a2,0
     d8e:	02090003          	lb	zero,32(s2)
     d92:	0100                	addi	s0,sp,128
     d94:	0605                	addi	a2,a2,1
     d96:	0200                	addi	s0,sp,256
     d98:	0104                	addi	s1,sp,128
     d9a:	08090003          	lb	zero,128(s2)
     d9e:	0100                	addi	s0,sp,128
     da0:	0b05                	addi	s6,s6,1
     da2:	04090203          	lb	tp,64(s2)
     da6:	0100                	addi	s0,sp,128
     da8:	08090103          	lb	sp,128(s2)
     dac:	0100                	addi	s0,sp,128
     dae:	0d05                	addi	s10,s10,1
     db0:	0c090203          	lb	tp,192(s2)
     db4:	0100                	addi	s0,sp,128
     db6:	1405                	addi	s0,s0,-31
     db8:	0200                	addi	s0,sp,256
     dba:	0104                	addi	s1,sp,128
     dbc:	02090003          	lb	zero,32(s2)
     dc0:	0100                	addi	s0,sp,128
     dc2:	0305                	addi	t1,t1,1
     dc4:	12090303          	lb	t1,288(s2)
     dc8:	0100                	addi	s0,sp,128
     dca:	0105                	addi	sp,sp,1
     dcc:	04090103          	lb	sp,64(s2)
     dd0:	0100                	addi	s0,sp,128
     dd2:	0a090303          	lb	t1,160(s2)
     dd6:	0100                	addi	s0,sp,128
     dd8:	1a05                	addi	s4,s4,-31
     dda:	0c090103          	lb	sp,192(s2)
     dde:	0100                	addi	s0,sp,128
     de0:	1505                	addi	a0,a0,-31
     de2:	08090003          	lb	zero,128(s2)
     de6:	0100                	addi	s0,sp,128
     de8:	0c05                	addi	s8,s8,1
     dea:	06090003          	lb	zero,96(s2)
     dee:	0100                	addi	s0,sp,128
     df0:	0d05                	addi	s10,s10,1
     df2:	06090103          	lb	sp,96(s2)
     df6:	0100                	addi	s0,sp,128
     df8:	1a05                	addi	s4,s4,-31
     dfa:	08090003          	lb	zero,128(s2)
     dfe:	0100                	addi	s0,sp,128
     e00:	1305                	addi	t1,t1,-31
     e02:	06090003          	lb	zero,96(s2)
     e06:	0100                	addi	s0,sp,128
     e08:	0105                	addi	sp,sp,1
     e0a:	02090103          	lb	sp,32(s2)
     e0e:	0100                	addi	s0,sp,128
     e10:	0a090303          	lb	t1,160(s2)
     e14:	0100                	addi	s0,sp,128
     e16:	0c05                	addi	s8,s8,1
     e18:	0c090103          	lb	sp,192(s2)
     e1c:	0100                	addi	s0,sp,128
     e1e:	0b05                	addi	s6,s6,1
     e20:	04090003          	lb	zero,64(s2)
     e24:	0100                	addi	s0,sp,128
     e26:	2005                	.insn	2, 0x2005
     e28:	04090003          	lb	zero,64(s2)
     e2c:	0100                	addi	s0,sp,128
     e2e:	2905                	addiw	s2,s2,1
     e30:	06090003          	lb	zero,96(s2)
     e34:	0100                	addi	s0,sp,128
     e36:	0200                	addi	s0,sp,256
     e38:	0104                	addi	s1,sp,128
     e3a:	0306                	slli	t1,t1,0x1
     e3c:	0900                	addi	s0,sp,144
     e3e:	0002                	c.slli64	zero
     e40:	0301                	addi	t1,t1,0
     e42:	0900                	addi	s0,sp,144
     e44:	0002                	c.slli64	zero
     e46:	0001                	nop
     e48:	0402                	c.slli64	s0
     e4a:	0302                	c.slli64	t1
     e4c:	0900                	addi	s0,sp,144
     e4e:	0002                	c.slli64	zero
     e50:	0501                	addi	a0,a0,0
     e52:	0601                	addi	a2,a2,0
     e54:	02090103          	lb	sp,32(s2)
     e58:	0100                	addi	s0,sp,128
     e5a:	0104                	addi	s1,sp,128
     e5c:	1505                	addi	a0,a0,-31
     e5e:	0a095003          	lhu	zero,160(s2)
     e62:	0100                	addi	s0,sp,128
     e64:	08090103          	lb	sp,128(s2)
     e68:	0100                	addi	s0,sp,128
     e6a:	0c05                	addi	s8,s8,1
     e6c:	0a090103          	lb	sp,160(s2)
     e70:	0100                	addi	s0,sp,128
     e72:	0105                	addi	sp,sp,1
     e74:	0a090103          	lb	sp,160(s2)
     e78:	0100                	addi	s0,sp,128
     e7a:	1705                	addi	a4,a4,-31
     e7c:	0a090203          	lb	tp,160(s2)
     e80:	0100                	addi	s0,sp,128
     e82:	1505                	addi	a0,a0,-31
     e84:	0e090103          	lb	sp,224(s2)
     e88:	0100                	addi	s0,sp,128
     e8a:	08090103          	lb	sp,128(s2)
     e8e:	0100                	addi	s0,sp,128
     e90:	0805                	addi	a6,a6,1
     e92:	0a090203          	lb	tp,160(s2)
     e96:	0100                	addi	s0,sp,128
     e98:	0b05                	addi	s6,s6,1
     e9a:	0200                	addi	s0,sp,256
     e9c:	0104                	addi	s1,sp,128
     e9e:	02090003          	lb	zero,32(s2)
     ea2:	0100                	addi	s0,sp,128
     ea4:	1505                	addi	a0,a0,-31
     ea6:	0200                	addi	s0,sp,256
     ea8:	0104                	addi	s1,sp,128
     eaa:	0c090003          	lb	zero,192(s2)
     eae:	0100                	addi	s0,sp,128
     eb0:	0905                	addi	s2,s2,1
     eb2:	0200                	addi	s0,sp,256
     eb4:	0104                	addi	s1,sp,128
     eb6:	08090003          	lb	zero,128(s2)
     eba:	0100                	addi	s0,sp,128
     ebc:	0c05                	addi	s8,s8,1
     ebe:	02090103          	lb	sp,32(s2)
     ec2:	0100                	addi	s0,sp,128
     ec4:	0105                	addi	sp,sp,1
     ec6:	0c090103          	lb	sp,192(s2)
     eca:	0100                	addi	s0,sp,128
     ecc:	1805                	addi	a6,a6,-31
     ece:	0a090203          	lb	tp,160(s2)
     ed2:	0100                	addi	s0,sp,128
     ed4:	1505                	addi	a0,a0,-31
     ed6:	08090103          	lb	sp,128(s2)
     eda:	0100                	addi	s0,sp,128
     edc:	08090103          	lb	sp,128(s2)
     ee0:	0100                	addi	s0,sp,128
     ee2:	0805                	addi	a6,a6,1
     ee4:	0a090203          	lb	tp,160(s2)
     ee8:	0100                	addi	s0,sp,128
     eea:	0b05                	addi	s6,s6,1
     eec:	0200                	addi	s0,sp,256
     eee:	0104                	addi	s1,sp,128
     ef0:	02090003          	lb	zero,32(s2)
     ef4:	0100                	addi	s0,sp,128
     ef6:	1505                	addi	a0,a0,-31
     ef8:	0200                	addi	s0,sp,256
     efa:	0104                	addi	s1,sp,128
     efc:	0c090003          	lb	zero,192(s2)
     f00:	0100                	addi	s0,sp,128
     f02:	0905                	addi	s2,s2,1
     f04:	0200                	addi	s0,sp,256
     f06:	0104                	addi	s1,sp,128
     f08:	06090003          	lb	zero,96(s2)
     f0c:	0100                	addi	s0,sp,128
     f0e:	02090103          	lb	sp,32(s2)
     f12:	0100                	addi	s0,sp,128
     f14:	0105                	addi	sp,sp,1
     f16:	0c090103          	lb	sp,192(s2)
     f1a:	0100                	addi	s0,sp,128
     f1c:	2205                	addiw	tp,tp,1 # 1 <threadsense.2+0x1>
     f1e:	0a090203          	lb	tp,160(s2)
     f22:	0100                	addi	s0,sp,128
     f24:	0b05                	addi	s6,s6,1
     f26:	0c090103          	lb	sp,192(s2)
     f2a:	0100                	addi	s0,sp,128
     f2c:	1605                	addi	a2,a2,-31
     f2e:	02090103          	lb	sp,32(s2)
     f32:	0100                	addi	s0,sp,128
     f34:	0905                	addi	s2,s2,1
     f36:	0c090003          	lb	zero,192(s2)
     f3a:	0100                	addi	s0,sp,128
     f3c:	0c05                	addi	s8,s8,1
     f3e:	0a097f03          	.insn	4, 0x0a097f03
     f42:	0100                	addi	s0,sp,128
     f44:	0105                	addi	sp,sp,1
     f46:	0a090303          	lb	t1,160(s2)
     f4a:	0100                	addi	s0,sp,128
     f4c:	0c090703          	lb	a4,192(s2)
     f50:	0100                	addi	s0,sp,128
     f52:	1005                	c.nop	-31
     f54:	30090203          	lb	tp,768(s2)
     f58:	0100                	addi	s0,sp,128
     f5a:	06090103          	lb	sp,96(s2)
     f5e:	0100                	addi	s0,sp,128
     f60:	06090103          	lb	sp,96(s2)
     f64:	0100                	addi	s0,sp,128
     f66:	06090103          	lb	sp,96(s2)
     f6a:	0100                	addi	s0,sp,128
     f6c:	0305                	addi	t1,t1,1
     f6e:	06090103          	lb	sp,96(s2)
     f72:	0100                	addi	s0,sp,128
     f74:	0c05                	addi	s8,s8,1
     f76:	04090203          	lb	tp,64(s2)
     f7a:	0100                	addi	s0,sp,128
     f7c:	0a05                	addi	s4,s4,1
     f7e:	02090003          	lb	zero,32(s2)
     f82:	0100                	addi	s0,sp,128
     f84:	0905                	addi	s2,s2,1
     f86:	0a090103          	lb	sp,160(s2)
     f8a:	0100                	addi	s0,sp,128
     f8c:	1305                	addi	t1,t1,-31
     f8e:	0200                	addi	s0,sp,256
     f90:	0104                	addi	s1,sp,128
     f92:	02090003          	lb	zero,32(s2)
     f96:	0100                	addi	s0,sp,128
     f98:	0c05                	addi	s8,s8,1
     f9a:	0c090203          	lb	tp,192(s2)
     f9e:	0100                	addi	s0,sp,128
     fa0:	0305                	addi	t1,t1,1
     fa2:	0c090203          	lb	tp,192(s2)
     fa6:	0100                	addi	s0,sp,128
     fa8:	1305                	addi	t1,t1,-31
     faa:	04090103          	lb	sp,64(s2)
     fae:	0100                	addi	s0,sp,128
     fb0:	0105                	addi	sp,sp,1
     fb2:	02090103          	lb	sp,32(s2)
     fb6:	0100                	addi	s0,sp,128
     fb8:	0a090703          	lb	a4,160(s2)
     fbc:	0100                	addi	s0,sp,128
     fbe:	0705                	addi	a4,a4,1
     fc0:	0e090103          	lb	sp,224(s2)
     fc4:	0100                	addi	s0,sp,128
     fc6:	0305                	addi	t1,t1,1
     fc8:	0200                	addi	s0,sp,256
     fca:	0104                	addi	s1,sp,128
     fcc:	04090803          	lb	a6,64(s2)
     fd0:	0100                	addi	s0,sp,128
     fd2:	0200                	addi	s0,sp,256
     fd4:	0204                	addi	s1,sp,256
     fd6:	0306                	slli	t1,t1,0x1
     fd8:	0900                	addi	s0,sp,144
     fda:	000e                	c.slli	zero,0x3
     fdc:	0001                	nop
     fde:	0402                	c.slli64	s0
     fe0:	09000303          	lb	t1,144(zero) # 90 <threadsense.3+0x8c>
     fe4:	0018                	.insn	2, 0x0018
     fe6:	0001                	nop
     fe8:	0402                	c.slli64	s0
     fea:	0305                	addi	t1,t1,1
     fec:	0900                	addi	s0,sp,144
     fee:	0034                	addi	a3,sp,8
     ff0:	0001                	nop
     ff2:	0402                	c.slli64	s0
     ff4:	0601                	addi	a2,a2,0
     ff6:	1e090103          	lb	sp,480(s2)
     ffa:	0100                	addi	s0,sp,128
     ffc:	0200                	addi	s0,sp,256
     ffe:	0204                	addi	s1,sp,256
    1000:	0306                	slli	t1,t1,0x1
    1002:	0900                	addi	s0,sp,144
    1004:	000e                	c.slli	zero,0x3
    1006:	0001                	nop
    1008:	0402                	c.slli64	s0
    100a:	09000303          	lb	t1,144(zero) # 90 <threadsense.3+0x8c>
    100e:	0018                	.insn	2, 0x0018
    1010:	0001                	nop
    1012:	0402                	c.slli64	s0
    1014:	0305                	addi	t1,t1,1
    1016:	0900                	addi	s0,sp,144
    1018:	0034                	addi	a3,sp,8
    101a:	0501                	addi	a0,a0,0
    101c:	0601                	addi	a2,a2,0
    101e:	1e090303          	lb	t1,480(s2)
    1022:	0100                	addi	s0,sp,128
    1024:	0a090303          	lb	t1,160(s2)
    1028:	0100                	addi	s0,sp,128
    102a:	1205                	addi	tp,tp,-31 # ffffffffffffffe1 <__global_pointer$+0xffffffff7fffd799>
    102c:	0c090103          	lb	sp,192(s2)
    1030:	0100                	addi	s0,sp,128
    1032:	1805                	addi	a6,a6,-31
    1034:	06090003          	lb	zero,96(s2)
    1038:	0100                	addi	s0,sp,128
    103a:	0a05                	addi	s4,s4,1
    103c:	04090003          	lb	zero,64(s2)
    1040:	0100                	addi	s0,sp,128
    1042:	0905                	addi	s2,s2,1
    1044:	0a090103          	lb	sp,160(s2)
    1048:	0100                	addi	s0,sp,128
    104a:	0105                	addi	sp,sp,1
    104c:	02090403          	lb	s0,32(s2)
    1050:	0100                	addi	s0,sp,128
    1052:	0305                	addi	t1,t1,1
    1054:	14090103          	lb	sp,320(s2)
    1058:	0100                	addi	s0,sp,128
    105a:	0105                	addi	sp,sp,1
    105c:	08090403          	lb	s0,128(s2)
    1060:	0100                	addi	s0,sp,128
    1062:	0305                	addi	t1,t1,1
    1064:	0e090103          	lb	sp,224(s2)
    1068:	0100                	addi	s0,sp,128
    106a:	0105                	addi	sp,sp,1
    106c:	0a090403          	lb	s0,160(s2)
    1070:	0100                	addi	s0,sp,128
    1072:	0305                	addi	t1,t1,1
    1074:	08090103          	lb	sp,128(s2)
    1078:	0100                	addi	s0,sp,128
    107a:	0105                	addi	sp,sp,1
    107c:	08090403          	lb	s0,128(s2)
    1080:	0100                	addi	s0,sp,128
    1082:	0305                	addi	t1,t1,1
    1084:	0c090403          	lb	s0,192(s2)
    1088:	0100                	addi	s0,sp,128
    108a:	0105                	addi	sp,sp,1
    108c:	08090103          	lb	sp,128(s2)
    1090:	0100                	addi	s0,sp,128
    1092:	0a090603          	lb	a2,160(s2)
    1096:	0100                	addi	s0,sp,128
    1098:	0305                	addi	t1,t1,1
    109a:	0c090103          	lb	sp,192(s2)
    109e:	0100                	addi	s0,sp,128
    10a0:	0a05                	addi	s4,s4,1
    10a2:	08090103          	lb	sp,128(s2)
    10a6:	0100                	addi	s0,sp,128
    10a8:	0105                	addi	sp,sp,1
    10aa:	02090103          	lb	sp,32(s2)
    10ae:	0100                	addi	s0,sp,128
    10b0:	0a090303          	lb	t1,160(s2)
    10b4:	0100                	addi	s0,sp,128
    10b6:	0905                	addi	s2,s2,1
    10b8:	16090303          	lb	t1,352(s2)
    10bc:	0100                	addi	s0,sp,128
    10be:	0e05                	addi	t3,t3,1 # 1a001 <threadsense.3+0x19ffd>
    10c0:	0200                	addi	s0,sp,256
    10c2:	0104                	addi	s1,sp,128
    10c4:	02090003          	lb	zero,32(s2)
    10c8:	0100                	addi	s0,sp,128
    10ca:	0105                	addi	sp,sp,1
    10cc:	08090103          	lb	sp,128(s2)
    10d0:	0100                	addi	s0,sp,128
    10d2:	0c090303          	lb	t1,192(s2)
    10d6:	0100                	addi	s0,sp,128
    10d8:	0305                	addi	t1,t1,1
    10da:	12090203          	lb	tp,288(s2)
    10de:	0100                	addi	s0,sp,128
    10e0:	0a05                	addi	s4,s4,1
    10e2:	0c090103          	lb	sp,192(s2)
    10e6:	0100                	addi	s0,sp,128
    10e8:	0105                	addi	sp,sp,1
    10ea:	02090103          	lb	sp,32(s2)
    10ee:	0100                	addi	s0,sp,128
    10f0:	0a090303          	lb	t1,160(s2)
    10f4:	0100                	addi	s0,sp,128
    10f6:	2305                	addiw	t1,t1,1
    10f8:	08090303          	lb	t1,128(s2)
    10fc:	0100                	addi	s0,sp,128
    10fe:	0a05                	addi	s4,s4,1
    1100:	0c090003          	lb	zero,192(s2)
    1104:	0100                	addi	s0,sp,128
    1106:	0305                	addi	t1,t1,1
    1108:	04090103          	lb	sp,64(s2)
    110c:	0100                	addi	s0,sp,128
    110e:	2105                	addiw	sp,sp,1
    1110:	10090103          	lb	sp,256(s2)
    1114:	0100                	addi	s0,sp,128
    1116:	0a05                	addi	s4,s4,1
    1118:	0c090003          	lb	zero,192(s2)
    111c:	0100                	addi	s0,sp,128
    111e:	0305                	addi	t1,t1,1
    1120:	04090103          	lb	sp,64(s2)
    1124:	0100                	addi	s0,sp,128
    1126:	0105                	addi	sp,sp,1
    1128:	14090103          	lb	sp,320(s2)
    112c:	0100                	addi	s0,sp,128
    112e:	0a090303          	lb	t1,160(s2)
    1132:	0100                	addi	s0,sp,128
    1134:	0305                	addi	t1,t1,1
    1136:	32090103          	lb	sp,800(s2)
    113a:	0100                	addi	s0,sp,128
    113c:	04090103          	lb	sp,64(s2)
    1140:	0100                	addi	s0,sp,128
    1142:	10090103          	lb	sp,256(s2)
    1146:	0100                	addi	s0,sp,128
    1148:	0d05                	addi	s10,s10,1
    114a:	04090303          	lb	t1,64(s2)
    114e:	0100                	addi	s0,sp,128
    1150:	0905                	addi	s2,s2,1
    1152:	0e090303          	lb	t1,224(s2)
    1156:	0100                	addi	s0,sp,128
    1158:	0c05                	addi	s8,s8,1
    115a:	04090103          	lb	sp,64(s2)
    115e:	0100                	addi	s0,sp,128
    1160:	0305                	addi	t1,t1,1
    1162:	04090003          	lb	zero,64(s2)
    1166:	0100                	addi	s0,sp,128
    1168:	1105                	addi	sp,sp,-31
    116a:	02090103          	lb	sp,32(s2)
    116e:	0100                	addi	s0,sp,128
    1170:	0805                	addi	a6,a6,1
    1172:	12090003          	lb	zero,288(s2)
    1176:	0100                	addi	s0,sp,128
    1178:	0f05                	addi	t5,t5,1
    117a:	02090103          	lb	sp,32(s2)
    117e:	0100                	addi	s0,sp,128
    1180:	0200                	addi	s0,sp,256
    1182:	0104                	addi	s1,sp,128
    1184:	0306                	slli	t1,t1,0x1
    1186:	0900                	addi	s0,sp,144
    1188:	0034                	addi	a3,sp,8
    118a:	0501                	addi	a0,a0,0
    118c:	000c                	.insn	2, 0x000c
    118e:	0402                	c.slli64	s0
    1190:	0601                	addi	a2,a2,0
    1192:	02090003          	lb	zero,32(s2)
    1196:	0100                	addi	s0,sp,128
    1198:	2605                	addiw	a2,a2,1
    119a:	0200                	addi	s0,sp,256
    119c:	0204                	addi	s1,sp,256
    119e:	0a097e03          	.insn	4, 0x0a097e03
    11a2:	0100                	addi	s0,sp,128
    11a4:	1505                	addi	a0,a0,-31
    11a6:	0200                	addi	s0,sp,256
    11a8:	0104                	addi	s1,sp,128
    11aa:	0a090003          	lb	zero,160(s2)
    11ae:	0100                	addi	s0,sp,128
    11b0:	0605                	addi	a2,a2,1
    11b2:	0e090303          	lb	t1,224(s2)
    11b6:	0100                	addi	s0,sp,128
    11b8:	0505                	addi	a0,a0,1
    11ba:	08090103          	lb	sp,128(s2)
    11be:	0100                	addi	s0,sp,128
    11c0:	0305                	addi	t1,t1,1
    11c2:	06090203          	lb	tp,96(s2)
    11c6:	0100                	addi	s0,sp,128
    11c8:	0105                	addi	sp,sp,1
    11ca:	0a090503          	lb	a0,160(s2)
    11ce:	0100                	addi	s0,sp,128
    11d0:	0305                	addi	t1,t1,1
    11d2:	0e090303          	lb	t1,224(s2)
    11d6:	0100                	addi	s0,sp,128
    11d8:	0a05                	addi	s4,s4,1
    11da:	0e090e03          	lb	t3,224(s2)
    11de:	0100                	addi	s0,sp,128
    11e0:	0105                	addi	sp,sp,1
    11e2:	02090103          	lb	sp,32(s2)
    11e6:	0100                	addi	s0,sp,128
    11e8:	0a090303          	lb	t1,160(s2)
    11ec:	0100                	addi	s0,sp,128
    11ee:	0a05                	addi	s4,s4,1
    11f0:	0c090303          	lb	t1,192(s2)
    11f4:	0100                	addi	s0,sp,128
    11f6:	0305                	addi	t1,t1,1
    11f8:	04090003          	lb	zero,64(s2)
    11fc:	0100                	addi	s0,sp,128
    11fe:	1405                	addi	s0,s0,-31
    1200:	02090203          	lb	tp,32(s2)
    1204:	0100                	addi	s0,sp,128
    1206:	2105                	addiw	sp,sp,1
    1208:	0e090003          	lb	zero,224(s2)
    120c:	0100                	addi	s0,sp,128
    120e:	1b05                	addi	s6,s6,-31
    1210:	08090003          	lb	zero,128(s2)
    1214:	0100                	addi	s0,sp,128
    1216:	0200                	addi	s0,sp,256
    1218:	0104                	addi	s1,sp,128
    121a:	0306                	slli	t1,t1,0x1
    121c:	0900                	addi	s0,sp,144
    121e:	0006                	c.slli	zero,0x1
    1220:	0001                	nop
    1222:	0402                	c.slli64	s0
    1224:	0302                	c.slli64	t1
    1226:	0900                	addi	s0,sp,144
    1228:	0006                	c.slli	zero,0x1
    122a:	0501                	addi	a0,a0,0
    122c:	0402000b          	.insn	4, 0x0402000b
    1230:	0604                	addi	s1,sp,768
    1232:	04090003          	lb	zero,64(s2)
    1236:	0100                	addi	s0,sp,128
    1238:	1b05                	addi	s6,s6,-31
    123a:	0200                	addi	s0,sp,256
    123c:	0404                	addi	s1,sp,512
    123e:	0a090003          	lb	zero,160(s2)
    1242:	0100                	addi	s0,sp,128
    1244:	0f05                	addi	t5,t5,1
    1246:	0200                	addi	s0,sp,256
    1248:	0404                	addi	s1,sp,512
    124a:	06090003          	lb	zero,96(s2)
    124e:	0100                	addi	s0,sp,128
    1250:	0705                	addi	a4,a4,1
    1252:	0a090103          	lb	sp,160(s2)
    1256:	0100                	addi	s0,sp,128
    1258:	1805                	addi	a6,a6,-31
    125a:	0200                	addi	s0,sp,256
    125c:	0204                	addi	s1,sp,256
    125e:	0a097d03          	.insn	4, 0x0a097d03
    1262:	0100                	addi	s0,sp,128
    1264:	1105                	addi	sp,sp,-31
    1266:	0200                	addi	s0,sp,256
    1268:	0104                	addi	s1,sp,128
    126a:	0a090003          	lb	zero,160(s2)
    126e:	0100                	addi	s0,sp,128
    1270:	0b05                	addi	s6,s6,1
    1272:	0e090503          	lb	a0,224(s2)
    1276:	0100                	addi	s0,sp,128
    1278:	0305                	addi	t1,t1,1
    127a:	04090203          	lb	tp,64(s2)
    127e:	0100                	addi	s0,sp,128
    1280:	0105                	addi	sp,sp,1
    1282:	0a090103          	lb	sp,160(s2)
    1286:	0100                	addi	s0,sp,128
    1288:	0a090403          	lb	s0,160(s2)
    128c:	0100                	addi	s0,sp,128
    128e:	0705                	addi	a4,a4,1
    1290:	2c090203          	lb	tp,704(s2)
    1294:	0100                	addi	s0,sp,128
    1296:	1705                	addi	a4,a4,-31
    1298:	04090403          	lb	s0,64(s2)
    129c:	0100                	addi	s0,sp,128
    129e:	0d05                	addi	s10,s10,1
    12a0:	0c090003          	lb	zero,192(s2)
    12a4:	0100                	addi	s0,sp,128
    12a6:	1105                	addi	sp,sp,-31
    12a8:	0c090003          	lb	zero,192(s2)
    12ac:	0100                	addi	s0,sp,128
    12ae:	0d05                	addi	s10,s10,1
    12b0:	0c090103          	lb	sp,192(s2)
    12b4:	0100                	addi	s0,sp,128
    12b6:	0805                	addi	a6,a6,1
    12b8:	04090003          	lb	zero,64(s2)
    12bc:	0100                	addi	s0,sp,128
    12be:	0905                	addi	s2,s2,1
    12c0:	08090203          	lb	tp,128(s2)
    12c4:	0100                	addi	s0,sp,128
    12c6:	1105                	addi	sp,sp,-31
    12c8:	10097d03          	.insn	4, 0x10097d03
    12cc:	0100                	addi	s0,sp,128
    12ce:	0705                	addi	a4,a4,1
    12d0:	02090203          	lb	tp,32(s2)
    12d4:	0100                	addi	s0,sp,128
    12d6:	0905                	addi	s2,s2,1
    12d8:	02090403          	lb	s0,32(s2)
    12dc:	0100                	addi	s0,sp,128
    12de:	0505                	addi	a0,a0,1
    12e0:	02090103          	lb	sp,32(s2)
    12e4:	0100                	addi	s0,sp,128
    12e6:	0f05                	addi	t5,t5,1
    12e8:	10097f03          	.insn	4, 0x10097f03
    12ec:	0100                	addi	s0,sp,128
    12ee:	1205                	addi	tp,tp,-31 # ffffffffffffffe1 <__global_pointer$+0xffffffff7fffd799>
    12f0:	0c090003          	lb	zero,192(s2)
    12f4:	0100                	addi	s0,sp,128
    12f6:	0905                	addi	s2,s2,1
    12f8:	0a090303          	lb	t1,160(s2)
    12fc:	0100                	addi	s0,sp,128
    12fe:	0f05                	addi	t5,t5,1
    1300:	02090103          	lb	sp,32(s2)
    1304:	0100                	addi	s0,sp,128
    1306:	1c05                	addi	s8,s8,-31
    1308:	0e090003          	lb	zero,224(s2)
    130c:	0100                	addi	s0,sp,128
    130e:	3305                	addiw	t1,t1,-31
    1310:	0e090003          	lb	zero,224(s2)
    1314:	0100                	addi	s0,sp,128
    1316:	0200                	addi	s0,sp,256
    1318:	0104                	addi	s1,sp,128
    131a:	0306                	slli	t1,t1,0x1
    131c:	0900                	addi	s0,sp,144
    131e:	0006                	c.slli	zero,0x1
    1320:	0001                	nop
    1322:	0402                	c.slli64	s0
    1324:	0302                	c.slli64	t1
    1326:	0900                	addi	s0,sp,144
    1328:	0006                	c.slli	zero,0x1
    132a:	0501                	addi	a0,a0,0
    132c:	0015                	c.nop	5
    132e:	0402                	c.slli64	s0
    1330:	0604                	addi	s1,sp,768
    1332:	04090003          	lb	zero,64(s2)
    1336:	0100                	addi	s0,sp,128
    1338:	0505                	addi	a0,a0,1
    133a:	0200                	addi	s0,sp,256
    133c:	0404                	addi	s1,sp,512
    133e:	04090003          	lb	zero,64(s2)
    1342:	0100                	addi	s0,sp,128
    1344:	0d05                	addi	s10,s10,1
    1346:	0e097f03          	.insn	4, 0x0e097f03
    134a:	0100                	addi	s0,sp,128
    134c:	1005                	c.nop	-31
    134e:	0c090003          	lb	zero,192(s2)
    1352:	0100                	addi	s0,sp,128
    1354:	0105                	addi	sp,sp,1
    1356:	04090203          	lb	tp,64(s2)
    135a:	0100                	addi	s0,sp,128
    135c:	0c090303          	lb	t1,192(s2)
    1360:	0100                	addi	s0,sp,128
    1362:	0605                	addi	a2,a2,1
    1364:	12090103          	lb	sp,288(s2)
    1368:	0100                	addi	s0,sp,128
    136a:	0c05                	addi	s8,s8,1
    136c:	0e090103          	lb	sp,224(s2)
    1370:	0100                	addi	s0,sp,128
    1372:	0b05                	addi	s6,s6,1
    1374:	14090103          	lb	sp,320(s2)
    1378:	0100                	addi	s0,sp,128
    137a:	0c05                	addi	s8,s8,1
    137c:	08090103          	lb	sp,128(s2)
    1380:	0100                	addi	s0,sp,128
    1382:	14090203          	lb	tp,320(s2)
    1386:	0100                	addi	s0,sp,128
    1388:	0200                	addi	s0,sp,256
    138a:	0104                	addi	s1,sp,128
    138c:	0306                	slli	t1,t1,0x1
    138e:	0900                	addi	s0,sp,144
    1390:	0012                	c.slli	zero,0x4
    1392:	0501                	addi	a0,a0,0
    1394:	0601                	addi	a2,a2,0
    1396:	04090103          	lb	sp,64(s2)
    139a:	0100                	addi	s0,sp,128
    139c:	0a090303          	lb	t1,160(s2)
    13a0:	0100                	addi	s0,sp,128
    13a2:	0605                	addi	a2,a2,1
    13a4:	12090103          	lb	sp,288(s2)
    13a8:	0100                	addi	s0,sp,128
    13aa:	0c05                	addi	s8,s8,1
    13ac:	0e090103          	lb	sp,224(s2)
    13b0:	0100                	addi	s0,sp,128
    13b2:	0b05                	addi	s6,s6,1
    13b4:	14090103          	lb	sp,320(s2)
    13b8:	0100                	addi	s0,sp,128
    13ba:	0c05                	addi	s8,s8,1
    13bc:	08090103          	lb	sp,128(s2)
    13c0:	0100                	addi	s0,sp,128
    13c2:	14090203          	lb	tp,320(s2)
    13c6:	0100                	addi	s0,sp,128
    13c8:	0105                	addi	sp,sp,1
    13ca:	12090103          	lb	sp,288(s2)
    13ce:	0100                	addi	s0,sp,128
    13d0:	0a090303          	lb	t1,160(s2)
    13d4:	0100                	addi	s0,sp,128
    13d6:	0b05                	addi	s6,s6,1
    13d8:	1c090903          	lb	s2,448(s2)
    13dc:	0100                	addi	s0,sp,128
    13de:	0a05                	addi	s4,s4,1
    13e0:	02090103          	lb	sp,32(s2)
    13e4:	0100                	addi	s0,sp,128
    13e6:	04090203          	lb	tp,64(s2)
    13ea:	0100                	addi	s0,sp,128
    13ec:	0705                	addi	a4,a4,1
    13ee:	0a090103          	lb	sp,160(s2)
    13f2:	0100                	addi	s0,sp,128
    13f4:	1205                	addi	tp,tp,-31 # ffffffffffffffe1 <__global_pointer$+0xffffffff7fffd799>
    13f6:	0c097c03          	.insn	4, 0x0c097c03
    13fa:	0100                	addi	s0,sp,128
    13fc:	1005                	c.nop	-31
    13fe:	08090003          	lb	zero,128(s2)
    1402:	0100                	addi	s0,sp,128
    1404:	2a05                	addiw	s4,s4,1
    1406:	04090003          	lb	zero,64(s2)
    140a:	0100                	addi	s0,sp,128
    140c:	0805                	addi	a6,a6,1
    140e:	08090603          	lb	a2,128(s2)
    1412:	0100                	addi	s0,sp,128
    1414:	0e05                	addi	t3,t3,1
    1416:	0a090303          	lb	t1,160(s2)
    141a:	0100                	addi	s0,sp,128
    141c:	0a05                	addi	s4,s4,1
    141e:	08090103          	lb	sp,128(s2)
    1422:	0100                	addi	s0,sp,128
    1424:	0b05                	addi	s6,s6,1
    1426:	08090103          	lb	sp,128(s2)
    142a:	0100                	addi	s0,sp,128
    142c:	0f05                	addi	t5,t5,1
    142e:	06090103          	lb	sp,96(s2)
    1432:	0100                	addi	s0,sp,128
    1434:	0b05                	addi	s6,s6,1
    1436:	06090103          	lb	sp,96(s2)
    143a:	0100                	addi	s0,sp,128
    143c:	0d05                	addi	s10,s10,1
    143e:	04090103          	lb	sp,64(s2)
    1442:	0100                	addi	s0,sp,128
    1444:	1305                	addi	t1,t1,-31
    1446:	04090203          	lb	tp,64(s2)
    144a:	0100                	addi	s0,sp,128
    144c:	1205                	addi	tp,tp,-31 # ffffffffffffffe1 <__global_pointer$+0xffffffff7fffd799>
    144e:	0c090003          	lb	zero,192(s2)
    1452:	0100                	addi	s0,sp,128
    1454:	1005                	c.nop	-31
    1456:	04090003          	lb	zero,64(s2)
    145a:	0100                	addi	s0,sp,128
    145c:	0505                	addi	a0,a0,1
    145e:	04090003          	lb	zero,64(s2)
    1462:	0100                	addi	s0,sp,128
    1464:	0c05                	addi	s8,s8,1
    1466:	38090403          	lb	s0,896(s2)
    146a:	0100                	addi	s0,sp,128
    146c:	0705                	addi	a4,a4,1
    146e:	08090103          	lb	sp,128(s2)
    1472:	0100                	addi	s0,sp,128
    1474:	0c05                	addi	s8,s8,1
    1476:	02090403          	lb	s0,32(s2)
    147a:	0100                	addi	s0,sp,128
    147c:	0705                	addi	a4,a4,1
    147e:	08090103          	lb	sp,128(s2)
    1482:	0100                	addi	s0,sp,128
    1484:	1605                	addi	a2,a2,-31
    1486:	02090c03          	lb	s8,32(s2)
    148a:	0100                	addi	s0,sp,128
    148c:	1f05                	addi	t5,t5,-31
    148e:	04090103          	lb	sp,64(s2)
    1492:	0100                	addi	s0,sp,128
    1494:	2405                	addiw	s0,s0,1
    1496:	14090003          	lb	zero,320(s2)
    149a:	0100                	addi	s0,sp,128
    149c:	1305                	addi	t1,t1,-31
    149e:	04090003          	lb	zero,64(s2)
    14a2:	0100                	addi	s0,sp,128
    14a4:	0e05                	addi	t3,t3,1
    14a6:	08090103          	lb	sp,128(s2)
    14aa:	0100                	addi	s0,sp,128
    14ac:	0c05                	addi	s8,s8,1
    14ae:	08090003          	lb	zero,128(s2)
    14b2:	0100                	addi	s0,sp,128
    14b4:	04090103          	lb	sp,64(s2)
    14b8:	0100                	addi	s0,sp,128
    14ba:	1605                	addi	a2,a2,-31
    14bc:	0200                	addi	s0,sp,256
    14be:	0104                	addi	s1,sp,128
    14c0:	08090003          	lb	zero,128(s2)
    14c4:	0100                	addi	s0,sp,128
    14c6:	1d05                	addi	s10,s10,-31
    14c8:	08097d03          	.insn	4, 0x08097d03
    14cc:	0100                	addi	s0,sp,128
    14ce:	1305                	addi	t1,t1,-31
    14d0:	0a090103          	lb	sp,160(s2)
    14d4:	0100                	addi	s0,sp,128
    14d6:	1105                	addi	sp,sp,-31
    14d8:	02090803          	lb	a6,32(s2)
    14dc:	0100                	addi	s0,sp,128
    14de:	0705                	addi	a4,a4,1
    14e0:	12090103          	lb	sp,288(s2)
    14e4:	0100                	addi	s0,sp,128
    14e6:	0a05                	addi	s4,s4,1
    14e8:	02090303          	lb	t1,32(s2)
    14ec:	0100                	addi	s0,sp,128
    14ee:	0f05                	addi	t5,t5,1
    14f0:	0a090103          	lb	sp,160(s2)
    14f4:	0100                	addi	s0,sp,128
    14f6:	0705                	addi	a4,a4,1
    14f8:	04090103          	lb	sp,64(s2)
    14fc:	0100                	addi	s0,sp,128
    14fe:	0f05                	addi	t5,t5,1
    1500:	02090303          	lb	t1,32(s2)
    1504:	0100                	addi	s0,sp,128
    1506:	0705                	addi	a4,a4,1
    1508:	06090103          	lb	sp,96(s2)
    150c:	0100                	addi	s0,sp,128
    150e:	02097303          	.insn	4, 0x02097303
    1512:	0100                	addi	s0,sp,128
    1514:	0a05                	addi	s4,s4,1
    1516:	02091003          	lh	zero,32(s2)
    151a:	0100                	addi	s0,sp,128
    151c:	0f05                	addi	t5,t5,1
    151e:	0a090103          	lb	sp,160(s2)
    1522:	0100                	addi	s0,sp,128
    1524:	2605                	addiw	a2,a2,1
    1526:	08090003          	lb	zero,128(s2)
    152a:	0100                	addi	s0,sp,128
    152c:	0705                	addi	a4,a4,1
    152e:	06090103          	lb	sp,96(s2)
    1532:	0100                	addi	s0,sp,128
    1534:	0c05                	addi	s8,s8,1
    1536:	02090403          	lb	s0,32(s2)
    153a:	0100                	addi	s0,sp,128
    153c:	0705                	addi	a4,a4,1
    153e:	0a090103          	lb	sp,160(s2)
    1542:	0100                	addi	s0,sp,128
    1544:	02090403          	lb	s0,32(s2)
    1548:	0100                	addi	s0,sp,128
    154a:	0200                	addi	s0,sp,256
    154c:	0104                	addi	s1,sp,128
    154e:	0306                	slli	t1,t1,0x1
    1550:	0900                	addi	s0,sp,144
    1552:	000e                	c.slli	zero,0x3
    1554:	0601                	addi	a2,a2,0
    1556:	0c090103          	lb	sp,192(s2)
    155a:	0100                	addi	s0,sp,128
    155c:	0e05                	addi	t3,t3,1
    155e:	02090403          	lb	s0,32(s2)
    1562:	0100                	addi	s0,sp,128
    1564:	0a05                	addi	s4,s4,1
    1566:	0200                	addi	s0,sp,256
    1568:	0104                	addi	s1,sp,128
    156a:	10090003          	lb	zero,256(s2)
    156e:	0100                	addi	s0,sp,128
    1570:	0b05                	addi	s6,s6,1
    1572:	04090103          	lb	sp,64(s2)
    1576:	0100                	addi	s0,sp,128
    1578:	0a05                	addi	s4,s4,1
    157a:	08090103          	lb	sp,128(s2)
    157e:	0100                	addi	s0,sp,128
    1580:	1505                	addi	a0,a0,-31
    1582:	0200                	addi	s0,sp,256
    1584:	0104                	addi	s1,sp,128
    1586:	0a090003          	lb	zero,160(s2)
    158a:	0100                	addi	s0,sp,128
    158c:	1405                	addi	s0,s0,-31
    158e:	10090103          	lb	sp,256(s2)
    1592:	0100                	addi	s0,sp,128
    1594:	1705                	addi	a4,a4,-31
    1596:	04090003          	lb	zero,64(s2)
    159a:	0100                	addi	s0,sp,128
    159c:	1405                	addi	s0,s0,-31
    159e:	0200                	addi	s0,sp,256
    15a0:	0104                	addi	s1,sp,128
    15a2:	0e090003          	lb	zero,224(s2)
    15a6:	0100                	addi	s0,sp,128
    15a8:	0905                	addi	s2,s2,1
    15aa:	0c090003          	lb	zero,192(s2)
    15ae:	0100                	addi	s0,sp,128
    15b0:	0b05                	addi	s6,s6,1
    15b2:	02090103          	lb	sp,32(s2)
    15b6:	0100                	addi	s0,sp,128
    15b8:	3e05                	addiw	t3,t3,-31
    15ba:	0200                	addi	s0,sp,256
    15bc:	0304                	addi	s1,sp,384
    15be:	14097f03          	.insn	4, 0x14097f03
    15c2:	0100                	addi	s0,sp,128
    15c4:	3405                	addiw	s0,s0,-31
    15c6:	0200                	addi	s0,sp,256
    15c8:	0104                	addi	s1,sp,128
    15ca:	0a090003          	lb	zero,160(s2)
    15ce:	0100                	addi	s0,sp,128
    15d0:	0705                	addi	a4,a4,1
    15d2:	0a090203          	lb	tp,160(s2)
    15d6:	0100                	addi	s0,sp,128
    15d8:	0905                	addi	s2,s2,1
    15da:	02090103          	lb	sp,32(s2)
    15de:	0100                	addi	s0,sp,128
    15e0:	0a05                	addi	s4,s4,1
    15e2:	0c090103          	lb	sp,192(s2)
    15e6:	0100                	addi	s0,sp,128
    15e8:	4d05                	li	s10,1
    15ea:	0200                	addi	s0,sp,256
    15ec:	0504                	addi	s1,sp,640
    15ee:	02097e03          	.insn	4, 0x02097e03
    15f2:	0100                	addi	s0,sp,128
    15f4:	1405                	addi	s0,s0,-31
    15f6:	0200                	addi	s0,sp,256
    15f8:	0104                	addi	s1,sp,128
    15fa:	0a090003          	lb	zero,160(s2)
    15fe:	0100                	addi	s0,sp,128
    1600:	1205                	addi	tp,tp,-31 # ffffffffffffffe1 <__global_pointer$+0xffffffff7fffd799>
    1602:	0200                	addi	s0,sp,256
    1604:	0104                	addi	s1,sp,128
    1606:	04090003          	lb	zero,64(s2)
    160a:	0100                	addi	s0,sp,128
    160c:	2005                	.insn	2, 0x2005
    160e:	0200                	addi	s0,sp,256
    1610:	0104                	addi	s1,sp,128
    1612:	04090003          	lb	zero,64(s2)
    1616:	0100                	addi	s0,sp,128
    1618:	0200                	addi	s0,sp,256
    161a:	0204                	addi	s1,sp,256
    161c:	0306                	slli	t1,t1,0x1
    161e:	0900                	addi	s0,sp,144
    1620:	0002                	c.slli64	zero
    1622:	0501                	addi	a0,a0,0
    1624:	0032                	c.slli	zero,0xc
    1626:	0402                	c.slli64	s0
    1628:	0604                	addi	s1,sp,768
    162a:	0a090003          	lb	zero,160(s2)
    162e:	0100                	addi	s0,sp,128
    1630:	0705                	addi	a4,a4,1
    1632:	14090403          	lb	s0,320(s2)
    1636:	0100                	addi	s0,sp,128
    1638:	0905                	addi	s2,s2,1
    163a:	02090103          	lb	sp,32(s2)
    163e:	0100                	addi	s0,sp,128
    1640:	1e05                	addi	t3,t3,-31
    1642:	0200                	addi	s0,sp,256
    1644:	0204                	addi	s1,sp,256
    1646:	0e097f03          	.insn	4, 0x0e097f03
    164a:	0100                	addi	s0,sp,128
    164c:	1405                	addi	s0,s0,-31
    164e:	0200                	addi	s0,sp,256
    1650:	0104                	addi	s1,sp,128
    1652:	0a090003          	lb	zero,160(s2)
    1656:	0100                	addi	s0,sp,128
    1658:	0705                	addi	a4,a4,1
    165a:	0a090203          	lb	tp,160(s2)
    165e:	0100                	addi	s0,sp,128
    1660:	0d05                	addi	s10,s10,1
    1662:	02090403          	lb	s0,32(s2)
    1666:	0100                	addi	s0,sp,128
    1668:	0b05                	addi	s6,s6,1
    166a:	0200                	addi	s0,sp,256
    166c:	0104                	addi	s1,sp,128
    166e:	12090003          	lb	zero,288(s2)
    1672:	0100                	addi	s0,sp,128
    1674:	04090103          	lb	sp,64(s2)
    1678:	0100                	addi	s0,sp,128
    167a:	0a05                	addi	s4,s4,1
    167c:	04090003          	lb	zero,64(s2)
    1680:	0100                	addi	s0,sp,128
    1682:	0905                	addi	s2,s2,1
    1684:	04090103          	lb	sp,64(s2)
    1688:	0100                	addi	s0,sp,128
    168a:	1005                	c.nop	-31
    168c:	0e090103          	lb	sp,224(s2)
    1690:	0100                	addi	s0,sp,128
    1692:	0f05                	addi	t5,t5,1
    1694:	04090003          	lb	zero,64(s2)
    1698:	0100                	addi	s0,sp,128
    169a:	0d05                	addi	s10,s10,1
    169c:	04090003          	lb	zero,64(s2)
    16a0:	0100                	addi	s0,sp,128
    16a2:	0c05                	addi	s8,s8,1
    16a4:	04090203          	lb	tp,64(s2)
    16a8:	0100                	addi	s0,sp,128
    16aa:	0705                	addi	a4,a4,1
    16ac:	06090103          	lb	sp,96(s2)
    16b0:	0100                	addi	s0,sp,128
    16b2:	0c05                	addi	s8,s8,1
    16b4:	02090403          	lb	s0,32(s2)
    16b8:	0100                	addi	s0,sp,128
    16ba:	0705                	addi	a4,a4,1
    16bc:	06090103          	lb	sp,96(s2)
    16c0:	0100                	addi	s0,sp,128
    16c2:	0c05                	addi	s8,s8,1
    16c4:	02090503          	lb	a0,32(s2)
    16c8:	0100                	addi	s0,sp,128
    16ca:	0705                	addi	a4,a4,1
    16cc:	06090103          	lb	sp,96(s2)
    16d0:	0100                	addi	s0,sp,128
    16d2:	0d05                	addi	s10,s10,1
    16d4:	02090503          	lb	a0,32(s2)
    16d8:	0100                	addi	s0,sp,128
    16da:	0705                	addi	a4,a4,1
    16dc:	06090103          	lb	sp,96(s2)
    16e0:	0100                	addi	s0,sp,128
    16e2:	0e090103          	lb	sp,224(s2)
    16e6:	0100                	addi	s0,sp,128
    16e8:	0c05                	addi	s8,s8,1
    16ea:	0e090503          	lb	a0,224(s2)
    16ee:	0100                	addi	s0,sp,128
    16f0:	0d05                	addi	s10,s10,1
    16f2:	06090203          	lb	tp,96(s2)
    16f6:	0100                	addi	s0,sp,128
    16f8:	0705                	addi	a4,a4,1
    16fa:	14090203          	lb	tp,320(s2)
    16fe:	0100                	addi	s0,sp,128
    1700:	1e090103          	lb	sp,480(s2)
    1704:	0100                	addi	s0,sp,128
    1706:	02090403          	lb	s0,32(s2)
    170a:	0100                	addi	s0,sp,128
    170c:	0c090103          	lb	sp,192(s2)
    1710:	0100                	addi	s0,sp,128
    1712:	02090403          	lb	s0,32(s2)
    1716:	0100                	addi	s0,sp,128
    1718:	0b05                	addi	s6,s6,1
    171a:	0e090103          	lb	sp,224(s2)
    171e:	0100                	addi	s0,sp,128
    1720:	0705                	addi	a4,a4,1
    1722:	08090103          	lb	sp,128(s2)
    1726:	0100                	addi	s0,sp,128
    1728:	0b05                	addi	s6,s6,1
    172a:	097ef803          	.insn	4, 0x097ef803
    172e:	0002                	c.slli64	zero
    1730:	0501                	addi	a0,a0,0
    1732:	0309                	addi	t1,t1,2
    1734:	0902                	c.slli64	s2
    1736:	0002                	c.slli64	zero
    1738:	0501                	addi	a0,a0,0
    173a:	0301                	addi	t1,t1,0
    173c:	0189                	addi	gp,gp,2 # 1590 <threadsense.3+0x158c>
    173e:	0209                	addi	tp,tp,2 # 2 <threadsense.2+0x2>
    1740:	0100                	addi	s0,sp,128
    1742:	0c090303          	lb	t1,192(s2)
    1746:	0100                	addi	s0,sp,128
    1748:	0305                	addi	t1,t1,1
    174a:	1e090203          	lb	tp,480(s2)
    174e:	0100                	addi	s0,sp,128
    1750:	14090203          	lb	tp,320(s2)
    1754:	0100                	addi	s0,sp,128
    1756:	0a05                	addi	s4,s4,1
    1758:	18090303          	lb	t1,384(s2)
    175c:	0100                	addi	s0,sp,128
    175e:	0105                	addi	sp,sp,1
    1760:	02090103          	lb	sp,32(s2)
    1764:	0100                	addi	s0,sp,128
    1766:	0305                	addi	t1,t1,1
    1768:	0a090903          	lb	s2,160(s2)
    176c:	0100                	addi	s0,sp,128
    176e:	0c05                	addi	s8,s8,1
    1770:	16090103          	lb	sp,352(s2)
    1774:	0100                	addi	s0,sp,128
    1776:	0605                	addi	a2,a2,1
    1778:	08090103          	lb	sp,128(s2)
    177c:	0100                	addi	s0,sp,128
    177e:	0c05                	addi	s8,s8,1
    1780:	06090003          	lb	zero,96(s2)
    1784:	0100                	addi	s0,sp,128
    1786:	0605                	addi	a2,a2,1
    1788:	0c090103          	lb	sp,192(s2)
    178c:	0100                	addi	s0,sp,128
    178e:	0c05                	addi	s8,s8,1
    1790:	06090003          	lb	zero,96(s2)
    1794:	0100                	addi	s0,sp,128
    1796:	0305                	addi	t1,t1,1
    1798:	0a090103          	lb	sp,160(s2)
    179c:	0100                	addi	s0,sp,128
    179e:	0105                	addi	sp,sp,1
    17a0:	0a097603          	.insn	4, 0x0a097603
    17a4:	0100                	addi	s0,sp,128
    17a6:	0304                	addi	s1,sp,384
    17a8:	0505                	addi	a0,a0,1
    17aa:	097eda03          	lhu	s4,151(t4)
    17ae:	0020                	addi	s0,sp,8
    17b0:	0001                	nop
    17b2:	0402                	c.slli64	s0
    17b4:	0601                	addi	a2,a2,0
    17b6:	08090003          	lb	zero,128(s2)
    17ba:	0100                	addi	s0,sp,128
    17bc:	0104                	addi	s1,sp,128
    17be:	0905                	addi	s2,s2,1
    17c0:	0306                	slli	t1,t1,0x1
    17c2:	01a8                	addi	a0,sp,200
    17c4:	4409                	li	s0,2
    17c6:	0100                	addi	s0,sp,128
    17c8:	0305                	addi	t1,t1,1
    17ca:	08090103          	lb	sp,128(s2)
    17ce:	0100                	addi	s0,sp,128
    17d0:	14090903          	lb	s2,320(s2)
    17d4:	0100                	addi	s0,sp,128
    17d6:	0200                	addi	s0,sp,256
    17d8:	0104                	addi	s1,sp,128
    17da:	0306                	slli	t1,t1,0x1
    17dc:	0900                	addi	s0,sp,144
    17de:	0008                	.insn	2, 0x0008
    17e0:	0601                	addi	a2,a2,0
    17e2:	12090103          	lb	sp,288(s2)
    17e6:	0100                	addi	s0,sp,128
    17e8:	0805                	addi	a6,a6,1
    17ea:	04090003          	lb	zero,64(s2)
    17ee:	0100                	addi	s0,sp,128
    17f0:	0e05                	addi	t3,t3,1
    17f2:	04090303          	lb	t1,64(s2)
    17f6:	0100                	addi	s0,sp,128
    17f8:	0105                	addi	sp,sp,1
    17fa:	0e090103          	lb	sp,224(s2)
    17fe:	0100                	addi	s0,sp,128
    1800:	0a090303          	lb	t1,160(s2)
    1804:	0100                	addi	s0,sp,128
    1806:	0905                	addi	s2,s2,1
    1808:	14090103          	lb	sp,320(s2)
    180c:	0100                	addi	s0,sp,128
    180e:	1b05                	addi	s6,s6,-31
    1810:	04090003          	lb	zero,64(s2)
    1814:	0100                	addi	s0,sp,128
    1816:	1905                	addi	s2,s2,-31
    1818:	04090003          	lb	zero,64(s2)
    181c:	0100                	addi	s0,sp,128
    181e:	2a05                	addiw	s4,s4,1
    1820:	02090003          	lb	zero,32(s2)
    1824:	0100                	addi	s0,sp,128
    1826:	3105                	addiw	sp,sp,-31
    1828:	06090003          	lb	zero,96(s2)
    182c:	0100                	addi	s0,sp,128
    182e:	0605                	addi	a2,a2,1
    1830:	02090003          	lb	zero,32(s2)
    1834:	0100                	addi	s0,sp,128
    1836:	1605                	addi	a2,a2,-31
    1838:	02090103          	lb	sp,32(s2)
    183c:	0100                	addi	s0,sp,128
    183e:	1005                	c.nop	-31
    1840:	08090103          	lb	sp,128(s2)
    1844:	0100                	addi	s0,sp,128
    1846:	0b05                	addi	s6,s6,1
    1848:	08090103          	lb	sp,128(s2)
    184c:	0100                	addi	s0,sp,128
    184e:	1005                	c.nop	-31
    1850:	02090103          	lb	sp,32(s2)
    1854:	0100                	addi	s0,sp,128
    1856:	0905                	addi	s2,s2,1
    1858:	0c090003          	lb	zero,192(s2)
    185c:	0100                	addi	s0,sp,128
    185e:	0e05                	addi	t3,t3,1
    1860:	0c090003          	lb	zero,192(s2)
    1864:	0100                	addi	s0,sp,128
    1866:	0c05                	addi	s8,s8,1
    1868:	02090003          	lb	zero,32(s2)
    186c:	0100                	addi	s0,sp,128
    186e:	2205                	addiw	tp,tp,1 # 1 <threadsense.2+0x1>
    1870:	02097f03          	.insn	4, 0x02097f03
    1874:	0100                	addi	s0,sp,128
    1876:	0e05                	addi	t3,t3,1
    1878:	0a090003          	lb	zero,160(s2)
    187c:	0100                	addi	s0,sp,128
    187e:	1105                	addi	sp,sp,-31
    1880:	0a090303          	lb	t1,160(s2)
    1884:	0100                	addi	s0,sp,128
    1886:	0b05                	addi	s6,s6,1
    1888:	08090103          	lb	sp,128(s2)
    188c:	0100                	addi	s0,sp,128
    188e:	08090103          	lb	sp,128(s2)
    1892:	0100                	addi	s0,sp,128
    1894:	1005                	c.nop	-31
    1896:	02090103          	lb	sp,32(s2)
    189a:	0100                	addi	s0,sp,128
    189c:	0905                	addi	s2,s2,1
    189e:	0c090003          	lb	zero,192(s2)
    18a2:	0100                	addi	s0,sp,128
    18a4:	0e05                	addi	t3,t3,1
    18a6:	0c090003          	lb	zero,192(s2)
    18aa:	0100                	addi	s0,sp,128
    18ac:	0c05                	addi	s8,s8,1
    18ae:	04090003          	lb	zero,64(s2)
    18b2:	0100                	addi	s0,sp,128
    18b4:	1d05                	addi	s10,s10,-31
    18b6:	04097f03          	.insn	4, 0x04097f03
    18ba:	0100                	addi	s0,sp,128
    18bc:	0e05                	addi	t3,t3,1
    18be:	0a090003          	lb	zero,160(s2)
    18c2:	0100                	addi	s0,sp,128
    18c4:	0a05                	addi	s4,s4,1
    18c6:	08090303          	lb	t1,128(s2)
    18ca:	0100                	addi	s0,sp,128
    18cc:	0105                	addi	sp,sp,1
    18ce:	04090103          	lb	sp,64(s2)
    18d2:	0100                	addi	s0,sp,128
    18d4:	0a090303          	lb	t1,160(s2)
    18d8:	0100                	addi	s0,sp,128
    18da:	0905                	addi	s2,s2,1
    18dc:	16090103          	lb	sp,352(s2)
    18e0:	0100                	addi	s0,sp,128
    18e2:	1905                	addi	s2,s2,-31
    18e4:	04090003          	lb	zero,64(s2)
    18e8:	0100                	addi	s0,sp,128
    18ea:	2005                	.insn	2, 0x2005
    18ec:	06090003          	lb	zero,96(s2)
    18f0:	0100                	addi	s0,sp,128
    18f2:	0605                	addi	a2,a2,1
    18f4:	02090003          	lb	zero,32(s2)
    18f8:	0100                	addi	s0,sp,128
    18fa:	1b05                	addi	s6,s6,-31
    18fc:	02090103          	lb	sp,32(s2)
    1900:	0100                	addi	s0,sp,128
    1902:	0f05                	addi	t5,t5,1
    1904:	04090003          	lb	zero,64(s2)
    1908:	0100                	addi	s0,sp,128
    190a:	1205                	addi	tp,tp,-31 # ffffffffffffffe1 <__global_pointer$+0xffffffff7fffd799>
    190c:	08090103          	lb	sp,128(s2)
    1910:	0100                	addi	s0,sp,128
    1912:	0a05                	addi	s4,s4,1
    1914:	06090003          	lb	zero,96(s2)
    1918:	0100                	addi	s0,sp,128
    191a:	1205                	addi	tp,tp,-31 # ffffffffffffffe1 <__global_pointer$+0xffffffff7fffd799>
    191c:	0a090103          	lb	sp,160(s2)
    1920:	0100                	addi	s0,sp,128
    1922:	0a05                	addi	s4,s4,1
    1924:	06090003          	lb	zero,96(s2)
    1928:	0100                	addi	s0,sp,128
    192a:	1805                	addi	a6,a6,-31
    192c:	0a090103          	lb	sp,160(s2)
    1930:	0100                	addi	s0,sp,128
    1932:	0a05                	addi	s4,s4,1
    1934:	06090003          	lb	zero,96(s2)
    1938:	0100                	addi	s0,sp,128
    193a:	1005                	c.nop	-31
    193c:	0a090203          	lb	tp,160(s2)
    1940:	0100                	addi	s0,sp,128
    1942:	0b05                	addi	s6,s6,1
    1944:	08090103          	lb	sp,128(s2)
    1948:	0100                	addi	s0,sp,128
    194a:	0905                	addi	s2,s2,1
    194c:	02090103          	lb	sp,32(s2)
    1950:	0100                	addi	s0,sp,128
    1952:	0c05                	addi	s8,s8,1
    1954:	0c090003          	lb	zero,192(s2)
    1958:	0100                	addi	s0,sp,128
    195a:	2205                	addiw	tp,tp,1 # 1 <threadsense.2+0x1>
    195c:	06097f03          	.insn	4, 0x06097f03
    1960:	0100                	addi	s0,sp,128
    1962:	0e05                	addi	t3,t3,1
    1964:	0a090003          	lb	zero,160(s2)
    1968:	0100                	addi	s0,sp,128
    196a:	0b05                	addi	s6,s6,1
    196c:	0a090303          	lb	t1,160(s2)
    1970:	0100                	addi	s0,sp,128
    1972:	08090103          	lb	sp,128(s2)
    1976:	0100                	addi	s0,sp,128
    1978:	0905                	addi	s2,s2,1
    197a:	02090103          	lb	sp,32(s2)
    197e:	0100                	addi	s0,sp,128
    1980:	0c05                	addi	s8,s8,1
    1982:	0c090003          	lb	zero,192(s2)
    1986:	0100                	addi	s0,sp,128
    1988:	1d05                	addi	s10,s10,-31
    198a:	0c097f03          	.insn	4, 0x0c097f03
    198e:	0100                	addi	s0,sp,128
    1990:	0e05                	addi	t3,t3,1
    1992:	0a090003          	lb	zero,160(s2)
    1996:	0100                	addi	s0,sp,128
    1998:	0a05                	addi	s4,s4,1
    199a:	08090303          	lb	t1,128(s2)
    199e:	0100                	addi	s0,sp,128
    19a0:	0105                	addi	sp,sp,1
    19a2:	04090103          	lb	sp,64(s2)
    19a6:	0100                	addi	s0,sp,128
    19a8:	0a090303          	lb	t1,160(s2)
    19ac:	0100                	addi	s0,sp,128
    19ae:	0f05                	addi	t5,t5,1
    19b0:	0c090103          	lb	sp,192(s2)
    19b4:	0100                	addi	s0,sp,128
    19b6:	0905                	addi	s2,s2,1
    19b8:	08090103          	lb	sp,128(s2)
    19bc:	0100                	addi	s0,sp,128
    19be:	0605                	addi	a2,a2,1
    19c0:	02090103          	lb	sp,32(s2)
    19c4:	0100                	addi	s0,sp,128
    19c6:	0a05                	addi	s4,s4,1
    19c8:	0a097f03          	.insn	4, 0x0a097f03
    19cc:	0100                	addi	s0,sp,128
    19ce:	0c05                	addi	s8,s8,1
    19d0:	0a090203          	lb	tp,160(s2)
    19d4:	0100                	addi	s0,sp,128
    19d6:	0105                	addi	sp,sp,1
    19d8:	0c090103          	lb	sp,192(s2)
    19dc:	0100                	addi	s0,sp,128
    19de:	0a090303          	lb	t1,160(s2)
    19e2:	0100                	addi	s0,sp,128
    19e4:	0f05                	addi	t5,t5,1
    19e6:	10090103          	lb	sp,256(s2)
    19ea:	0100                	addi	s0,sp,128
    19ec:	0905                	addi	s2,s2,1
    19ee:	08090103          	lb	sp,128(s2)
    19f2:	0100                	addi	s0,sp,128
    19f4:	0605                	addi	a2,a2,1
    19f6:	02090103          	lb	sp,32(s2)
    19fa:	0100                	addi	s0,sp,128
    19fc:	0b05                	addi	s6,s6,1
    19fe:	0a097f03          	.insn	4, 0x0a097f03
    1a02:	0100                	addi	s0,sp,128
    1a04:	0e05                	addi	t3,t3,1
    1a06:	0c090003          	lb	zero,192(s2)
    1a0a:	0100                	addi	s0,sp,128
    1a0c:	1105                	addi	sp,sp,-31
    1a0e:	0200                	addi	s0,sp,256
    1a10:	0104                	addi	s1,sp,128
    1a12:	02090003          	lb	zero,32(s2)
    1a16:	0100                	addi	s0,sp,128
    1a18:	0e05                	addi	t3,t3,1
    1a1a:	0200                	addi	s0,sp,256
    1a1c:	0104                	addi	s1,sp,128
    1a1e:	08090003          	lb	zero,128(s2)
    1a22:	0100                	addi	s0,sp,128
    1a24:	0c05                	addi	s8,s8,1
    1a26:	02090203          	lb	tp,32(s2)
    1a2a:	0100                	addi	s0,sp,128
    1a2c:	0105                	addi	sp,sp,1
    1a2e:	0c090103          	lb	sp,192(s2)
    1a32:	0100                	addi	s0,sp,128
    1a34:	0a090303          	lb	t1,160(s2)
    1a38:	0100                	addi	s0,sp,128
    1a3a:	0d05                	addi	s10,s10,1
    1a3c:	10090403          	lb	s0,256(s2)
    1a40:	0100                	addi	s0,sp,128
    1a42:	0805                	addi	a6,a6,1
    1a44:	0c090003          	lb	zero,192(s2)
    1a48:	0100                	addi	s0,sp,128
    1a4a:	0d05                	addi	s10,s10,1
    1a4c:	08090103          	lb	sp,128(s2)
    1a50:	0100                	addi	s0,sp,128
    1a52:	0805                	addi	a6,a6,1
    1a54:	0c090003          	lb	zero,192(s2)
    1a58:	0100                	addi	s0,sp,128
    1a5a:	1405                	addi	s0,s0,-31
    1a5c:	0200                	addi	s0,sp,256
    1a5e:	0204                	addi	s1,sp,256
    1a60:	08090103          	lb	sp,128(s2)
    1a64:	0100                	addi	s0,sp,128
    1a66:	0200                	addi	s0,sp,256
    1a68:	0104                	addi	s1,sp,128
    1a6a:	0306                	slli	t1,t1,0x1
    1a6c:	0900                	addi	s0,sp,144
    1a6e:	000a                	c.slli	zero,0x2
    1a70:	0501                	addi	a0,a0,0
    1a72:	060d                	addi	a2,a2,3
    1a74:	16090203          	lb	tp,352(s2)
    1a78:	0100                	addi	s0,sp,128
    1a7a:	0105                	addi	sp,sp,1
    1a7c:	14090103          	lb	sp,320(s2)
    1a80:	0100                	addi	s0,sp,128
    1a82:	0a090303          	lb	t1,160(s2)
    1a86:	0100                	addi	s0,sp,128
    1a88:	0905                	addi	s2,s2,1
    1a8a:	10090103          	lb	sp,256(s2)
    1a8e:	0100                	addi	s0,sp,128
    1a90:	08090103          	lb	sp,128(s2)
    1a94:	0100                	addi	s0,sp,128
    1a96:	1605                	addi	a2,a2,-31
    1a98:	0200                	addi	s0,sp,256
    1a9a:	0104                	addi	s1,sp,128
    1a9c:	02090003          	lb	zero,32(s2)
    1aa0:	0100                	addi	s0,sp,128
    1aa2:	0d05                	addi	s10,s10,1
    1aa4:	0200                	addi	s0,sp,256
    1aa6:	0104                	addi	s1,sp,128
    1aa8:	0c090003          	lb	zero,192(s2)
    1aac:	0100                	addi	s0,sp,128
    1aae:	1205                	addi	tp,tp,-31 # ffffffffffffffe1 <__global_pointer$+0xffffffff7fffd799>
    1ab0:	0200                	addi	s0,sp,256
    1ab2:	0104                	addi	s1,sp,128
    1ab4:	0c090003          	lb	zero,192(s2)
    1ab8:	0100                	addi	s0,sp,128
    1aba:	1005                	c.nop	-31
    1abc:	0200                	addi	s0,sp,256
    1abe:	0104                	addi	s1,sp,128
    1ac0:	04090003          	lb	zero,64(s2)
    1ac4:	0100                	addi	s0,sp,128
    1ac6:	0b05                	addi	s6,s6,1
    1ac8:	0200                	addi	s0,sp,256
    1aca:	0104                	addi	s1,sp,128
    1acc:	04090003          	lb	zero,64(s2)
    1ad0:	0100                	addi	s0,sp,128
    1ad2:	0a05                	addi	s4,s4,1
    1ad4:	0200                	addi	s0,sp,256
    1ad6:	0104                	addi	s1,sp,128
    1ad8:	04090003          	lb	zero,64(s2)
    1adc:	0100                	addi	s0,sp,128
    1ade:	02090203          	lb	tp,32(s2)
    1ae2:	0100                	addi	s0,sp,128
    1ae4:	0105                	addi	sp,sp,1
    1ae6:	04090103          	lb	sp,64(s2)
    1aea:	0100                	addi	s0,sp,128
    1aec:	0a090303          	lb	t1,160(s2)
    1af0:	0100                	addi	s0,sp,128
    1af2:	0805                	addi	a6,a6,1
    1af4:	0c090103          	lb	sp,192(s2)
    1af8:	0100                	addi	s0,sp,128
    1afa:	0705                	addi	a4,a4,1
    1afc:	04090103          	lb	sp,64(s2)
    1b00:	0100                	addi	s0,sp,128
    1b02:	0905                	addi	s2,s2,1
    1b04:	04090203          	lb	tp,64(s2)
    1b08:	0100                	addi	s0,sp,128
    1b0a:	0805                	addi	a6,a6,1
    1b0c:	02090103          	lb	sp,32(s2)
    1b10:	0100                	addi	s0,sp,128
    1b12:	0a05                	addi	s4,s4,1
    1b14:	0a097f03          	.insn	4, 0x0a097f03
    1b18:	0100                	addi	s0,sp,128
    1b1a:	0f05                	addi	t5,t5,1
    1b1c:	08090003          	lb	zero,128(s2)
    1b20:	0100                	addi	s0,sp,128
    1b22:	0705                	addi	a4,a4,1
    1b24:	0a090303          	lb	t1,160(s2)
    1b28:	0100                	addi	s0,sp,128
    1b2a:	0605                	addi	a2,a2,1
    1b2c:	08090003          	lb	zero,128(s2)
    1b30:	0100                	addi	s0,sp,128
    1b32:	1605                	addi	a2,a2,-31
    1b34:	0200                	addi	s0,sp,256
    1b36:	0104                	addi	s1,sp,128
    1b38:	0a090003          	lb	zero,160(s2)
    1b3c:	0100                	addi	s0,sp,128
    1b3e:	1305                	addi	t1,t1,-31
    1b40:	0200                	addi	s0,sp,256
    1b42:	0104                	addi	s1,sp,128
    1b44:	08090003          	lb	zero,128(s2)
    1b48:	0100                	addi	s0,sp,128
    1b4a:	0c05                	addi	s8,s8,1
    1b4c:	0a090103          	lb	sp,160(s2)
    1b50:	0100                	addi	s0,sp,128
    1b52:	1105                	addi	sp,sp,-31
    1b54:	08090003          	lb	zero,128(s2)
    1b58:	0100                	addi	s0,sp,128
    1b5a:	0a05                	addi	s4,s4,1
    1b5c:	14090003          	lb	zero,320(s2)
    1b60:	0100                	addi	s0,sp,128
    1b62:	0805                	addi	a6,a6,1
    1b64:	04090103          	lb	sp,64(s2)
    1b68:	0100                	addi	s0,sp,128
    1b6a:	0905                	addi	s2,s2,1
    1b6c:	0a090303          	lb	t1,160(s2)
    1b70:	0100                	addi	s0,sp,128
    1b72:	02090103          	lb	sp,32(s2)
    1b76:	0100                	addi	s0,sp,128
    1b78:	1005                	c.nop	-31
    1b7a:	10090103          	lb	sp,256(s2)
    1b7e:	0100                	addi	s0,sp,128
    1b80:	0c05                	addi	s8,s8,1
    1b82:	0c090003          	lb	zero,192(s2)
    1b86:	0100                	addi	s0,sp,128
    1b88:	1305                	addi	t1,t1,-31
    1b8a:	06090003          	lb	zero,96(s2)
    1b8e:	0100                	addi	s0,sp,128
    1b90:	0905                	addi	s2,s2,1
    1b92:	08090003          	lb	zero,128(s2)
    1b96:	0100                	addi	s0,sp,128
    1b98:	0a05                	addi	s4,s4,1
    1b9a:	0a097e03          	.insn	4, 0x0a097e03
    1b9e:	0100                	addi	s0,sp,128
    1ba0:	1605                	addi	a2,a2,-31
    1ba2:	0a090503          	lb	a0,160(s2)
    1ba6:	0100                	addi	s0,sp,128
    1ba8:	0200                	addi	s0,sp,256
    1baa:	0104                	addi	s1,sp,128
    1bac:	0306                	slli	t1,t1,0x1
    1bae:	0900                	addi	s0,sp,144
    1bb0:	0008                	.insn	2, 0x0008
    1bb2:	0301                	addi	t1,t1,0
    1bb4:	0900                	addi	s0,sp,144
    1bb6:	0008                	.insn	2, 0x0008
    1bb8:	0001                	nop
    1bba:	0402                	c.slli64	s0
    1bbc:	0302                	c.slli64	t1
    1bbe:	0900                	addi	s0,sp,144
    1bc0:	0002                	c.slli64	zero
    1bc2:	0501                	addi	a0,a0,0
    1bc4:	0601                	addi	a2,a2,0
    1bc6:	04090103          	lb	sp,64(s2)
    1bca:	0100                	addi	s0,sp,128
    1bcc:	0a09                	addi	s4,s4,2
    1bce:	0000                	unimp
    1bd0:	0101                	addi	sp,sp,0

Disassembly of section .debug_str:

0000000000000000 <.debug_str>:
   0:	6e756f63          	bltu	a0,t2,6fe <threadsense.3+0x6fa>
   4:	0074                	addi	a3,sp,12
   6:	5f5f 6975 746e      	.insn	6, 0x746e69755f5f
   c:	7470                	ld	a2,232(s0)
   e:	5f72                	lw	t5,60(sp)
  10:	0074                	addi	a3,sp,12
  12:	5f5f 6e69 3374      	.insn	6, 0x33746e695f5f
  18:	5f32                	lw	t5,44(sp)
  1a:	0074                	addi	a3,sp,12
  1c:	6966                	ld	s2,88(sp)
  1e:	3172                	fld	ft2,312(sp)
  20:	632e                	ld	t1,200(sp)
  22:	6d00                	ld	s0,24(a0)
  24:	6c75                	lui	s8,0x1d
  26:	715f 3133 6e00      	.insn	6, 0x6e003133715f
  2c:	65726f63          	bltu	tp,s7,68a <threadsense.3+0x686>
  30:	6e690073          	.insn	4, 0x6e690073
  34:	6c5f6e73          	csrrsi	t3,0x6c5,30
  38:	6e65                	lui	t3,0x19
  3a:	7500                	ld	s0,40(a0)
  3c:	736e                	ld	t1,248(sp)
  3e:	6769                	lui	a4,0x1a
  40:	656e                	ld	a0,216(sp)
  42:	2064                	fld	fs1,192(s0)
  44:	72616863          	bltu	sp,t1,774 <threadsense.3+0x770>
  48:	6c00                	ld	s0,24(s0)
  4a:	7366                	ld	t1,120(sp)
  4c:	0072                	c.slli	zero,0x1c
  4e:	7865                	lui	a6,0xffff9
  50:	6570                	ld	a2,200(a0)
  52:	64657463          	bgeu	a0,t1,69a <threadsense.3+0x696>
  56:	7300                	ld	s0,32(a4)
  58:	6f68                	ld	a0,216(a4)
  5a:	7472                	ld	s0,312(sp)
  5c:	7520                	ld	s0,104(a0)
  5e:	736e                	ld	t1,248(sp)
  60:	6769                	lui	a4,0x1a
  62:	656e                	ld	a0,216(sp)
  64:	2064                	fld	fs1,192(s0)
  66:	6e69                	lui	t3,0x1a
  68:	0074                	addi	a3,sp,12
  6a:	6874                	ld	a3,208(s0)
  6c:	6572                	ld	a0,280(sp)
  6e:	6461                	lui	s0,0x18
  70:	736e6573          	csrrsi	a0,mhpmevent22h,28
  74:	0065                	c.nop	25
  76:	6576                	ld	a0,344(sp)
  78:	6972                	ld	s2,280(sp)
  7a:	7966                	ld	s2,120(sp)
  7c:	6100                	ld	s0,0(a0)
  7e:	6464                	ld	s1,200(s0)
  80:	715f 3133 6200      	.insn	6, 0x62003133715f
  86:	7261                	lui	tp,0xffff8
  88:	6972                	ld	s2,280(sp)
  8a:	7265                	lui	tp,0xffff9
  8c:	6d00                	ld	s0,24(a0)
  8e:	6961                	lui	s2,0x18
  90:	006e                	c.slli	zero,0x1b
  92:	6574                	ld	a3,200(a0)
  94:	6c007473          	csrrci	s0,0x6c0,0
  98:	20676e6f          	jal	t3,7629e <threadsense.3+0x7629a>
  9c:	6f6c                	ld	a1,216(a4)
  9e:	676e                	ld	a4,216(sp)
  a0:	7520                	ld	s0,104(a0)
  a2:	736e                	ld	t1,248(sp)
  a4:	6769                	lui	a4,0x1a
  a6:	656e                	ld	a0,216(sp)
  a8:	2064                	fld	fs1,192(s0)
  aa:	6e69                	lui	t3,0x1a
  ac:	0074                	addi	a3,sp,12
  ae:	6572                	ld	a0,280(sp)
  b0:	746c7573          	csrrci	a0,0x746,24
  b4:	6c00                	ld	s0,24(s0)
  b6:	20676e6f          	jal	t3,762bc <threadsense.3+0x762b8>
  ba:	6f6c                	ld	a1,216(a4)
  bc:	676e                	ld	a4,216(sp)
  be:	6920                	ld	s0,80(a0)
  c0:	746e                	ld	s0,248(sp)
  c2:	6c00                	ld	s0,24(s0)
  c4:	6170776f          	jal	a4,7eda <threadsense.3+0x7ed6>
  c8:	73007373          	csrrci	t1,mhpmevent16h,0
  cc:	6e69                	lui	t3,0x1a
  ce:	745f 6261 656c      	.insn	6, 0x656c6261745f
  d4:	7300                	ld	s0,32(a4)
  d6:	6f68                	ld	a0,216(a4)
  d8:	7472                	ld	s0,312(sp)
  da:	6920                	ld	s0,80(a0)
  dc:	746e                	ld	s0,248(sp)
  de:	5f00                	lw	s0,56(a4)
  e0:	755f 6e69 3674      	.insn	6, 0x36746e69755f
  e6:	5f34                	lw	a3,120(a4)
  e8:	0074                	addi	a3,sp,12
  ea:	6576                	ld	a0,344(sp)
  ec:	6972                	ld	s2,280(sp)
  ee:	7966                	ld	s2,120(sp)
  f0:	6f44                	ld	s1,152(a4)
  f2:	6275                	lui	tp,0x1d
  f4:	656c                	ld	a1,200(a0)
  f6:	4700                	lw	s0,8(a4)
  f8:	554e                	lw	a0,240(sp)
  fa:	4320                	lw	s0,64(a4)
  fc:	3731                	addiw	a4,a4,-20 # 19fec <threadsense.3+0x19fe8>
  fe:	3120                	fld	fs0,96(a0)
 100:	2e34                	fld	fa3,88(a2)
 102:	2e32                	fld	ft8,264(sp)
 104:	2030                	fld	fa2,64(s0)
 106:	6d2d                	lui	s10,0xb
 108:	6261                	lui	tp,0x18
 10a:	3d69                	addiw	s10,s10,-6 # affa <threadsense.3+0xaff6>
 10c:	706c                	ld	a1,224(s0)
 10e:	3436                	fld	fs0,360(sp)
 110:	2064                	fld	fs1,192(s0)
 112:	6d2d                	lui	s10,0xb
 114:	646f6d63          	bltu	t5,t1,76e <threadsense.3+0x76a>
 118:	6c65                	lui	s8,0x19
 11a:	6d3d                	lui	s10,0xf
 11c:	6465                	lui	s0,0x19
 11e:	6e61                	lui	t3,0x18
 120:	2079                	.insn	2, 0x2079
 122:	6d2d                	lui	s10,0xb
 124:	7574                	ld	a3,232(a0)
 126:	656e                	ld	a0,216(sp)
 128:	723d                	lui	tp,0xfffef
 12a:	656b636f          	jal	t1,b6780 <threadsense.3+0xb677c>
 12e:	2074                	fld	fa3,192(s0)
 130:	6d2d                	lui	s10,0xb
 132:	7369                	lui	t1,0xffffa
 134:	2d61                	addiw	s10,s10,24 # b018 <threadsense.3+0xb014>
 136:	63657073          	csrci	0x636,10
 13a:	323d                	addiw	tp,tp,-17 # fffffffffffeefef <__global_pointer$+0xffffffff7ffec7a7>
 13c:	3130                	fld	fa2,96(a0)
 13e:	3139                	addiw	sp,sp,-18
 140:	3132                	fld	ft2,296(sp)
 142:	6d2d2033          	.insn	4, 0x6d2d2033
 146:	7261                	lui	tp,0xffff8
 148:	723d6863          	bltu	s10,gp,878 <threadsense.3+0x874>
 14c:	3676                	fld	fa2,376(sp)
 14e:	6934                	ld	a3,80(a0)
 150:	616d                	addi	sp,sp,240
 152:	6466                	ld	s0,88(sp)
 154:	697a5f63          	bge	s4,s7,7f2 <threadsense.3+0x7ee>
 158:	5f727363          	bgeu	tp,s7,73e <threadsense.3+0x73a>
 15c:	697a                	ld	s2,408(sp)
 15e:	6566                	ld	a0,88(sp)
 160:	636e                	ld	t1,216(sp)
 162:	6965                	lui	s2,0x19
 164:	2d20                	fld	fs0,88(a0)
 166:	61776467          	.insn	4, 0x61776467
 16a:	6672                	ld	a2,280(sp)
 16c:	322d                	addiw	tp,tp,-21 # ffffffffffff7feb <__global_pointer$+0xffffffff7fff57a3>
 16e:	2d20                	fld	fs0,88(a0)
 170:	6e66                	ld	t3,88(sp)
 172:	72742d6f          	jal	s10,43098 <threadsense.3+0x43094>
 176:	6565                	lui	a0,0x19
 178:	6c2d                	lui	s8,0xb
 17a:	2d706f6f          	jal	t5,6c50 <threadsense.3+0x6c4c>
 17e:	6964                	ld	s1,208(a0)
 180:	69727473          	csrrci	s0,0x697,4
 184:	7562                	ld	a0,56(sp)
 186:	6574                	ld	a3,200(a0)
 188:	702d                	c.lui	zero,0xfffeb
 18a:	7461                	lui	s0,0xffff8
 18c:	6574                	ld	a3,200(a0)
 18e:	6e72                	ld	t3,280(sp)
 190:	6f6c0073          	.insn	4, 0x6f6c0073
 194:	676e                	ld	a4,216(sp)
 196:	6420                	ld	s0,72(s0)
 198:	6c62756f          	jal	a0,2785e <threadsense.3+0x2785a>
 19c:	0065                	c.nop	25
 19e:	6d6f682f          	.insn	4, 0x6d6f682f
 1a2:	2f65                	addiw	t5,t5,25
 1a4:	736a                	ld	t1,184(sp)
 1a6:	6974                	ld	a3,208(a0)
 1a8:	656e                	ld	a0,216(sp)
 1aa:	6563652f          	.insn	4, 0x6563652f
 1ae:	346e                	fld	fs0,248(sp)
 1b0:	3432                	fld	fs0,296(sp)
 1b2:	35325333          	.insn	4, 0x35325333
 1b6:	62616c2f          	.insn	4, 0x62616c2f
 1ba:	0031                	c.nop	12
 1bc:	53746573          	csrrsi	a0,0x537,8
 1c0:	6174                	ld	a3,192(a0)
 1c2:	7374                	ld	a3,224(a4)
 1c4:	6300                	ld	s0,0(a4)
 1c6:	6f6d6d6f          	jal	s10,d68bc <threadsense.3+0xd68b8>
 1ca:	2f6e                	fld	ft10,216(sp)
 1cc:	2e747263          	bgeu	s0,t2,4b0 <threadsense.3+0x4ac>
 1d0:	4e470053          	.insn	4, 0x4e470053
 1d4:	2055                	.insn	2, 0x2055
 1d6:	5341                	li	t1,-16
 1d8:	3220                	fld	fs0,96(a2)
 1da:	342e                	fld	fs0,232(sp)
 1dc:	00312e33          	slt	t3,sp,gp
 1e0:	6c727473          	csrrci	s0,0x6c7,4
 1e4:	6e65                	lui	t3,0x19
 1e6:	7500                	ld	s0,40(a0)
 1e8:	7261                	lui	tp,0xffff8
 1ea:	5374                	lw	a3,100(a4)
 1ec:	6e65                	lui	t3,0x19
 1ee:	0064                	addi	s1,sp,12
 1f0:	6e727473          	csrrci	s0,0x6e7,4
 1f4:	656c                	ld	a1,200(a0)
 1f6:	006e                	c.slli	zero,0x1b
 1f8:	7270                	ld	a2,224(a2)
 1fa:	7365636f          	jal	t1,56930 <threadsense.3+0x5692c>
 1fe:	72705f73          	csrrwi	t5,mhpmevent7h,0
 202:	6365                	lui	t1,0x19
 204:	7369                	lui	t1,0xffffa
 206:	6f69                	lui	t5,0x1a
 208:	006e                	c.slli	zero,0x1b
 20a:	6474                	ld	a3,200(s0)
 20c:	7461                	lui	s0,0xffff8
 20e:	5f61                	li	t5,-8
 210:	657a6973          	csrrsi	s2,hviprio2h,20
 214:	7500                	ld	s0,40(a0)
 216:	7261                	lui	tp,0xffff8
 218:	5074                	lw	a3,100(s0)
 21a:	7475                	lui	s0,0xffffd
 21c:	00727453          	fadd.s	fs0,ft4,ft7
 220:	745f 6164 6174      	.insn	6, 0x61746164745f
 226:	655f 646e 6700      	.insn	6, 0x6700646e655f
 22c:	7465                	lui	s0,0xffff9
 22e:	6975                	lui	s2,0x1d
 230:	746e                	ld	s0,248(sp)
 232:	7000                	ld	s0,32(s0)
 234:	7475                	lui	s0,0xffffd
 236:	72616863          	bltu	sp,t1,966 <threadsense.3+0x962>
 23a:	7200                	ld	s0,32(a2)
 23c:	6765                	lui	a4,0x19
 23e:	72700073          	.insn	4, 0x72700073
 242:	6e69                	lui	t3,0x1a
 244:	7374                	ld	a3,224(a4)
 246:	7274                	ld	a3,224(a2)
 248:	7400                	ld	s0,40(s0)
 24a:	7268                	ld	a0,224(a2)
 24c:	6165                	addi	sp,sp,112
 24e:	5f64                	lw	s1,124(a4)
 250:	6e65                	lui	t3,0x19
 252:	7274                	ld	a3,224(a2)
 254:	0079                	c.nop	30
 256:	63727473          	csrrci	s0,0x637,4
 25a:	7970                	ld	a2,240(a0)
 25c:	6200                	ld	s0,0(a2)
 25e:	7361                	lui	t1,0xffff8
 260:	0065                	c.nop	25
 262:	7270                	ld	a2,224(a2)
 264:	6e69                	lui	t3,0x1a
 266:	6e74                	ld	a3,216(a2)
 268:	6d75                	lui	s10,0x1d
 26a:	6500                	ld	s0,8(a0)
 26c:	616e                	ld	sp,216(sp)
 26e:	6c62                	ld	s8,24(sp)
 270:	0065                	c.nop	25
 272:	6261                	lui	tp,0x18
 274:	0074726f          	jal	tp,47a7a <threadsense.3+0x47a76>
 278:	5f5f 6e67 6375      	.insn	6, 0x63756e675f5f
 27e:	765f 5f61 696c      	.insn	6, 0x696c5f61765f
 284:	70007473          	csrrci	s0,0x700,0
 288:	7475                	lui	s0,0xffffd
 28a:	61700073          	.insn	4, 0x61700073
 28e:	6364                	ld	s1,192(a4)
 290:	7300                	ld	s0,32(a4)
 292:	7a69                	lui	s4,0xffffa
 294:	5f65                	li	t5,-7
 296:	0074                	addi	a3,sp,12
 298:	6e676973          	csrrsi	s2,0x6e6,14
 29c:	7700                	ld	s0,40(a4)
 29e:	6469                	lui	s0,0x1a
 2a0:	6874                	ld	a3,208(s0)
 2a2:	7400                	ld	s0,40(s0)
 2a4:	736f686f          	jal	a6,f69da <threadsense.3+0xf69d6>
 2a8:	5f74                	lw	a3,124(a4)
 2aa:	7865                	lui	a6,0xffff9
 2ac:	7469                	lui	s0,0xffffa
 2ae:	7000                	ld	s0,32(s0)
 2b0:	7562                	ld	a0,56(sp)
 2b2:	0066                	c.slli	zero,0x19
 2b4:	30727473          	csrrci	s0,0x307,4
 2b8:	6300                	ld	s0,0(a4)
 2ba:	746e756f          	jal	a0,e7a00 <threadsense.3+0xe79fc>
 2be:	7265                	lui	tp,0xffff9
 2c0:	6f630073          	.insn	4, 0x6f630073
 2c4:	6564                	ld	s1,200(a0)
 2c6:	7500                	ld	s0,40(a0)
 2c8:	7261                	lui	tp,0xffff8
 2ca:	4974                	lw	a3,84(a0)
 2cc:	696e                	ld	s2,216(sp)
 2ce:	0074                	addi	a3,sp,12
 2d0:	4155                	li	sp,21
 2d2:	5452                	lw	s0,52(sp)
 2d4:	4c5f 5243 6c00      	.insn	6, 0x6c0052434c5f
 2da:	7361                	lui	t1,0xffff8
 2dc:	5f74                	lw	a3,124(a4)
 2de:	6d66                	ld	s10,88(sp)
 2e0:	0074                	addi	a3,sp,12
 2e2:	6572                	ld	a0,280(sp)
 2e4:	74697773          	csrrci	a4,0x746,18
 2e8:	64006863          	bltu	zero,zero,938 <threadsense.3+0x934>
 2ec:	7461                	lui	s0,0xffff8
 2ee:	0061                	c.nop	24
 2f0:	63727473          	csrrci	s0,0x637,4
 2f4:	706d                	c.lui	zero,0xffffb
 2f6:	6c00                	ld	s0,24(s0)
 2f8:	6c66                	ld	s8,88(sp)
 2fa:	6761                	lui	a4,0x18
 2fc:	6300                	ld	s0,0(a4)
 2fe:	7561                	lui	a0,0xffff8
 300:	55006573          	csrrsi	a0,0x550,0
 304:	5241                	li	tp,-16
 306:	5f54                	lw	a3,60(a4)
 308:	534c                	lw	a1,36(a4)
 30a:	0052                	c.slli	zero,0x14
 30c:	6175                	addi	sp,sp,368
 30e:	7472                	ld	s0,312(sp)
 310:	6552                	ld	a0,272(sp)
 312:	76696563          	bltu	s2,t1,a7c <threadsense.3+0xa78>
 316:	0065                	c.nop	25
 318:	7370                	ld	a2,224(a4)
 31a:	7274                	ld	a3,224(a2)
 31c:	6d00                	ld	s0,24(a0)
 31e:	6d65                	lui	s10,0x19
 320:	00746573          	csrrsi	a0,0x7,8
 324:	7261                	lui	tp,0xffff8
 326:	61003067          	.insn	4, 0x61003067
 32a:	6772                	ld	a4,280(sp)
 32c:	0031                	c.nop	12
 32e:	7261                	lui	tp,0xffff8
 330:	5f003267          	.insn	4, 0x5f003267
 334:	6e69                	lui	t3,0x1a
 336:	7469                	lui	s0,0xffffa
 338:	7300                	ld	s0,32(a4)
 33a:	7379                	lui	t1,0xffffe
 33c:	6c6c6163          	bltu	s8,t1,9fe <threadsense.3+0x9fa>
 340:	6700                	ld	s0,8(a4)
 342:	7465                	lui	s0,0xffff9
 344:	6e69                	lui	t3,0x1a
 346:	0074                	addi	a3,sp,12
 348:	6e75                	lui	t3,0x1d
 34a:	6e676973          	csrrsi	s2,0x6e6,14
 34e:	6465                	lui	s0,0x19
 350:	6e5f 6d75 6562      	.insn	6, 0x65626d756e5f
 356:	0072                	c.slli	zero,0x1c
 358:	7570                	ld	a2,232(a0)
 35a:	6474                	ld	a3,200(s0)
 35c:	7461                	lui	s0,0xffff8
 35e:	6100                	ld	s0,0(a0)
 360:	6772                	ld	a4,280(sp)
 362:	68770063          	beq	a4,t2,9e2 <threadsense.3+0x9de>
 366:	6369                	lui	t1,0x1a
 368:	0068                	addi	a0,sp,12
 36a:	7261                	lui	tp,0xffff8
 36c:	73007667          	.insn	4, 0x73007667
 370:	7270                	ld	a2,224(a2)
 372:	6e69                	lui	t3,0x1a
 374:	6674                	ld	a3,200(a2)
 376:	5f00                	lw	s0,56(a4)
 378:	6474                	ld	a3,200(s0)
 37a:	7461                	lui	s0,0xffff8
 37c:	5f61                	li	t5,-8
 37e:	6562                	ld	a0,24(sp)
 380:	006e6967          	.insn	4, 0x006e6967
 384:	6c61                	lui	s8,0x18
 386:	6674                	ld	a3,200(a2)
 388:	616c                	ld	a1,192(a0)
 38a:	41550067          	jr	1045(a0) # ffffffffffff8415 <__global_pointer$+0xffffffff7fff5bcd>
 38e:	5452                	lw	s0,52(sp)
 390:	545f 5248 7400      	.insn	6, 0x74005248545f
 396:	7362                	ld	t1,56(sp)
 398:	69735f73          	csrrwi	t5,0x697,6
 39c:	657a                	ld	a0,408(sp)
 39e:	7400                	ld	s0,40(s0)
 3a0:	7268                	ld	a0,224(a2)
 3a2:	6165                	addi	sp,sp,112
 3a4:	5f64                	lw	s1,124(a4)
 3a6:	6f70                	ld	a2,216(a4)
 3a8:	6e69                	lui	t3,0x1a
 3aa:	6574                	ld	a3,200(a0)
 3ac:	0072                	c.slli	zero,0x1c
 3ae:	6e756f63          	bltu	a0,t2,aac <threadsense.3+0xaa8>
 3b2:	6574                	ld	a3,200(a0)
 3b4:	5f72                	lw	t5,60(sp)
 3b6:	616e                	ld	sp,216(sp)
 3b8:	656d                	lui	a0,0x1b
 3ba:	6f770073          	.insn	4, 0x6f770073
 3be:	6472                	ld	s0,280(sp)
 3c0:	5f00                	lw	s0,56(a4)
 3c2:	6274                	ld	a3,192(a2)
 3c4:	655f7373          	csrrci	t1,hviph,30
 3c8:	646e                	ld	s0,216(sp)
 3ca:	5500                	lw	s0,40(a0)
 3cc:	5241                	li	tp,-16
 3ce:	5f54                	lw	a3,60(a4)
 3d0:	4252                	lw	tp,20(sp)
 3d2:	0052                	c.slli	zero,0x14
 3d4:	5f5f 6975 746e      	.insn	6, 0x746e69755f5f
 3da:	5f38                	lw	a4,120(a4)
 3dc:	0074                	addi	a3,sp,12
 3de:	6f74                	ld	a3,216(a4)
 3e0:	6f68                	ld	a0,216(a4)
 3e2:	64007473          	csrrci	s0,0x640,0
 3e6:	6769                	lui	a4,0x1a
 3e8:	70730073          	.insn	4, 0x70730073
 3ec:	6972                	ld	s2,280(sp)
 3ee:	746e                	ld	s0,248(sp)
 3f0:	5f66                	lw	t5,120(sp)
 3f2:	7570                	ld	a2,232(a0)
 3f4:	6374                	ld	a3,192(a4)
 3f6:	0068                	addi	a0,sp,12
 3f8:	7962                	ld	s2,56(sp)
 3fa:	6574                	ld	a3,200(a0)
 3fc:	7000                	ld	s0,32(s0)
 3fe:	6972                	ld	s2,280(sp)
 400:	746e                	ld	s0,248(sp)
 402:	6568                	ld	a0,200(a0)
 404:	0078                	addi	a4,sp,12
 406:	616d                	addi	sp,sp,240
 408:	5f636967          	.insn	4, 0x5f636967
 40c:	656d                	lui	a0,0x1b
 40e:	006d                	c.nop	27
 410:	6168                	ld	a0,192(a0)
 412:	646e                	ld	s0,216(sp)
 414:	656c                	ld	a1,200(a0)
 416:	745f 6172 0070      	.insn	6, 0x00706172745f
 41c:	7266                	ld	tp,120(sp)
 41e:	6f686d6f          	jal	s10,86b14 <threadsense.3+0x86b10>
 422:	6d007473          	csrrci	s0,0x6d0,0
 426:	6d65                	lui	s10,0x19
 428:	00797063          	bgeu	s2,t2,428 <threadsense.3+0x424>
 42c:	5f5f 6d74 0070      	.insn	6, 0x00706d745f5f
 432:	5f5f 7562 6c69      	.insn	6, 0x6c6975625f5f
 438:	6974                	ld	a3,208(a0)
 43a:	5f6e                	lw	t5,248(sp)
 43c:	6176                	ld	sp,344(sp)
 43e:	6c5f 7369 0074      	.insn	6, 0x007473696c5f
 444:	7461                	lui	s0,0xffff8
 446:	69006c6f          	jal	s8,6ad6 <threadsense.3+0x6ad2>
 44a:	696e                	ld	s2,216(sp)
 44c:	5f74                	lw	a3,124(a4)
 44e:	6c74                	ld	a3,216(s0)
 450:	65640073          	.insn	4, 0x65640073
 454:	76007473          	csrrci	s0,0x760,0
 458:	7270                	ld	a2,224(a2)
 45a:	6e69                	lui	t3,0x1a
 45c:	6674                	ld	a3,200(a2)
 45e:	746d                	lui	s0,0xffffb
 460:	6300                	ld	s0,0(a4)
 462:	6f6d6d6f          	jal	s10,d6b58 <threadsense.3+0xd6b54>
 466:	2f6e                	fld	ft10,216(sp)
 468:	63737973          	csrrci	s2,0x637,6
 46c:	6c61                	lui	s8,0x18
 46e:	736c                	ld	a1,224(a4)
 470:	632e                	ld	t1,200(sp)
	...

Disassembly of section .comment:

0000000000000000 <.comment>:
   0:	3a434347          	fmsub.d	ft6,ft6,ft4,ft7,rmm
   4:	2820                	fld	fs0,80(s0)
   6:	2029                	.insn	2, 0x2029
   8:	3431                	addiw	s0,s0,-20 # ffffffffffffafec <__global_pointer$+0xffffffff7fff87a4>
   a:	322e                	fld	ft4,232(sp)
   c:	302e                	fld	ft0,232(sp)
	...

Disassembly of section .riscv.attributes:

0000000000000000 <.riscv.attributes>:
   0:	6941                	lui	s2,0x10
   2:	0000                	unimp
   4:	7200                	ld	s0,32(a2)
   6:	7369                	lui	t1,0xffffa
   8:	01007663          	bgeu	zero,a6,14 <threadsense.3+0x10>
   c:	005f 0000 1004      	.insn	6, 0x10040000005f
  12:	7205                	lui	tp,0xfffe1
  14:	3676                	fld	fa2,376(sp)
  16:	6934                	ld	a3,80(a0)
  18:	7032                	.insn	2, 0x7032
  1a:	5f31                	li	t5,-20
  1c:	326d                	addiw	tp,tp,-5 # fffffffffffe0ffb <__global_pointer$+0xffffffff7ffde7b3>
  1e:	3070                	fld	fa2,224(s0)
  20:	615f 7032 5f31      	.insn	6, 0x5f317032615f
  26:	3266                	fld	ft4,120(sp)
  28:	3270                	fld	fa2,224(a2)
  2a:	645f 7032 5f32      	.insn	6, 0x5f327032645f
  30:	30703263          	.insn	4, 0x30703263
  34:	7a5f 6369 7273      	.insn	6, 0x727363697a5f
  3a:	7032                	.insn	2, 0x7032
  3c:	5f30                	lw	a2,120(a4)
  3e:	697a                	ld	s2,408(sp)
  40:	6566                	ld	a0,88(sp)
  42:	636e                	ld	t1,216(sp)
  44:	6965                	lui	s2,0x19
  46:	7032                	.insn	2, 0x7032
  48:	5f30                	lw	a2,120(a4)
  4a:	6d7a                	ld	s10,408(sp)
  4c:	756d                	lui	a0,0xffffb
  4e:	316c                	fld	fa1,224(a0)
  50:	3070                	fld	fa2,224(s0)
  52:	7a5f 6161 6f6d      	.insn	6, 0x6f6d61617a5f
  58:	7031                	c.lui	zero,0xfffec
  5a:	5f30                	lw	a2,120(a4)
  5c:	617a                	ld	sp,408(sp)
  5e:	726c                	ld	a1,224(a2)
  60:	70316373          	csrrsi	t1,0x703,2
  64:	0030                	addi	a2,sp,8
  66:	0108                	addi	a0,sp,128
  68:	0b0a                	slli	s6,s6,0x2

Disassembly of section .debug_frame:

0000000000000000 <.debug_frame>:
   0:	000c                	.insn	2, 0x000c
   2:	0000                	unimp
   4:	ffff                	.insn	2, 0xffff
   6:	ffff                	.insn	2, 0xffff
   8:	7c010003          	lb	zero,1984(sp)
   c:	0c01                	addi	s8,s8,0 # 18000 <threadsense.3+0x17ffc>
   e:	0002                	c.slli64	zero
  10:	002c                	addi	a1,sp,8
  12:	0000                	unimp
  14:	0000                	unimp
  16:	0000                	unimp
  18:	01c2                	slli	gp,gp,0x10
  1a:	8000                	.insn	2, 0x8000
  1c:	0000                	unimp
  1e:	0000                	unimp
  20:	010e                	slli	sp,sp,0x3
  22:	0000                	unimp
  24:	0000                	unimp
  26:	0000                	unimp
  28:	0e42                	slli	t3,t3,0x10
  2a:	4450                	lw	a2,12(s0)
  2c:	0281                	addi	t0,t0,0 # c42fe <threadsense.3+0xc42fa>
  2e:	0488                	addi	a0,sp,576
  30:	0c42                	slli	s8,s8,0x10
  32:	0008                	.insn	2, 0x0008
  34:	c1010003          	lb	zero,-1008(sp)
  38:	c842                	sw	a6,16(sp)
  3a:	020c                	addi	a1,sp,256
  3c:	4250                	lw	a2,4(a2)
  3e:	000e                	c.slli	zero,0x3
  40:	002c                	addi	a1,sp,8
  42:	0000                	unimp
  44:	0000                	unimp
  46:	0000                	unimp
  48:	02d0                	addi	a2,sp,324
  4a:	8000                	.insn	2, 0x8000
  4c:	0000                	unimp
  4e:	0000                	unimp
  50:	011e                	slli	sp,sp,0x7
  52:	0000                	unimp
  54:	0000                	unimp
  56:	0000                	unimp
  58:	0e42                	slli	t3,t3,0x10
  5a:	4460                	lw	s0,76(s0)
  5c:	0281                	addi	t0,t0,0
  5e:	0488                	addi	a0,sp,576
  60:	0c42                	slli	s8,s8,0x10
  62:	0008                	.insn	2, 0x0008
  64:	c1011003          	lh	zero,-1008(sp)
  68:	c842                	sw	a6,16(sp)
  6a:	020c                	addi	a1,sp,256
  6c:	4260                	lw	s0,68(a2)
  6e:	000e                	c.slli	zero,0x3
  70:	002c                	addi	a1,sp,8
  72:	0000                	unimp
  74:	0000                	unimp
  76:	0000                	unimp
  78:	03ee                	slli	t2,t2,0x1b
  7a:	8000                	.insn	2, 0x8000
  7c:	0000                	unimp
  7e:	0000                	unimp
  80:	0088                	addi	a0,sp,64
  82:	0000                	unimp
  84:	0000                	unimp
  86:	0000                	unimp
  88:	0e42                	slli	t3,t3,0x10
  8a:	4420                	lw	s0,72(s0)
  8c:	0281                	addi	t0,t0,0
  8e:	0488                	addi	a0,sp,576
  90:	0c42                	slli	s8,s8,0x10
  92:	0008                	.insn	2, 0x0008
  94:	7a02                	ld	s4,32(sp)
  96:	42c1                	li	t0,16
  98:	0cc8                	addi	a0,sp,596
  9a:	2002                	fld	ft0,0(sp)
  9c:	0e42                	slli	t3,t3,0x10
  9e:	0000                	unimp
  a0:	002c                	addi	a1,sp,8
  a2:	0000                	unimp
  a4:	0000                	unimp
  a6:	0000                	unimp
  a8:	0476                	slli	s0,s0,0x1d
  aa:	8000                	.insn	2, 0x8000
  ac:	0000                	unimp
  ae:	0000                	unimp
  b0:	003a                	c.slli	zero,0xe
  b2:	0000                	unimp
  b4:	0000                	unimp
  b6:	0000                	unimp
  b8:	0e42                	slli	t3,t3,0x10
  ba:	4430                	lw	a2,72(s0)
  bc:	0281                	addi	t0,t0,0
  be:	0488                	addi	a0,sp,576
  c0:	0c42                	slli	s8,s8,0x10
  c2:	0008                	.insn	2, 0x0008
  c4:	c16c                	sw	a1,68(a0)
  c6:	c842                	sw	a6,16(sp)
  c8:	020c                	addi	a1,sp,256
  ca:	4230                	lw	a2,64(a2)
  cc:	000e                	c.slli	zero,0x3
  ce:	0000                	unimp
  d0:	002c                	addi	a1,sp,8
  d2:	0000                	unimp
  d4:	0000                	unimp
  d6:	0000                	unimp
  d8:	04b0                	addi	a2,sp,584
  da:	8000                	.insn	2, 0x8000
  dc:	0000                	unimp
  de:	0000                	unimp
  e0:	002c                	addi	a1,sp,8
  e2:	0000                	unimp
  e4:	0000                	unimp
  e6:	0000                	unimp
  e8:	0e42                	slli	t3,t3,0x10
  ea:	4420                	lw	s0,72(s0)
  ec:	0281                	addi	t0,t0,0
  ee:	0488                	addi	a0,sp,576
  f0:	0c42                	slli	s8,s8,0x10
  f2:	0008                	.insn	2, 0x0008
  f4:	c15e                	sw	s7,128(sp)
  f6:	c842                	sw	a6,16(sp)
  f8:	020c                	addi	a1,sp,256
  fa:	4220                	lw	s0,64(a2)
  fc:	000e                	c.slli	zero,0x3
  fe:	0000                	unimp
 100:	002c                	addi	a1,sp,8
 102:	0000                	unimp
 104:	0000                	unimp
 106:	0000                	unimp
 108:	04dc                	addi	a5,sp,580
 10a:	8000                	.insn	2, 0x8000
 10c:	0000                	unimp
 10e:	0000                	unimp
 110:	002e                	c.slli	zero,0xb
 112:	0000                	unimp
 114:	0000                	unimp
 116:	0000                	unimp
 118:	0e42                	slli	t3,t3,0x10
 11a:	4420                	lw	s0,72(s0)
 11c:	0281                	addi	t0,t0,0
 11e:	0488                	addi	a0,sp,576
 120:	0c42                	slli	s8,s8,0x10
 122:	0008                	.insn	2, 0x0008
 124:	c160                	sw	s0,68(a0)
 126:	c842                	sw	a6,16(sp)
 128:	020c                	addi	a1,sp,256
 12a:	4220                	lw	s0,64(a2)
 12c:	000e                	c.slli	zero,0x3
 12e:	0000                	unimp
 130:	002c                	addi	a1,sp,8
 132:	0000                	unimp
 134:	0000                	unimp
 136:	0000                	unimp
 138:	050a                	slli	a0,a0,0x2
 13a:	8000                	.insn	2, 0x8000
 13c:	0000                	unimp
 13e:	0000                	unimp
 140:	003e                	c.slli	zero,0xf
 142:	0000                	unimp
 144:	0000                	unimp
 146:	0000                	unimp
 148:	0e42                	slli	t3,t3,0x10
 14a:	4430                	lw	a2,72(s0)
 14c:	0281                	addi	t0,t0,0
 14e:	0488                	addi	a0,sp,576
 150:	0c42                	slli	s8,s8,0x10
 152:	0008                	.insn	2, 0x0008
 154:	c170                	sw	a2,68(a0)
 156:	c842                	sw	a6,16(sp)
 158:	020c                	addi	a1,sp,256
 15a:	4230                	lw	a2,64(a2)
 15c:	000e                	c.slli	zero,0x3
 15e:	0000                	unimp
 160:	0034                	addi	a3,sp,8
 162:	0000                	unimp
 164:	0000                	unimp
 166:	0000                	unimp
 168:	0548                	addi	a0,sp,644
 16a:	8000                	.insn	2, 0x8000
 16c:	0000                	unimp
 16e:	0000                	unimp
 170:	00fc                	addi	a5,sp,76
 172:	0000                	unimp
 174:	0000                	unimp
 176:	0000                	unimp
 178:	0e42                	slli	t3,t3,0x10
 17a:	4850                	lw	a2,20(s0)
 17c:	0281                	addi	t0,t0,0
 17e:	0488                	addi	a0,sp,576
 180:	0689                	addi	a3,a3,2
 182:	0892                	slli	a7,a7,0x4
 184:	0c42                	slli	s8,s8,0x10
 186:	0008                	.insn	2, 0x0008
 188:	e602                	sd	zero,264(sp)
 18a:	42c1                	li	t0,16
 18c:	0cc8                	addi	a0,sp,596
 18e:	5002                	.insn	2, 0x5002
 190:	c942                	sw	a6,144(sp)
 192:	d242                	sw	a6,36(sp)
 194:	0e42                	slli	t3,t3,0x10
 196:	0000                	unimp
 198:	0034                	addi	a3,sp,8
 19a:	0000                	unimp
 19c:	0000                	unimp
 19e:	0000                	unimp
 1a0:	0644                	addi	s1,sp,772
 1a2:	8000                	.insn	2, 0x8000
 1a4:	0000                	unimp
 1a6:	0000                	unimp
 1a8:	012c                	addi	a1,sp,136
 1aa:	0000                	unimp
 1ac:	0000                	unimp
 1ae:	0000                	unimp
 1b0:	0e42                	slli	t3,t3,0x10
 1b2:	0290                	addi	a2,sp,320
 1b4:	8144                	.insn	2, 0x8144
 1b6:	8802                	jr	a6
 1b8:	4204                	lw	s1,0(a2)
 1ba:	080c                	addi	a1,sp,16
 1bc:	0300                	addi	s0,sp,384
 1be:	011e                	slli	sp,sp,0x7
 1c0:	42c1                	li	t0,16
 1c2:	0cc8                	addi	a0,sp,596
 1c4:	9002                	ebreak
 1c6:	4202                	lw	tp,0(sp)
 1c8:	000e                	c.slli	zero,0x3
 1ca:	0000                	unimp
 1cc:	0000                	unimp
 1ce:	0000                	unimp
 1d0:	000c                	.insn	2, 0x000c
 1d2:	0000                	unimp
 1d4:	ffff                	.insn	2, 0xffff
 1d6:	ffff                	.insn	2, 0xffff
 1d8:	7c010003          	lb	zero,1984(sp)
 1dc:	0c01                	addi	s8,s8,0
 1de:	0002                	c.slli64	zero
 1e0:	002c                	addi	a1,sp,8
 1e2:	0000                	unimp
 1e4:	01d0                	addi	a2,sp,196
 1e6:	0000                	unimp
 1e8:	0770                	addi	a2,sp,908
 1ea:	8000                	.insn	2, 0x8000
 1ec:	0000                	unimp
 1ee:	0000                	unimp
 1f0:	010e                	slli	sp,sp,0x3
 1f2:	0000                	unimp
 1f4:	0000                	unimp
 1f6:	0000                	unimp
 1f8:	0e42                	slli	t3,t3,0x10
 1fa:	4450                	lw	a2,12(s0)
 1fc:	0281                	addi	t0,t0,0
 1fe:	0488                	addi	a0,sp,576
 200:	0c42                	slli	s8,s8,0x10
 202:	0008                	.insn	2, 0x0008
 204:	c1010003          	lb	zero,-1008(sp)
 208:	c842                	sw	a6,16(sp)
 20a:	020c                	addi	a1,sp,256
 20c:	4250                	lw	a2,4(a2)
 20e:	000e                	c.slli	zero,0x3
 210:	002c                	addi	a1,sp,8
 212:	0000                	unimp
 214:	01d0                	addi	a2,sp,196
 216:	0000                	unimp
 218:	087e                	slli	a6,a6,0x1f
 21a:	8000                	.insn	2, 0x8000
 21c:	0000                	unimp
 21e:	0000                	unimp
 220:	011e                	slli	sp,sp,0x7
 222:	0000                	unimp
 224:	0000                	unimp
 226:	0000                	unimp
 228:	0e42                	slli	t3,t3,0x10
 22a:	4460                	lw	s0,76(s0)
 22c:	0281                	addi	t0,t0,0
 22e:	0488                	addi	a0,sp,576
 230:	0c42                	slli	s8,s8,0x10
 232:	0008                	.insn	2, 0x0008
 234:	c1011003          	lh	zero,-1008(sp)
 238:	c842                	sw	a6,16(sp)
 23a:	020c                	addi	a1,sp,256
 23c:	4260                	lw	s0,68(a2)
 23e:	000e                	c.slli	zero,0x3
 240:	002c                	addi	a1,sp,8
 242:	0000                	unimp
 244:	01d0                	addi	a2,sp,196
 246:	0000                	unimp
 248:	099c                	addi	a5,sp,208
 24a:	8000                	.insn	2, 0x8000
 24c:	0000                	unimp
 24e:	0000                	unimp
 250:	0078                	addi	a4,sp,12
 252:	0000                	unimp
 254:	0000                	unimp
 256:	0000                	unimp
 258:	0e42                	slli	t3,t3,0x10
 25a:	4420                	lw	s0,72(s0)
 25c:	0281                	addi	t0,t0,0
 25e:	0488                	addi	a0,sp,576
 260:	0c42                	slli	s8,s8,0x10
 262:	0008                	.insn	2, 0x0008
 264:	6a02                	ld	s4,0(sp)
 266:	42c1                	li	t0,16
 268:	0cc8                	addi	a0,sp,596
 26a:	2002                	fld	ft0,0(sp)
 26c:	0e42                	slli	t3,t3,0x10
 26e:	0000                	unimp
 270:	002c                	addi	a1,sp,8
 272:	0000                	unimp
 274:	01d0                	addi	a2,sp,196
 276:	0000                	unimp
 278:	0a14                	addi	a3,sp,272
 27a:	8000                	.insn	2, 0x8000
 27c:	0000                	unimp
 27e:	0000                	unimp
 280:	003a                	c.slli	zero,0xe
 282:	0000                	unimp
 284:	0000                	unimp
 286:	0000                	unimp
 288:	0e42                	slli	t3,t3,0x10
 28a:	4430                	lw	a2,72(s0)
 28c:	0281                	addi	t0,t0,0
 28e:	0488                	addi	a0,sp,576
 290:	0c42                	slli	s8,s8,0x10
 292:	0008                	.insn	2, 0x0008
 294:	c16c                	sw	a1,68(a0)
 296:	c842                	sw	a6,16(sp)
 298:	020c                	addi	a1,sp,256
 29a:	4230                	lw	a2,64(a2)
 29c:	000e                	c.slli	zero,0x3
 29e:	0000                	unimp
 2a0:	002c                	addi	a1,sp,8
 2a2:	0000                	unimp
 2a4:	01d0                	addi	a2,sp,196
 2a6:	0000                	unimp
 2a8:	0a4e                	slli	s4,s4,0x13
 2aa:	8000                	.insn	2, 0x8000
 2ac:	0000                	unimp
 2ae:	0000                	unimp
 2b0:	002c                	addi	a1,sp,8
 2b2:	0000                	unimp
 2b4:	0000                	unimp
 2b6:	0000                	unimp
 2b8:	0e42                	slli	t3,t3,0x10
 2ba:	4420                	lw	s0,72(s0)
 2bc:	0281                	addi	t0,t0,0
 2be:	0488                	addi	a0,sp,576
 2c0:	0c42                	slli	s8,s8,0x10
 2c2:	0008                	.insn	2, 0x0008
 2c4:	c15e                	sw	s7,128(sp)
 2c6:	c842                	sw	a6,16(sp)
 2c8:	020c                	addi	a1,sp,256
 2ca:	4220                	lw	s0,64(a2)
 2cc:	000e                	c.slli	zero,0x3
 2ce:	0000                	unimp
 2d0:	002c                	addi	a1,sp,8
 2d2:	0000                	unimp
 2d4:	01d0                	addi	a2,sp,196
 2d6:	0000                	unimp
 2d8:	0a7a                	slli	s4,s4,0x1e
 2da:	8000                	.insn	2, 0x8000
 2dc:	0000                	unimp
 2de:	0000                	unimp
 2e0:	0026                	c.slli	zero,0x9
 2e2:	0000                	unimp
 2e4:	0000                	unimp
 2e6:	0000                	unimp
 2e8:	0e42                	slli	t3,t3,0x10
 2ea:	4420                	lw	s0,72(s0)
 2ec:	0281                	addi	t0,t0,0
 2ee:	0488                	addi	a0,sp,576
 2f0:	0c42                	slli	s8,s8,0x10
 2f2:	0008                	.insn	2, 0x0008
 2f4:	c158                	sw	a4,4(a0)
 2f6:	c842                	sw	a6,16(sp)
 2f8:	020c                	addi	a1,sp,256
 2fa:	4220                	lw	s0,64(a2)
 2fc:	000e                	c.slli	zero,0x3
 2fe:	0000                	unimp
 300:	002c                	addi	a1,sp,8
 302:	0000                	unimp
 304:	01d0                	addi	a2,sp,196
 306:	0000                	unimp
 308:	0aa0                	addi	s0,sp,344
 30a:	8000                	.insn	2, 0x8000
 30c:	0000                	unimp
 30e:	0000                	unimp
 310:	004e                	c.slli	zero,0x13
 312:	0000                	unimp
 314:	0000                	unimp
 316:	0000                	unimp
 318:	0e42                	slli	t3,t3,0x10
 31a:	4430                	lw	a2,72(s0)
 31c:	0281                	addi	t0,t0,0
 31e:	0488                	addi	a0,sp,576
 320:	0c42                	slli	s8,s8,0x10
 322:	0008                	.insn	2, 0x0008
 324:	4002                	.insn	2, 0x4002
 326:	42c1                	li	t0,16
 328:	0cc8                	addi	a0,sp,596
 32a:	3002                	fld	ft0,32(sp)
 32c:	0e42                	slli	t3,t3,0x10
 32e:	0000                	unimp
 330:	002c                	addi	a1,sp,8
 332:	0000                	unimp
 334:	01d0                	addi	a2,sp,196
 336:	0000                	unimp
 338:	0aee                	slli	s5,s5,0x1b
 33a:	8000                	.insn	2, 0x8000
 33c:	0000                	unimp
 33e:	0000                	unimp
 340:	0046                	c.slli	zero,0x11
 342:	0000                	unimp
 344:	0000                	unimp
 346:	0000                	unimp
 348:	0e42                	slli	t3,t3,0x10
 34a:	4420                	lw	s0,72(s0)
 34c:	0281                	addi	t0,t0,0
 34e:	0488                	addi	a0,sp,576
 350:	0c42                	slli	s8,s8,0x10
 352:	0008                	.insn	2, 0x0008
 354:	c178                	sw	a4,68(a0)
 356:	c842                	sw	a6,16(sp)
 358:	020c                	addi	a1,sp,256
 35a:	4220                	lw	s0,64(a2)
 35c:	000e                	c.slli	zero,0x3
 35e:	0000                	unimp
 360:	002c                	addi	a1,sp,8
 362:	0000                	unimp
 364:	01d0                	addi	a2,sp,196
 366:	0000                	unimp
 368:	0b34                	addi	a3,sp,408
 36a:	8000                	.insn	2, 0x8000
 36c:	0000                	unimp
 36e:	0000                	unimp
 370:	003a                	c.slli	zero,0xe
 372:	0000                	unimp
 374:	0000                	unimp
 376:	0000                	unimp
 378:	0e42                	slli	t3,t3,0x10
 37a:	4420                	lw	s0,72(s0)
 37c:	0281                	addi	t0,t0,0
 37e:	0488                	addi	a0,sp,576
 380:	0c42                	slli	s8,s8,0x10
 382:	0008                	.insn	2, 0x0008
 384:	c16c                	sw	a1,68(a0)
 386:	c842                	sw	a6,16(sp)
 388:	020c                	addi	a1,sp,256
 38a:	4220                	lw	s0,64(a2)
 38c:	000e                	c.slli	zero,0x3
 38e:	0000                	unimp
 390:	0034                	addi	a3,sp,8
 392:	0000                	unimp
 394:	01d0                	addi	a2,sp,196
 396:	0000                	unimp
 398:	0b6e                	slli	s6,s6,0x1b
 39a:	8000                	.insn	2, 0x8000
 39c:	0000                	unimp
 39e:	0000                	unimp
 3a0:	0082                	c.slli64	ra
 3a2:	0000                	unimp
 3a4:	0000                	unimp
 3a6:	0000                	unimp
 3a8:	0e42                	slli	t3,t3,0x10
 3aa:	01b0                	addi	a2,sp,200
 3ac:	8144                	.insn	2, 0x8144
 3ae:	8802                	jr	a6
 3b0:	4204                	lw	s1,0(a2)
 3b2:	080c                	addi	a1,sp,16
 3b4:	0200                	addi	s0,sp,256
 3b6:	c174                	sw	a3,68(a0)
 3b8:	c842                	sw	a6,16(sp)
 3ba:	020c                	addi	a1,sp,256
 3bc:	01b0                	addi	a2,sp,200
 3be:	0e42                	slli	t3,t3,0x10
	...
 3c8:	002c                	addi	a1,sp,8
 3ca:	0000                	unimp
 3cc:	01d0                	addi	a2,sp,196
 3ce:	0000                	unimp
 3d0:	0bf0                	addi	a2,sp,476
 3d2:	8000                	.insn	2, 0x8000
 3d4:	0000                	unimp
 3d6:	0000                	unimp
 3d8:	010c                	addi	a1,sp,128
 3da:	0000                	unimp
 3dc:	0000                	unimp
 3de:	0000                	unimp
 3e0:	0e42                	slli	t3,t3,0x10
 3e2:	4450                	lw	a2,12(s0)
 3e4:	0281                	addi	t0,t0,0
 3e6:	0488                	addi	a0,sp,576
 3e8:	0c42                	slli	s8,s8,0x10
 3ea:	0008                	.insn	2, 0x0008
 3ec:	c100fe03          	.insn	4, 0xc100fe03
 3f0:	c842                	sw	a6,16(sp)
 3f2:	020c                	addi	a1,sp,256
 3f4:	4250                	lw	a2,4(a2)
 3f6:	000e                	c.slli	zero,0x3
 3f8:	0024                	addi	s1,sp,8
 3fa:	0000                	unimp
 3fc:	01d0                	addi	a2,sp,196
 3fe:	0000                	unimp
 400:	0cfc                	addi	a5,sp,604
 402:	8000                	.insn	2, 0x8000
 404:	0000                	unimp
 406:	0000                	unimp
 408:	0022                	c.slli	zero,0x8
 40a:	0000                	unimp
 40c:	0000                	unimp
 40e:	0000                	unimp
 410:	0e42                	slli	t3,t3,0x10
 412:	4420                	lw	s0,72(s0)
 414:	0281                	addi	t0,t0,0
 416:	0488                	addi	a0,sp,576
 418:	0c42                	slli	s8,s8,0x10
 41a:	0008                	.insn	2, 0x0008
 41c:	0000                	unimp
 41e:	0000                	unimp
 420:	0024                	addi	s1,sp,8
 422:	0000                	unimp
 424:	01d0                	addi	a2,sp,196
 426:	0000                	unimp
 428:	0d1e                	slli	s10,s10,0x7
 42a:	8000                	.insn	2, 0x8000
 42c:	0000                	unimp
 42e:	0000                	unimp
 430:	001c                	.insn	2, 0x001c
 432:	0000                	unimp
 434:	0000                	unimp
 436:	0000                	unimp
 438:	0e42                	slli	t3,t3,0x10
 43a:	4430                	lw	a2,72(s0)
 43c:	0281                	addi	t0,t0,0
 43e:	0488                	addi	a0,sp,576
 440:	0c42                	slli	s8,s8,0x10
 442:	0008                	.insn	2, 0x0008
 444:	0000                	unimp
 446:	0000                	unimp
 448:	0024                	addi	s1,sp,8
 44a:	0000                	unimp
 44c:	01d0                	addi	a2,sp,196
 44e:	0000                	unimp
 450:	0d3a                	slli	s10,s10,0xe
 452:	8000                	.insn	2, 0x8000
 454:	0000                	unimp
 456:	0000                	unimp
 458:	0018                	.insn	2, 0x0018
 45a:	0000                	unimp
 45c:	0000                	unimp
 45e:	0000                	unimp
 460:	0e42                	slli	t3,t3,0x10
 462:	4420                	lw	s0,72(s0)
 464:	0281                	addi	t0,t0,0
 466:	0488                	addi	a0,sp,576
 468:	0c42                	slli	s8,s8,0x10
 46a:	0008                	.insn	2, 0x0008
 46c:	0000                	unimp
 46e:	0000                	unimp
 470:	0024                	addi	s1,sp,8
 472:	0000                	unimp
 474:	01d0                	addi	a2,sp,196
 476:	0000                	unimp
 478:	0d52                	slli	s10,s10,0x14
 47a:	8000                	.insn	2, 0x8000
 47c:	0000                	unimp
 47e:	0000                	unimp
 480:	0010                	.insn	2, 0x0010
 482:	0000                	unimp
 484:	0000                	unimp
 486:	0000                	unimp
 488:	0e42                	slli	t3,t3,0x10
 48a:	4410                	lw	a2,8(s0)
 48c:	0281                	addi	t0,t0,0
 48e:	0488                	addi	a0,sp,576
 490:	0c42                	slli	s8,s8,0x10
 492:	0008                	.insn	2, 0x0008
 494:	0000                	unimp
 496:	0000                	unimp
 498:	002c                	addi	a1,sp,8
 49a:	0000                	unimp
 49c:	01d0                	addi	a2,sp,196
 49e:	0000                	unimp
 4a0:	0d62                	slli	s10,s10,0x18
 4a2:	8000                	.insn	2, 0x8000
 4a4:	0000                	unimp
 4a6:	0000                	unimp
 4a8:	001e                	c.slli	zero,0x7
 4aa:	0000                	unimp
 4ac:	0000                	unimp
 4ae:	0000                	unimp
 4b0:	0e42                	slli	t3,t3,0x10
 4b2:	4420                	lw	s0,72(s0)
 4b4:	0281                	addi	t0,t0,0
 4b6:	0488                	addi	a0,sp,576
 4b8:	0c42                	slli	s8,s8,0x10
 4ba:	0008                	.insn	2, 0x0008
 4bc:	c150                	sw	a2,4(a0)
 4be:	c842                	sw	a6,16(sp)
 4c0:	020c                	addi	a1,sp,256
 4c2:	4220                	lw	s0,64(a2)
 4c4:	000e                	c.slli	zero,0x3
 4c6:	0000                	unimp
 4c8:	002c                	addi	a1,sp,8
 4ca:	0000                	unimp
 4cc:	01d0                	addi	a2,sp,196
 4ce:	0000                	unimp
 4d0:	0d80                	addi	s0,sp,720
 4d2:	8000                	.insn	2, 0x8000
 4d4:	0000                	unimp
 4d6:	0000                	unimp
 4d8:	0020                	addi	s0,sp,8
 4da:	0000                	unimp
 4dc:	0000                	unimp
 4de:	0000                	unimp
 4e0:	0e42                	slli	t3,t3,0x10
 4e2:	4420                	lw	s0,72(s0)
 4e4:	0281                	addi	t0,t0,0
 4e6:	0488                	addi	a0,sp,576
 4e8:	0c42                	slli	s8,s8,0x10
 4ea:	0008                	.insn	2, 0x0008
 4ec:	c152                	sw	s4,128(sp)
 4ee:	c842                	sw	a6,16(sp)
 4f0:	020c                	addi	a1,sp,256
 4f2:	4220                	lw	s0,64(a2)
 4f4:	000e                	c.slli	zero,0x3
 4f6:	0000                	unimp
 4f8:	002c                	addi	a1,sp,8
 4fa:	0000                	unimp
 4fc:	01d0                	addi	a2,sp,196
 4fe:	0000                	unimp
 500:	0da0                	addi	s0,sp,728
 502:	8000                	.insn	2, 0x8000
 504:	0000                	unimp
 506:	0000                	unimp
 508:	002c                	addi	a1,sp,8
 50a:	0000                	unimp
 50c:	0000                	unimp
 50e:	0000                	unimp
 510:	0e42                	slli	t3,t3,0x10
 512:	4420                	lw	s0,72(s0)
 514:	0281                	addi	t0,t0,0
 516:	0488                	addi	a0,sp,576
 518:	0c42                	slli	s8,s8,0x10
 51a:	0008                	.insn	2, 0x0008
 51c:	c15e                	sw	s7,128(sp)
 51e:	c842                	sw	a6,16(sp)
 520:	020c                	addi	a1,sp,256
 522:	4220                	lw	s0,64(a2)
 524:	000e                	c.slli	zero,0x3
 526:	0000                	unimp
 528:	002c                	addi	a1,sp,8
 52a:	0000                	unimp
 52c:	01d0                	addi	a2,sp,196
 52e:	0000                	unimp
 530:	0dcc                	addi	a1,sp,724
 532:	8000                	.insn	2, 0x8000
 534:	0000                	unimp
 536:	0000                	unimp
 538:	002a                	c.slli	zero,0xa
 53a:	0000                	unimp
 53c:	0000                	unimp
 53e:	0000                	unimp
 540:	0e42                	slli	t3,t3,0x10
 542:	4420                	lw	s0,72(s0)
 544:	0281                	addi	t0,t0,0
 546:	0488                	addi	a0,sp,576
 548:	0c42                	slli	s8,s8,0x10
 54a:	0008                	.insn	2, 0x0008
 54c:	c15c                	sw	a5,4(a0)
 54e:	c842                	sw	a6,16(sp)
 550:	020c                	addi	a1,sp,256
 552:	4220                	lw	s0,64(a2)
 554:	000e                	c.slli	zero,0x3
 556:	0000                	unimp
 558:	002c                	addi	a1,sp,8
 55a:	0000                	unimp
 55c:	01d0                	addi	a2,sp,196
 55e:	0000                	unimp
 560:	0df6                	slli	s11,s11,0x1d
 562:	8000                	.insn	2, 0x8000
 564:	0000                	unimp
 566:	0000                	unimp
 568:	0056                	c.slli	zero,0x15
 56a:	0000                	unimp
 56c:	0000                	unimp
 56e:	0000                	unimp
 570:	0e42                	slli	t3,t3,0x10
 572:	4420                	lw	s0,72(s0)
 574:	0281                	addi	t0,t0,0
 576:	0488                	addi	a0,sp,576
 578:	0c42                	slli	s8,s8,0x10
 57a:	0008                	.insn	2, 0x0008
 57c:	4802                	lw	a6,0(sp)
 57e:	42c1                	li	t0,16
 580:	0cc8                	addi	a0,sp,596
 582:	2002                	fld	ft0,0(sp)
 584:	0e42                	slli	t3,t3,0x10
 586:	0000                	unimp
 588:	0024                	addi	s1,sp,8
 58a:	0000                	unimp
 58c:	01d0                	addi	a2,sp,196
 58e:	0000                	unimp
 590:	0e4c                	addi	a1,sp,788
 592:	8000                	.insn	2, 0x8000
 594:	0000                	unimp
 596:	0000                	unimp
 598:	00e6                	slli	ra,ra,0x19
 59a:	0000                	unimp
 59c:	0000                	unimp
 59e:	0000                	unimp
 5a0:	0e42                	slli	t3,t3,0x10
 5a2:	01b0                	addi	a2,sp,200
 5a4:	8146                	mv	sp,a7
 5a6:	8802                	jr	a6
 5a8:	8904                	.insn	2, 0x8904
 5aa:	4206                	lw	tp,64(sp)
 5ac:	080c                	addi	a1,sp,16
 5ae:	0000                	unimp
 5b0:	002c                	addi	a1,sp,8
 5b2:	0000                	unimp
 5b4:	01d0                	addi	a2,sp,196
 5b6:	0000                	unimp
 5b8:	0f32                	slli	t5,t5,0xc
 5ba:	8000                	.insn	2, 0x8000
 5bc:	0000                	unimp
 5be:	0000                	unimp
 5c0:	0028                	addi	a0,sp,8
 5c2:	0000                	unimp
 5c4:	0000                	unimp
 5c6:	0000                	unimp
 5c8:	0e42                	slli	t3,t3,0x10
 5ca:	4420                	lw	s0,72(s0)
 5cc:	0281                	addi	t0,t0,0
 5ce:	0488                	addi	a0,sp,576
 5d0:	0c42                	slli	s8,s8,0x10
 5d2:	0008                	.insn	2, 0x0008
 5d4:	c15a                	sw	s6,128(sp)
 5d6:	c842                	sw	a6,16(sp)
 5d8:	020c                	addi	a1,sp,256
 5da:	4220                	lw	s0,64(a2)
 5dc:	000e                	c.slli	zero,0x3
 5de:	0000                	unimp
 5e0:	002c                	addi	a1,sp,8
 5e2:	0000                	unimp
 5e4:	01d0                	addi	a2,sp,196
 5e6:	0000                	unimp
 5e8:	0f5a                	slli	t5,t5,0x16
 5ea:	8000                	.insn	2, 0x8000
 5ec:	0000                	unimp
 5ee:	0000                	unimp
 5f0:	008c                	addi	a1,sp,64
 5f2:	0000                	unimp
 5f4:	0000                	unimp
 5f6:	0000                	unimp
 5f8:	0e42                	slli	t3,t3,0x10
 5fa:	4440                	lw	s0,12(s0)
 5fc:	0281                	addi	t0,t0,0
 5fe:	0488                	addi	a0,sp,576
 600:	0c42                	slli	s8,s8,0x10
 602:	0008                	.insn	2, 0x0008
 604:	7e02                	ld	t3,32(sp)
 606:	42c1                	li	t0,16
 608:	0cc8                	addi	a0,sp,596
 60a:	4002                	.insn	2, 0x4002
 60c:	0e42                	slli	t3,t3,0x10
 60e:	0000                	unimp
 610:	0034                	addi	a3,sp,8
 612:	0000                	unimp
 614:	01d0                	addi	a2,sp,196
 616:	0000                	unimp
 618:	0fe6                	slli	t6,t6,0x19
 61a:	8000                	.insn	2, 0x8000
 61c:	0000                	unimp
 61e:	0000                	unimp
 620:	00f8                	addi	a4,sp,76
 622:	0000                	unimp
 624:	0000                	unimp
 626:	0000                	unimp
 628:	0e42                	slli	t3,t3,0x10
 62a:	02d0                	addi	a2,sp,324
 62c:	8144                	.insn	2, 0x8144
 62e:	8802                	jr	a6
 630:	4204                	lw	s1,0(a2)
 632:	080c                	addi	a1,sp,16
 634:	0200                	addi	s0,sp,256
 636:	c1ea                	sw	s10,192(sp)
 638:	c842                	sw	a6,16(sp)
 63a:	020c                	addi	a1,sp,256
 63c:	02d0                	addi	a2,sp,324
 63e:	0e42                	slli	t3,t3,0x10
	...
 648:	002c                	addi	a1,sp,8
 64a:	0000                	unimp
 64c:	01d0                	addi	a2,sp,196
 64e:	0000                	unimp
 650:	10de                	slli	ra,ra,0x37
 652:	8000                	.insn	2, 0x8000
 654:	0000                	unimp
 656:	0000                	unimp
 658:	0070                	addi	a2,sp,12
 65a:	0000                	unimp
 65c:	0000                	unimp
 65e:	0000                	unimp
 660:	0e42                	slli	t3,t3,0x10
 662:	4420                	lw	s0,72(s0)
 664:	0281                	addi	t0,t0,0
 666:	0488                	addi	a0,sp,576
 668:	0c42                	slli	s8,s8,0x10
 66a:	0008                	.insn	2, 0x0008
 66c:	6202                	ld	tp,0(sp)
 66e:	42c1                	li	t0,16
 670:	0cc8                	addi	a0,sp,596
 672:	2002                	fld	ft0,0(sp)
 674:	0e42                	slli	t3,t3,0x10
 676:	0000                	unimp
 678:	002c                	addi	a1,sp,8
 67a:	0000                	unimp
 67c:	01d0                	addi	a2,sp,196
 67e:	0000                	unimp
 680:	114e                	slli	sp,sp,0x33
 682:	8000                	.insn	2, 0x8000
 684:	0000                	unimp
 686:	0000                	unimp
 688:	006c                	addi	a1,sp,12
 68a:	0000                	unimp
 68c:	0000                	unimp
 68e:	0000                	unimp
 690:	0e42                	slli	t3,t3,0x10
 692:	4420                	lw	s0,72(s0)
 694:	0281                	addi	t0,t0,0
 696:	0488                	addi	a0,sp,576
 698:	0c42                	slli	s8,s8,0x10
 69a:	0008                	.insn	2, 0x0008
 69c:	5e02                	lw	t3,32(sp)
 69e:	42c1                	li	t0,16
 6a0:	0cc8                	addi	a0,sp,596
 6a2:	2002                	fld	ft0,0(sp)
 6a4:	0e42                	slli	t3,t3,0x10
 6a6:	0000                	unimp
 6a8:	0034                	addi	a3,sp,8
 6aa:	0000                	unimp
 6ac:	01d0                	addi	a2,sp,196
 6ae:	0000                	unimp
 6b0:	11ba                	slli	gp,gp,0x2e
 6b2:	8000                	.insn	2, 0x8000
 6b4:	0000                	unimp
 6b6:	0000                	unimp
 6b8:	035e                	slli	t1,t1,0x17
 6ba:	0000                	unimp
 6bc:	0000                	unimp
 6be:	0000                	unimp
 6c0:	0e42                	slli	t3,t3,0x10
 6c2:	4870                	lw	a2,84(s0)
 6c4:	0281                	addi	t0,t0,0
 6c6:	0488                	addi	a0,sp,576
 6c8:	0689                	addi	a3,a3,2
 6ca:	0892                	slli	a7,a7,0x4
 6cc:	0c42                	slli	s8,s8,0x10
 6ce:	0008                	.insn	2, 0x0008
 6d0:	c1034803          	lbu	a6,-1008(t1) # ffffffffffff9c10 <__global_pointer$+0xffffffff7fff73c8>
 6d4:	c842                	sw	a6,16(sp)
 6d6:	020c                	addi	a1,sp,256
 6d8:	4270                	lw	a2,68(a2)
 6da:	42c9                	li	t0,18
 6dc:	42d2                	lw	t0,20(sp)
 6de:	000e                	c.slli	zero,0x3
 6e0:	002c                	addi	a1,sp,8
 6e2:	0000                	unimp
 6e4:	01d0                	addi	a2,sp,196
 6e6:	0000                	unimp
 6e8:	1518                	addi	a4,sp,672
 6ea:	8000                	.insn	2, 0x8000
 6ec:	0000                	unimp
 6ee:	0000                	unimp
 6f0:	0056                	c.slli	zero,0x15
 6f2:	0000                	unimp
 6f4:	0000                	unimp
 6f6:	0000                	unimp
 6f8:	0e42                	slli	t3,t3,0x10
 6fa:	4470                	lw	a2,76(s0)
 6fc:	1281                	addi	t0,t0,-32
 6fe:	1488                	addi	a0,sp,608
 700:	0c42                	slli	s8,s8,0x10
 702:	4008                	lw	a0,0(s0)
 704:	4802                	lw	a6,0(sp)
 706:	42c1                	li	t0,16
 708:	0cc8                	addi	a0,sp,596
 70a:	7002                	.insn	2, 0x7002
 70c:	0e42                	slli	t3,t3,0x10
 70e:	0000                	unimp
 710:	002c                	addi	a1,sp,8
 712:	0000                	unimp
 714:	01d0                	addi	a2,sp,196
 716:	0000                	unimp
 718:	156e                	slli	a0,a0,0x3b
 71a:	8000                	.insn	2, 0x8000
 71c:	0000                	unimp
 71e:	0000                	unimp
 720:	004a                	c.slli	zero,0x12
 722:	0000                	unimp
 724:	0000                	unimp
 726:	0000                	unimp
 728:	0e42                	slli	t3,t3,0x10
 72a:	4440                	lw	s0,12(s0)
 72c:	0281                	addi	t0,t0,0
 72e:	0488                	addi	a0,sp,576
 730:	0c42                	slli	s8,s8,0x10
 732:	0008                	.insn	2, 0x0008
 734:	c17c                	sw	a5,68(a0)
 736:	c842                	sw	a6,16(sp)
 738:	020c                	addi	a1,sp,256
 73a:	4240                	lw	s0,4(a2)
 73c:	000e                	c.slli	zero,0x3
 73e:	0000                	unimp
 740:	0034                	addi	a3,sp,8
 742:	0000                	unimp
 744:	01d0                	addi	a2,sp,196
 746:	0000                	unimp
 748:	15b8                	addi	a4,sp,744
 74a:	8000                	.insn	2, 0x8000
 74c:	0000                	unimp
 74e:	0000                	unimp
 750:	00c2                	slli	ra,ra,0x10
 752:	0000                	unimp
 754:	0000                	unimp
 756:	0000                	unimp
 758:	0e42                	slli	t3,t3,0x10
 75a:	0290                	addi	a2,sp,320
 75c:	8144                	.insn	2, 0x8144
 75e:	880e                	mv	a6,gp
 760:	4210                	lw	a2,0(a2)
 762:	080c                	addi	a1,sp,16
 764:	0230                	addi	a2,sp,264
 766:	c1b4                	sw	a3,64(a1)
 768:	c842                	sw	a6,16(sp)
 76a:	020c                	addi	a1,sp,256
 76c:	0290                	addi	a2,sp,320
 76e:	0e42                	slli	t3,t3,0x10
	...
 778:	002c                	addi	a1,sp,8
 77a:	0000                	unimp
 77c:	01d0                	addi	a2,sp,196
 77e:	0000                	unimp
 780:	167a                	slli	a2,a2,0x3e
 782:	8000                	.insn	2, 0x8000
 784:	0000                	unimp
 786:	0000                	unimp
 788:	00bc                	addi	a5,sp,72
 78a:	0000                	unimp
 78c:	0000                	unimp
 78e:	0000                	unimp
 790:	0e42                	slli	t3,t3,0x10
 792:	4450                	lw	a2,12(s0)
 794:	0281                	addi	t0,t0,0
 796:	0488                	addi	a0,sp,576
 798:	0c42                	slli	s8,s8,0x10
 79a:	0008                	.insn	2, 0x0008
 79c:	ae02                	fsd	ft0,280(sp)
 79e:	42c1                	li	t0,16
 7a0:	0cc8                	addi	a0,sp,596
 7a2:	5002                	.insn	2, 0x5002
 7a4:	0e42                	slli	t3,t3,0x10
 7a6:	0000                	unimp
 7a8:	002c                	addi	a1,sp,8
 7aa:	0000                	unimp
 7ac:	01d0                	addi	a2,sp,196
 7ae:	0000                	unimp
 7b0:	1736                	slli	a4,a4,0x2d
 7b2:	8000                	.insn	2, 0x8000
 7b4:	0000                	unimp
 7b6:	0000                	unimp
 7b8:	00d2                	slli	ra,ra,0x14
 7ba:	0000                	unimp
 7bc:	0000                	unimp
 7be:	0000                	unimp
 7c0:	0e42                	slli	t3,t3,0x10
 7c2:	4450                	lw	a2,12(s0)
 7c4:	0281                	addi	t0,t0,0
 7c6:	0488                	addi	a0,sp,576
 7c8:	0c42                	slli	s8,s8,0x10
 7ca:	0008                	.insn	2, 0x0008
 7cc:	c402                	sw	zero,8(sp)
 7ce:	42c1                	li	t0,16
 7d0:	0cc8                	addi	a0,sp,596
 7d2:	5002                	.insn	2, 0x5002
 7d4:	0e42                	slli	t3,t3,0x10
 7d6:	0000                	unimp
 7d8:	002c                	addi	a1,sp,8
 7da:	0000                	unimp
 7dc:	01d0                	addi	a2,sp,196
 7de:	0000                	unimp
 7e0:	1808                	addi	a0,sp,48
 7e2:	8000                	.insn	2, 0x8000
 7e4:	0000                	unimp
 7e6:	0000                	unimp
 7e8:	0040                	addi	s0,sp,4
 7ea:	0000                	unimp
 7ec:	0000                	unimp
 7ee:	0000                	unimp
 7f0:	0e42                	slli	t3,t3,0x10
 7f2:	4430                	lw	a2,72(s0)
 7f4:	0281                	addi	t0,t0,0
 7f6:	0488                	addi	a0,sp,576
 7f8:	0c42                	slli	s8,s8,0x10
 7fa:	0008                	.insn	2, 0x0008
 7fc:	c172                	sw	t3,128(sp)
 7fe:	c842                	sw	a6,16(sp)
 800:	020c                	addi	a1,sp,256
 802:	4230                	lw	a2,64(a2)
 804:	000e                	c.slli	zero,0x3
 806:	0000                	unimp
 808:	002c                	addi	a1,sp,8
 80a:	0000                	unimp
 80c:	01d0                	addi	a2,sp,196
 80e:	0000                	unimp
 810:	1848                	addi	a0,sp,52
 812:	8000                	.insn	2, 0x8000
 814:	0000                	unimp
 816:	0000                	unimp
 818:	0052                	c.slli	zero,0x14
 81a:	0000                	unimp
 81c:	0000                	unimp
 81e:	0000                	unimp
 820:	0e42                	slli	t3,t3,0x10
 822:	4430                	lw	a2,72(s0)
 824:	0281                	addi	t0,t0,0
 826:	0488                	addi	a0,sp,576
 828:	0c42                	slli	s8,s8,0x10
 82a:	0008                	.insn	2, 0x0008
 82c:	4402                	lw	s0,0(sp)
 82e:	42c1                	li	t0,16
 830:	0cc8                	addi	a0,sp,596
 832:	3002                	fld	ft0,32(sp)
 834:	0e42                	slli	t3,t3,0x10
 836:	0000                	unimp
 838:	002c                	addi	a1,sp,8
 83a:	0000                	unimp
 83c:	01d0                	addi	a2,sp,196
 83e:	0000                	unimp
 840:	189a                	slli	a7,a7,0x26
 842:	8000                	.insn	2, 0x8000
 844:	0000                	unimp
 846:	0000                	unimp
 848:	0076                	c.slli	zero,0x1d
 84a:	0000                	unimp
 84c:	0000                	unimp
 84e:	0000                	unimp
 850:	0e42                	slli	t3,t3,0x10
 852:	4430                	lw	a2,72(s0)
 854:	0281                	addi	t0,t0,0
 856:	0488                	addi	a0,sp,576
 858:	0c42                	slli	s8,s8,0x10
 85a:	0008                	.insn	2, 0x0008
 85c:	6802                	ld	a6,0(sp)
 85e:	42c1                	li	t0,16
 860:	0cc8                	addi	a0,sp,596
 862:	3002                	fld	ft0,32(sp)
 864:	0e42                	slli	t3,t3,0x10
 866:	0000                	unimp
 868:	002c                	addi	a1,sp,8
 86a:	0000                	unimp
 86c:	01d0                	addi	a2,sp,196
 86e:	0000                	unimp
 870:	1910                	addi	a2,sp,176
 872:	8000                	.insn	2, 0x8000
 874:	0000                	unimp
 876:	0000                	unimp
 878:	004e                	c.slli	zero,0x13
 87a:	0000                	unimp
 87c:	0000                	unimp
 87e:	0000                	unimp
 880:	0e42                	slli	t3,t3,0x10
 882:	4430                	lw	a2,72(s0)
 884:	0281                	addi	t0,t0,0
 886:	0488                	addi	a0,sp,576
 888:	0c42                	slli	s8,s8,0x10
 88a:	0008                	.insn	2, 0x0008
 88c:	4002                	.insn	2, 0x4002
 88e:	42c1                	li	t0,16
 890:	0cc8                	addi	a0,sp,596
 892:	3002                	fld	ft0,32(sp)
 894:	0e42                	slli	t3,t3,0x10
 896:	0000                	unimp
 898:	002c                	addi	a1,sp,8
 89a:	0000                	unimp
 89c:	01d0                	addi	a2,sp,196
 89e:	0000                	unimp
 8a0:	195e                	slli	s2,s2,0x37
 8a2:	8000                	.insn	2, 0x8000
 8a4:	0000                	unimp
 8a6:	0000                	unimp
 8a8:	00e0                	addi	s0,sp,76
 8aa:	0000                	unimp
 8ac:	0000                	unimp
 8ae:	0000                	unimp
 8b0:	0e42                	slli	t3,t3,0x10
 8b2:	4430                	lw	a2,72(s0)
 8b4:	0281                	addi	t0,t0,0
 8b6:	0488                	addi	a0,sp,576
 8b8:	0c42                	slli	s8,s8,0x10
 8ba:	0008                	.insn	2, 0x0008
 8bc:	d202                	sw	zero,36(sp)
 8be:	42c1                	li	t0,16
 8c0:	0cc8                	addi	a0,sp,596
 8c2:	3002                	fld	ft0,32(sp)
 8c4:	0e42                	slli	t3,t3,0x10
	...
